(dp1
S'version'
p2
(lp3
((S'HasTraits'
p4
S'enthought.traits.has_traits'
p5
tI-1
tp6
a((S'HasStrictTraits'
p7
g5
tI-1
tp8
a((S'Engine'
p9
S'enthought.mayavi.engine'
p10
tI0
tp11
asS'class_name'
p12
g9
sS'initargs'
p13
(dp14
S'data'
p15
(tsS'type'
p16
S'tuple'
p17
sS'id'
p18
I1
ssg16
S'instance'
p19
sg18
I0
sS'module'
p20
g10
sg15
(dp21
g15
(dp22
S'_current_selection'
p23
(dp24
g2
(lp25
((g4
g5
tI-1
tp26
a((S'HasPrivateTraits'
p27
g5
tI-1
tp28
a((S'TreeNodeObject'
p29
S'enthought.traits.ui.tree_node'
p30
tI-1
tp31
a((S'Base'
p32
S'enthought.mayavi.core.base'
p33
tI0
tp34
a((S'PipelineBase'
p35
S'enthought.mayavi.core.pipeline_base'
p36
tI0
tp37
a((S'Module'
p38
S'enthought.mayavi.core.module'
p39
tI0
tp40
a((S'IsoSurface'
p41
S'enthought.mayavi.modules.iso_surface'
p42
tI0
tp43
asg12
g41
sg13
(dp44
g15
Nsg16
S'reference'
p45
sg18
I1
ssg16
g19
sg18
I3
sg20
g42
sg15
(dp46
g15
(dp47
S'name'
p48
S''
sS'compute_normals'
p49
I01
sS'actor'
p50
(dp51
g2
(lp52
((g4
g5
tI-1
tp53
a((g27
g5
tI-1
tp54
a((g29
g30
tI-1
tp55
a((g32
g33
tI0
tp56
a((g35
g36
tI0
tp57
a((S'Component'
p58
S'enthought.mayavi.core.component'
p59
tI0
tp60
a((S'Actor'
p61
S'enthought.mayavi.components.actor'
p62
tI0
tp63
asg12
g61
sg13
(dp64
g15
Nsg16
g45
sg18
I1
ssg16
g19
sg18
I5
sg20
g62
sg15
(dp65
g15
(dp66
S'mapper'
p67
(dp68
g2
(lp69
((g4
g5
tI-1
tp70
a((g7
g5
tI-1
tp71
a((S'TVTKBase'
p72
S'enthought.tvtk.tvtk_base'
p73
tI-1
tp74
a((S'ObjectBase'
p75
S'tvtk_classes.object_base'
p76
tI-1
tp77
a((S'Object'
p78
S'tvtk_classes.object'
p79
tI-1
tp80
a((S'Algorithm'
p81
S'tvtk_classes.algorithm'
p82
tI-1
tp83
a((S'AbstractMapper'
p84
S'tvtk_classes.abstract_mapper'
p85
tI-1
tp86
a((S'AbstractMapper3D'
p87
S'tvtk_classes.abstract_mapper3d'
p88
tI-1
tp89
a((S'Mapper'
p90
S'tvtk_classes.mapper'
p91
tI-1
tp92
a((S'PolyDataMapper'
p93
S'tvtk_classes.poly_data_mapper'
p94
tI-1
tp95
asg12
g93
sg13
(dp96
g15
(NI0
tp97
sg16
g17
sg18
I8
ssg16
g19
sg18
I7
sg20
g94
sg15
(dp98
g15
(dp99
S'immediate_mode_rendering'
p100
I0
sS'immediate_mode_rendering_'
p101
I0
sS'scalar_mode'
p102
S'default'
p103
sS'static'
p104
I0
sS'debug_'
p105
I0
sS'resolve_coincident_topology_z_shift'
p106
F0.01
sS'ghost_level'
p107
I0
sS'color_mode'
p108
g103
sS'interpolate_scalars_before_mapping'
p109
I0
sS'debug'
p110
I0
sS'resolve_coincident_topology_'
p111
I0
sS'use_lookup_table_scalar_range'
p112
I1
sS'abort_execute'
p113
I0
sS'release_data_flag'
p114
I0
sS'progress'
p115
F1
sS'scalar_range'
p116
(dp117
g15
S'H4sIAI7mm0YC/53OsQrCMBQF0P3+SLIY0lbBQXDOksGsgjRpCoJNQ/oC5u99VL/A4Q6Pe7i8kOqS\nmwpriWqpL3qOpYwNjxLDmjYqNRByBxl2hzR9+9xDGg1ywgvQLQ98sjI96CcnajkiHyGdmM8CrFkw\nPTEb4MRFwFprDh328Jg3WnNxf2v9X2Z95W+8+gDYoI1C1QAAAA==\n'
p118
sg16
S'numeric'
p119
sg18
I10
ssS'use_lookup_table_scalar_range_'
p120
I1
sS'global_warning_display_'
p121
I0
sS'global_immediate_mode_rendering_'
p122
I0
sS'scalar_visibility'
p123
I1
sS'abort_execute_'
p124
I0
sS'scalar_visibility_'
p125
I1
sS'static_'
p126
I0
sS'global_immediate_mode_rendering'
p127
I0
sS'interpolate_scalars_before_mapping_'
p128
I0
sS'number_of_sub_pieces'
p129
I1
sS'scalar_material_mode'
p130
g103
sS'release_data_flag_'
p131
I0
sS'piece'
p132
I0
sS'number_of_pieces'
p133
I1
sS'resolve_coincident_topology'
p134
S'off'
p135
sS'render_time'
p136
F0
ssg16
S'dict'
p137
sg18
I9
sssS'_saved_state'
p138
S''
sS'property'
p139
(dp140
g2
(lp141
((g4
g5
tI-1
tp142
a((g7
g5
tI-1
tp143
a((g72
g73
tI-1
tp144
a((g75
g76
tI-1
tp145
a((g78
g79
tI-1
tp146
a((S'Property'
p147
S'tvtk_classes.property'
p148
tI-1
tp149
a((S'OpenGLProperty'
p150
S'tvtk_classes.open_gl_property'
p151
tI-1
tp152
asg12
g150
sg13
(dp153
g15
Nsg16
g45
sg18
I8
ssg16
g19
sg18
I17
sg20
g151
sg15
(dp154
g15
(dp155
S'diffuse_color'
p156
(dp157
g15
Nsg16
g45
sg18
I19
ssS'backface_culling'
p158
I0
sS'specular_power'
p159
F1
sS'edge_color'
p160
(dp161
g15
(F1
F1
F1
tp162
sg16
g17
sg18
I19
ssS'ambient'
p163
F0
sS'edge_visibility'
p164
I0
sS'interpolation'
p165
S'gouraud'
p166
sS'opacity'
p167
F1
sS'frontface_culling'
p168
I0
sS'point_size'
p169
F1
sS'edge_visibility_'
p170
I0
sS'ambient_color'
p171
(dp172
g15
Nsg16
g45
sg18
I19
ssg121
I0
sS'backface_culling_'
p173
I0
sS'specular_color'
p174
(dp175
g15
Nsg16
g45
sg18
I19
ssS'diffuse'
p176
F1
sS'line_width'
p177
F1
sg105
I0
sS'specular'
p178
F0
sS'frontface_culling_'
p179
I0
sS'representation_'
p180
I2
sS'line_stipple_pattern'
p181
I65535
sg110
I0
sS'representation'
p182
S'surface'
p183
sS'line_stipple_repeat_factor'
p184
I1
ssg16
g137
sg18
I18
sssg48
S''
sg50
(dp185
g2
(lp186
((g4
g5
tI-1
tp187
a((g7
g5
tI-1
tp188
a((g72
g73
tI-1
tp189
a((g75
g76
tI-1
tp190
a((g78
g79
tI-1
tp191
a((S'Prop'
p192
S'tvtk_classes.prop'
p193
tI-1
tp194
a((S'Prop3D'
p195
S'tvtk_classes.prop3d'
p196
tI-1
tp197
a((g61
S'tvtk_classes.actor'
p198
tI-1
tp199
asg12
g61
sg13
(dp200
g15
Nsg16
g45
sg18
I8
ssg16
g19
sg18
I11
sg20
g198
sg15
(dp201
g15
(dp202
S'origin'
p203
(dp204
g15
S'H4sIAI7mm0YC/7XOMQoCMRAF0P5fJGkMWVfBwguk2cK0gmyyEQQ3O8QJmNs7RK9g8YvhPz4Tc12p\nmbiVZNb65MdcytxwKylu+cWlRgYN0LE75OXb0x7aWbBXQYEvNMopyo3gn1y4UQIdoL26nxREixB6\n7Myrs8I0TW43oEfGgrNWiuvb2n9GHg7mAy0aBDD4AAAA\n'
p205
sg16
g119
sg18
I13
ssS'scale'
p206
(dp207
g15
S'H4sIAI7mm0YC/53OMQvCMBAF4P39kWQxpFbBQXDOksGsgjRpCoJtQ3oB8+89oqOTwxuO9/G4sJQ5\nVRXWHNVcnvQYch4q7jmGddkol0BIHWRoDsv46dMe0miQE16Arqnnk5XpQV85Uk0R6QDpxHQSYM2C\n6bExJ84C1lqz69DCY95ozcXtpfXvTPryf8l/evUGx/o6Le8AAAA=\n'
p208
sg16
g119
sg18
I15
ssS'orientation'
p209
(dp210
g15
S'H4sIAI7mm0YC/53OsQoCMRAE0H5+JGkMOU/hCn8gTQrTCnLJRRC8XIgbMH/vEu0FiymWeQwbUl1z\nU2ErUa31Qfe5lLnhWmLY0pNKDYQ8QIbukJZPn/eQRoOc8AJ0ziOfrMwI+sqFWo7IB0gnbpMAaxZM\nj505cRKw1prdgB4e80ZrLi4vrf/P9NPww169AaZN3yn4AAAA\n'
p211
sg16
g119
sg18
I14
ssg110
I0
sS'dragable'
p212
I1
sS'visibility'
p213
I1
sS'pickable_'
p214
I1
sS'dragable_'
p215
I1
sg121
I0
sg105
I0
sS'visibility_'
p216
I1
sS'position'
p217
(dp218
g15
S'H4sIAI7mm0YC/7XOMQoCMRAF0P5fJGkMWVfBwguk2cK0gmyyEQQ3O8QJmNs7RK9g8YvhPz4Tc12p\nmbiVZNb65MdcytxwKylu+cWlRgYN0LE75OXb0x7aWbBXQYEvNMopyo3gn1y4UQIdoL26nxREixB6\n7Myrs8I0TW43oEfGgrNWiuvb2n9GHg7mAy0aBDD4AAAA\n'
p219
sg16
g119
sg18
I16
ssS'pickable'
p220
I1
ssg16
g137
sg18
I12
ssssg16
g137
sg18
I6
sssg138
S''
sS'normals'
p221
(dp222
g2
(lp223
((g4
g5
tI-1
tp224
a((g27
g5
tI-1
tp225
a((g29
g30
tI-1
tp226
a((g32
g33
tI0
tp227
a((g35
g36
tI0
tp228
a((g58
g59
tI0
tp229
a((S'PolyDataNormals'
p230
S'enthought.mayavi.components.poly_data_normals'
p231
tI0
tp232
asg12
g230
sg13
(dp233
g15
Nsg16
g45
sg18
I1
ssg16
g19
sg18
I20
sg20
g231
sg15
(dp234
g15
(dp235
S'filter'
p236
(dp237
g2
(lp238
((g4
g5
tI-1
tp239
a((g7
g5
tI-1
tp240
a((g72
g73
tI-1
tp241
a((g75
g76
tI-1
tp242
a((g78
g79
tI-1
tp243
a((g81
g82
tI-1
tp244
a((S'PolyDataAlgorithm'
p245
S'tvtk_classes.poly_data_algorithm'
p246
tI-1
tp247
a((g230
S'tvtk_classes.poly_data_normals'
p248
tI-1
tp249
asg12
g230
sg13
(dp250
g15
Nsg16
g45
sg18
I8
ssg16
g19
sg18
I22
sg20
g248
sg15
(dp251
g15
(dp252
S'flip_normals_'
p253
I0
sS'compute_cell_normals'
p254
I0
sS'splitting'
p255
I1
sS'flip_normals'
p256
I0
sS'compute_point_normals'
p257
I1
sS'compute_cell_normals_'
p258
I0
sS'consistency_'
p259
I1
sS'auto_orient_normals_'
p260
I0
sS'compute_point_normals_'
p261
I1
sS'auto_orient_normals'
p262
I0
sg113
I0
sg114
I0
sg115
F1
sg131
I0
sS'splitting_'
p263
I1
sg121
I0
sg124
I0
sS'non_manifold_traversal'
p264
I1
sg105
I0
sS'consistency'
p265
I1
sg110
I0
sS'non_manifold_traversal_'
p266
I1
sS'feature_angle'
p267
F95
ssg16
g137
sg18
I23
sssg138
S''
sg48
S''
ssg16
g137
sg18
I21
sssS'contour'
p268
(dp269
g2
(lp270
((g4
g5
tI-1
tp271
a((g27
g5
tI-1
tp272
a((g29
g30
tI-1
tp273
a((g32
g33
tI0
tp274
a((g35
g36
tI0
tp275
a((g58
g59
tI0
tp276
a((S'Contour'
p277
S'enthought.mayavi.components.contour'
p278
tI0
tp279
asg12
g277
sg13
(dp280
g15
Nsg16
g45
sg18
I1
ssg16
g19
sg18
I24
sg20
g278
sg15
(dp281
g15
(dp282
g48
S''
sS'auto_contours'
p283
I01
sS'_current_range'
p284
(dp285
g15
(F1.2639899977379132e-14
F0.0079077137634158134
tp286
sg16
g17
sg18
I26
ssS'filled_contours'
p287
I00
sS'minimum_contour'
p288
F1.2639899977379132e-14
sg138
S''
sS'_cont_filt'
p289
(dp290
g2
(lp291
((g4
g5
tI-1
tp292
a((g7
g5
tI-1
tp293
a((g72
g73
tI-1
tp294
a((g75
g76
tI-1
tp295
a((g78
g79
tI-1
tp296
a((g81
g82
tI-1
tp297
a((g245
g246
tI-1
tp298
a((S'ContourFilter'
p299
S'tvtk_classes.contour_filter'
p300
tI-1
tp301
asg12
g299
sg13
(dp302
g15
Nsg16
g45
sg18
I8
ssg16
g19
sg18
I27
sg20
g300
sg15
(dp303
g15
(dp304
S'compute_gradients'
p305
I0
sg121
I0
sS'array_component'
p306
I0
sS'compute_normals_'
p307
I1
sS'use_scalar_tree_'
p308
I0
sg124
I0
sS'compute_scalars_'
p309
I1
sg49
I1
sS'compute_scalars'
p310
I1
sS'use_scalar_tree'
p311
I0
sS'compute_gradients_'
p312
I0
sg113
I0
sg105
I0
sg114
I0
sg131
I0
sg115
F1
sS'number_of_contours'
p313
I10
sg110
I0
ssg16
g137
sg18
I28
sssS'contours'
p314
(dp315
g15
(lp316
F1.2453270760123971e-05
asg16
S'list'
p317
sg18
I29
ssS'_fill_cont_filt'
p318
(dp319
g2
(lp320
((g4
g5
tI-1
tp321
a((g7
g5
tI-1
tp322
a((g72
g73
tI-1
tp323
a((g75
g76
tI-1
tp324
a((g78
g79
tI-1
tp325
a((g81
g82
tI-1
tp326
a((g245
g246
tI-1
tp327
a((S'BandedPolyDataContourFilter'
p328
S'tvtk_classes.banded_poly_data_contour_filter'
p329
tI-1
tp330
asg12
g328
sg13
(dp331
g15
Nsg16
g45
sg18
I8
ssg16
g19
sg18
I30
sg20
g329
sg15
(dp332
g15
(dp333
g105
I0
sS'clipping'
p334
I1
sg124
I0
sS'clipping_'
p335
I1
sg102
S'value'
p336
sS'generate_contour_edges'
p337
I0
sg110
I0
sg121
I0
sg113
I0
sS'scalar_mode_'
p338
I1
sg114
I0
sg131
I0
sg115
F0
sg313
I1
sS'generate_contour_edges_'
p339
I0
ssg16
g137
sg18
I31
sssS'show_filled_contours'
p340
I00
sg313
I10
sS'maximum_contour'
p341
F0.0079077137634158134
ssg16
g137
sg18
I25
ssssg16
g137
sg18
I4
sssg48
S'MayaVi Engine'
p342
sS'preference_manager'
p343
(dp344
g2
(lp345
((g4
g5
tI-1
tp346
a((S'PreferenceManager'
p347
S'enthought.mayavi.preference_manager'
p348
tI-1
tp349
asg12
g347
sg13
(dp350
g15
Nsg16
g45
sg18
I1
ssg16
g19
sg18
I533
sg20
g348
sg15
(dp351
g15
(dp352
S'engine'
p353
(dp354
g15
Nsg16
g45
sg18
I0
ssS'preferences'
p355
(dp356
g2
(lp357
((g4
g5
tI-1
tp358
a((S'Preferences'
p359
S'enthought.envisage.core.preferences'
p360
tI-1
tp361
asg12
g359
sg13
(dp362
g15
Nsg16
g45
sg18
I1
ssg16
g19
sg18
I535
sg20
g360
sg15
(dp363
g15
(dp364
S'user'
p365
(dp366
g15
(dp367
sg16
g137
sg18
I537
ssS'defaults'
p368
(dp369
g15
(dp370
S'confirm_delete'
p371
I01
ssg16
g137
sg18
I538
sssg16
g137
sg18
I536
ssssg16
g137
sg18
I534
sssS'scenes'
p372
(dp373
g15
(lp374
(dp375
g2
(lp376
((g4
g5
tI-1
tp377
a((g27
g5
tI-1
tp378
a((g29
g30
tI-1
tp379
a((g32
g33
tI0
tp380
a((S'Scene'
p381
S'enthought.mayavi.core.scene'
p382
tI0
tp383
asg12
g381
sg13
(dp384
g15
Nsg16
g45
sg18
I1
ssg16
g19
sg18
I33
sg20
g382
sg15
(dp385
g15
(dp386
g138
S''
sS'scene'
p387
(dp388
g2
(lp389
((g4
g5
tI-1
tp390
a((g27
g5
tI-1
tp391
a((S'Widget'
p392
S'enthought.pyface.widget'
p393
tI-1
tp394
a((g381
S'enthought.pyface.tvtk.scene'
p395
tI0
tp396
a((S'DecoratedScene'
p397
S'enthought.pyface.tvtk.decorated_scene'
p398
tI0
tp399
asg12
g397
sg13
(dp400
g15
Nsg16
g45
sg18
I1
ssg16
g19
sg18
I35
sg20
g398
sg15
(dp401
g15
(dp402
S'picker'
p403
(dp404
g2
(lp405
((g4
g5
tI-1
tp406
a((S'Picker'
p407
S'enthought.pyface.tvtk.picker'
p408
tI0
tp409
asg12
g407
sg13
(dp410
g15
Nsg16
g45
sg18
I1
ssg16
g19
sg18
I37
sg20
g408
sg15
(dp411
g15
(dp412
S'p_mapper'
p413
(dp414
g2
(lp415
((g4
g5
tI-1
tp416
a((g7
g5
tI-1
tp417
a((g72
g73
tI-1
tp418
a((g75
g76
tI-1
tp419
a((g78
g79
tI-1
tp420
a((g81
g82
tI-1
tp421
a((g84
g85
tI-1
tp422
a((g87
g88
tI-1
tp423
a((g90
g91
tI-1
tp424
a((g93
g94
tI-1
tp425
asg12
g93
sg13
(dp426
g15
Nsg16
g45
sg18
I8
ssg16
g19
sg18
I39
sg20
g94
sg15
(dp427
g15
(dp428
g100
I0
sg101
I0
sg102
g103
sg104
I0
sg105
I0
sg106
F0.01
sg107
I0
sg108
g103
sg109
I0
sg110
I0
sg111
I0
sg112
I0
sg113
I0
sg114
I0
sg115
F0
sg116
(dp429
g15
S'H4sIAI7mm0YC/53OsQrCMBQF0P3+SLIY0lbBQXDOksGsgjRpCoJNQ/oC5u99VL/A4Q6Pe7i8kOqS\nmwpriWqpL3qOpYwNjxLDmjYqNRByBxl2hzR9+9xDGg1ywgvQLQ98sjI96CcnajkiHyGdmM8CrFkw\nPTEb4MRFwFprDh328Jg3WnNxf2v9X2Z95W+8+gDYoI1C1QAAAA==\n'
p430
sg16
g119
sg18
I41
ssg120
I0
sg121
I0
sg122
I0
sg123
I1
sg124
I0
sg125
I1
sg126
I0
sg127
I0
sg128
I0
sg129
I1
sg130
g103
sg131
I0
sg132
I0
sg133
I1
sg134
g135
sg136
F0
ssg16
g137
sg18
I40
sssS'worldpicker'
p431
(dp432
g2
(lp433
((g4
g5
tI-1
tp434
a((g7
g5
tI-1
tp435
a((g72
g73
tI-1
tp436
a((g75
g76
tI-1
tp437
a((g78
g79
tI-1
tp438
a((S'AbstractPicker'
p439
S'tvtk_classes.abstract_picker'
p440
tI-1
tp441
a((S'WorldPointPicker'
p442
S'tvtk_classes.world_point_picker'
p443
tI-1
tp444
asg12
g442
sg13
(dp445
g15
Nsg16
g45
sg18
I8
ssg16
g19
sg18
I42
sg20
g443
sg15
(dp446
g15
(dp447
g110
I0
sg121
I0
sS'pick_from_list_'
p448
I0
sg105
I0
sS'pick_from_list'
p449
I0
ssg16
g137
sg18
I43
sssS'probe_data'
p450
(dp451
g2
(lp452
((g4
g5
tI-1
tp453
a((g7
g5
tI-1
tp454
a((g72
g73
tI-1
tp455
a((g75
g76
tI-1
tp456
a((g78
g79
tI-1
tp457
a((S'DataObject'
p458
S'tvtk_classes.data_object'
p459
tI-1
tp460
a((S'DataSet'
p461
S'tvtk_classes.data_set'
p462
tI-1
tp463
a((S'PointSet'
p464
S'tvtk_classes.point_set'
p465
tI-1
tp466
a((S'PolyData'
p467
S'tvtk_classes.poly_data'
p468
tI-1
tp469
asg12
g467
sg13
(dp470
g15
Nsg16
g45
sg18
I8
ssg16
g19
sg18
I44
sg20
g468
sg15
(dp471
g15
(dp472
S'update_piece'
p473
I0
sS'whole_extent'
p474
(dp475
g15
S'H4sIAI7mm0YC/6XOsQrCMBQF0P3+SLIYUlud/IEsGcwqSJOmULBpSF/B/L2P6tLZ4Q6Pe7i8kLY5\nVxWWEtW8vWjqS+krniWGJa1UtkDIDWTYHdLw7fMZ0miQE16A7rnlk5W5gn5yoJojcgfpxNQJsGbB\n9MKshRM3AWutOTXYw2PeaM3F4631MeN4zH89P+zVB24aZ/74AAAA\n'
p476
sg16
g119
sg18
I46
ssS'update_number_of_pieces'
p477
I1
sg110
I0
sS'update_ghost_level'
p478
I0
sS'global_release_data_flag_'
p479
I0
sg105
I0
sS'update_extent'
p480
(dp481
g15
S'H4sIAI7mm0YC/6XOsQrCMBQF0P3+SLIYUlud/IEsGcwqSJOmULBpSF/B/L2P6tLZ4Q6Pe7i8kLY5\nVxWWEtW8vWjqS+krniWGJa1UtkDIDWTYHdLw7fMZ0miQE16A7rnlk5W5gn5yoJojcgfpxNQJsGbB\n9MKshRM3AWutOTXYw2PeaM3F4631MeN4zH89P+zVB24aZ/74AAAA\n'
p482
sg16
g119
sg18
I47
ssS'request_exact_extent_'
p483
I0
sg121
I0
sg114
I0
sS'global_release_data_flag'
p484
I0
sg131
I0
sS'maximum_number_of_pieces'
p485
I-1
sS'request_exact_extent'
p486
I0
ssg16
g137
sg18
I45
sssS'cellpicker'
p487
(dp488
g2
(lp489
((g4
g5
tI-1
tp490
a((g7
g5
tI-1
tp491
a((g72
g73
tI-1
tp492
a((g75
g76
tI-1
tp493
a((g78
g79
tI-1
tp494
a((g439
g440
tI-1
tp495
a((S'AbstractPropPicker'
p496
S'tvtk_classes.abstract_prop_picker'
p497
tI-1
tp498
a((g407
S'tvtk_classes.picker'
p499
tI-1
tp500
a((S'CellPicker'
p501
S'tvtk_classes.cell_picker'
p502
tI-1
tp503
asg12
g501
sg13
(dp504
g15
Nsg16
g45
sg18
I8
ssg16
g19
sg18
I48
sg20
g502
sg15
(dp505
g15
(dp506
g105
I0
sg449
I0
sg121
I0
sg448
I0
sg110
I0
sS'tolerance'
p507
F0.025000000000000001
ssg16
g137
sg18
I49
sssS'p_actor'
p508
(dp509
g2
(lp510
((g4
g5
tI-1
tp511
a((g7
g5
tI-1
tp512
a((g72
g73
tI-1
tp513
a((g75
g76
tI-1
tp514
a((g78
g79
tI-1
tp515
a((g192
g193
tI-1
tp516
a((g195
g196
tI-1
tp517
a((g61
g198
tI-1
tp518
asg12
g61
sg13
(dp519
g15
Nsg16
g45
sg18
I8
ssg16
g19
sg18
I50
sg20
g198
sg15
(dp520
g15
(dp521
g203
(dp522
g15
S'H4sIAI7mm0YC/7XOMQoCMRAF0P5fJGkMWVfBwguk2cK0gmyyEQQ3O8QJmNs7RK9g8YvhPz4Tc12p\nmbiVZNb65MdcytxwKylu+cWlRgYN0LE75OXb0x7aWbBXQYEvNMopyo3gn1y4UQIdoL26nxREixB6\n7Myrs8I0TW43oEfGgrNWiuvb2n9GHg7mAy0aBDD4AAAA\n'
p523
sg16
g119
sg18
I52
ssg206
(dp524
g15
S'H4sIAI7mm0YC/53OMQvCMBAF4P39kWQxpFbBQXDOksGsgjRpCoJtQ3oB8+89oqOTwxuO9/G4sJQ5\nVRXWHNVcnvQYch4q7jmGddkol0BIHWRoDsv46dMe0miQE16Arqnnk5XpQV85Uk0R6QDpxHQSYM2C\n6bExJ84C1lqz69DCY95ozcXtpfXvTPryf8l/evUGx/o6Le8AAAA=\n'
p525
sg16
g119
sg18
I54
ssg209
(dp526
g15
S'H4sIAI7mm0YC/53OsQoCMRAE0H5+JGkMOU/hCn8gTQrTCnLJRRC8XIgbMH/vEu0FiymWeQwbUl1z\nU2ErUa31Qfe5lLnhWmLY0pNKDYQ8QIbukJZPn/eQRoOc8AJ0ziOfrMwI+sqFWo7IB0gnbpMAaxZM\nj505cRKw1prdgB4e80ZrLi4vrf/P9NPww169AaZN3yn4AAAA\n'
p527
sg16
g119
sg18
I53
ssg110
I0
sg212
I1
sg213
I0
sg214
I0
sg215
I1
sg121
I0
sg105
I0
sg216
I0
sg217
(dp528
g15
S'H4sIAI7mm0YC/7XOMQoCMRAF0P5fJGkMWVfBwguk2cK0gmyyEQQ3O8QJmNs7RK9g8YvhPz4Tc12p\nmbiVZNb65MdcytxwKylu+cWlRgYN0LE75OXb0x7aWbBXQYEvNMopyo3gn1y4UQIdoL26nxREixB6\n7Myrs8I0TW43oEfGgrNWiuvb2n9GHg7mAy0aBDD4AAAA\n'
p529
sg16
g119
sg18
I55
ssg220
I0
ssg16
g137
sg18
I51
sssS'p_source'
p530
(dp531
g2
(lp532
((g4
g5
tI-1
tp533
a((g7
g5
tI-1
tp534
a((g72
g73
tI-1
tp535
a((g75
g76
tI-1
tp536
a((g78
g79
tI-1
tp537
a((g81
g82
tI-1
tp538
a((g245
g246
tI-1
tp539
a((S'Axes'
p540
S'tvtk_classes.axes'
p541
tI-1
tp542
asg12
g540
sg13
(dp543
g15
Nsg16
g45
sg18
I8
ssg16
g19
sg18
I56
sg20
g541
sg15
(dp544
g15
(dp545
g203
(dp546
g15
S'H4sIAI7mm0YC/7XOMQoCMRAF0P5fJGkMWVfBwguk2cK0gmyyEQQ3O8QJmNs7RK9g8YvhPz4Tc12p\nmbiVZNb65MdcytxwKylu+cWlRgYN0LE75OXb0x7aWbBXQYEvNMopyo3gn1y4UQIdoL26nxREixB6\n7Myrs8I0TW43oEfGgrNWiuvb2n9GHg7mAy0aBDD4AAAA\n'
p547
sg16
g119
sg18
I58
ssS'scale_factor'
p548
F1
sg307
I1
sg124
I0
sg49
I1
sg110
I0
sS'symmetric'
p549
I1
sg121
I0
sg113
I0
sg105
I0
sg114
I0
sg131
I0
sg115
F0
sS'symmetric_'
p550
I1
ssg16
g137
sg18
I57
sssS'pick_type'
p551
S'point_picker'
p552
sg507
F0.025000000000000001
sS'pointpicker'
p553
(dp554
g2
(lp555
((g4
g5
tI-1
tp556
a((g7
g5
tI-1
tp557
a((g72
g73
tI-1
tp558
a((g75
g76
tI-1
tp559
a((g78
g79
tI-1
tp560
a((g439
g440
tI-1
tp561
a((g496
g497
tI-1
tp562
a((g407
g499
tI-1
tp563
a((S'PointPicker'
p564
S'tvtk_classes.point_picker'
p565
tI-1
tp566
asg12
g564
sg13
(dp567
g15
Nsg16
g45
sg18
I8
ssg16
g19
sg18
I59
sg20
g565
sg15
(dp568
g15
(dp569
g105
I0
sg449
I0
sg121
I0
sg448
I0
sg110
I0
sg507
F0.025000000000000001
ssg16
g137
sg18
I60
ssssg16
g137
sg18
I38
sssS'foreground'
p570
(dp571
g15
Nsg16
g45
sg18
I19
ssS'stereo'
p572
I00
sS'_renderer'
p573
(dp574
g2
(lp575
((g4
g5
tI-1
tp576
a((g7
g5
tI-1
tp577
a((g72
g73
tI-1
tp578
a((g75
g76
tI-1
tp579
a((g78
g79
tI-1
tp580
a((S'Viewport'
p581
S'tvtk_classes.viewport'
p582
tI-1
tp583
a((S'Renderer'
p584
S'tvtk_classes.renderer'
p585
tI-1
tp586
asg12
g584
sg13
(dp587
g15
Nsg16
g45
sg18
I8
ssg16
g19
sg18
I83
sg20
g585
sg15
(dp588
g15
(dp589
S'layer'
p590
I0
sS'pixel_aspect'
p591
(dp592
g15
S'H4sIAI7mm0YC/33OMQvCMBAF4P39kWQxpK2Cg+CcJYNZBWnSFASbhngB8+89qqM4vOF4H48LqS65\nqbCWqJb6oPtYythwKzGs6UmlBkLuIMPmkKZPn3tIo0FOeAG65IFPVqYHfeVELUfkPaQT81GANQum\nB2YDnDgJWGvNrsMWHvNGay6uL61/Z9bnvyW/4tUbw9sFJ9IAAAA=\n'
p593
sg16
g119
sg18
I85
ssS'two_sided_lighting_'
p594
I1
sS'view_point'
p595
(dp596
g15
S'H4sIAI7mm0YC/y3OTQuDMAwG4Ht+hbd6mbR+bMoGHkcvMua1Y9jagmPW0lWo/37B7ZBA8j6EKLvO\nbsvU4nU2r+8wDd4PGzy9Vov9BL+qAI5BqnYHdvzlLoeUUwg9kQTC3RU4ouIFhL8cw+Y0uBLSnpia\nAGoUSKud9eRCoOs6fmCwFx6TnFIMRGTmhq2yIo75qxRRmkREVYjYMBHNMamv7YRbiosK4XB+iKhP\nLX4isy+3g/c60QAAAA==\n'
p597
sg16
g119
sg18
I86
ssS'interactive_'
p598
I1
sS'erase'
p599
I1
sS'aspect'
p600
(dp601
g15
S'H4sIAI7mm0YC/23OPwuDMBCH4f33ReJSiX8KDgXnLBnqGih6GihUDekJybfvYTt2eIfjHo6j7VhD\nLmmPS7keL36OMY4Zj7jQvr05HsQIFQo6Hbb5uw81CqPBg5oU+B4aGUWZGvyTM+ewILQoBuU7BdEi\nhF6FNRjUTcFaay4VzuTYZLSWhUtV51I3St4l0tklT1Lbu6T1/7zu5Y+p/ACYST9lzwAAAA==\n'
p602
sg16
g119
sg18
I87
ssg163
(dp603
g15
S'H4sIAI7mm0YC/53OMQvCMBAF4P39kWQxpFbBQXDOksGsgjRpCoJtQ3oB8+89oqOTwxuO9/G4sJQ5\nVRXWHNVcnvQYch4q7jmGddkol0BIHWRoDsv46dMe0miQE16Arqnnk5XpQV85Uk0R6QDpxHQSYM2C\n6bExJ84C1lqz69DCY95ozcXtpfXvTPryf8l/evUGx/o6Le8AAAA=\n'
p604
sg16
g119
sg18
I88
ssS'erase_'
p605
I1
sg110
I0
sS'near_clipping_plane_tolerance'
p606
F0.001
sS'world_point'
p607
(dp608
g15
S'H4sIAI7mm0YC/22OPQvCMBCG9/sfki6GpGmxBUHXCHawuAWk+SgItg0xxfTfe1ZHh2e4e5/3ODPO\ng1+omYKjw/yI9y6EboFbcGYanzHMJoLnkJnVg9F+c59DJhnElmgC8eIFjmjJAuLPtHHxDnwBWUv6\nigDaaKBaoiagJXsCTdPILYcVPKYlYxiopJm9qlTXKvWlSkyoZI1KhqnEd4g4b04vlVz12eUUVxbV\nSiMcy+aIHfafnh3wX03fkr2ZhPcAAAA=\n'
p609
sg16
g119
sg18
I89
ssS'two_sided_lighting'
p610
I1
sS'allocated_render_time'
p611
F5000
sg121
I0
sS'background'
p612
(dp613
g15
Nsg16
g45
sg18
I61
ssS'viewport'
p614
(dp615
g15
S'H4sIAI7mm0YC/7XPMQvCMBAF4P39kWQxpLaCg+CcJYNZBWnSFASbhngB8+89qrObwxuO9/HgQqpL\nbiqsJaqlPug+ljI23EoMa3pSqYGQO8iwOaTp0+c9pNEgJ7wAXXLPJyszgL5yopYj8gDpxHwUYM2C\n6YFZDydOAtZas+uwhce80ZqL60vr/2TW558lv+LVG7bqK1ESAQAA\n'
p616
sg16
g119
sg18
I91
ssS'display_point'
p617
(dp618
g15
S'H4sIAI7mm0YC/y3OwQqDMAwG4HtepF4mrU5UNpjXXjzMa7dRYwVhaukqxLdfcDv8hyRfQnDZZr+n\nuAaXzts7TjYEu8MrOFyXTwwbRvAKEjwcLMNv7jNItITYiV5AvPucS1Y6h/iXQ9y9A3+GpBNjJYA1\nC6bFwTpxFdC2rT4pOMLHei0lD7AwhNaQ5fTqaaiSjSE5GlK1Iee4kXFKQyNSMzGShmpeUvbyYFDe\n+KU+/QKlZz1t2gAAAA==\n'
p619
sg16
g119
sg18
I90
ssS'automatic_light_creation_'
p620
I1
sS'backing_store_'
p621
I0
sg105
I0
sS'backing_store'
p622
I0
sS'light_follow_camera'
p623
I1
sS'automatic_light_creation'
p624
I1
sS'light_follow_camera_'
p625
I1
sS'interactive'
p626
I1
ssg16
g137
sg18
I84
sssS'anti_aliasing_frames'
p627
I8
sS'disable_render'
p628
I00
sS'parallel_projection'
p629
I00
sS'axes'
p630
(dp631
g2
(lp632
((g4
g5
tI-1
tp633
a((g7
g5
tI-1
tp634
a((g72
g73
tI-1
tp635
a((g75
g76
tI-1
tp636
a((g78
g79
tI-1
tp637
a((g192
g193
tI-1
tp638
a((g195
g196
tI-1
tp639
a((S'AxesActor'
p640
S'tvtk_classes.axes_actor'
p641
tI-1
tp642
asg12
g640
sg13
(dp643
g15
Nsg16
g45
sg18
I8
ssg16
g19
sg18
I64
sg20
g641
sg15
(dp644
g15
(dp645
g203
(dp646
g15
S'H4sIAI7mm0YC/7XOMQoCMRAF0P5fJGkMWVfBwguk2cK0gmyyEQQ3O8QJmNs7RK9g8YvhPz4Tc12p\nmbiVZNb65MdcytxwKylu+cWlRgYN0LE75OXb0x7aWbBXQYEvNMopyo3gn1y4UQIdoL26nxREixB6\n7Myrs8I0TW43oEfGgrNWiuvb2n9GHg7mAy0aBDD4AAAA\n'
p647
sg16
g119
sg18
I66
ssg209
(dp648
g15
S'H4sIAI7mm0YC/53OsQoCMRAE0H5+JGkMOU/hCn8gTQrTCnLJRRC8XIgbMH/vEu0FiymWeQwbUl1z\nU2ErUa31Qfe5lLnhWmLY0pNKDYQ8QIbukJZPn/eQRoOc8AJ0ziOfrMwI+sqFWo7IB0gnbpMAaxZM\nj505cRKw1prdgB4e80ZrLi4vrf/P9NPww169AaZN3yn4AAAA\n'
p649
sg16
g119
sg18
I67
ssS'normalized_tip_length'
p650
(dp651
g15
S'H4sIAI7mm0YC/53OMQvCMBAF4P39ketiaK2CBcE5SwazCpImFQTbHvEC9t97VDc3hzcc7+NxcSoj\nLybOeTBjecg95BwWXPMQ5+kpuUQBN6ji6jClT89bVLaGeOoJcuZWT1W2hXxlkoUH8A6Vp9uBoFqF\n0v3KPB0Jzjm7abBGx3pb11pcXl3QdL9J3en/Uv/szRs+d+FG7wAAAA==\n'
p652
sg16
g119
sg18
I68
ssg212
I1
sg214
I1
sS'sphere_resolution'
p653
I16
sg216
I1
sg105
I0
sg206
(dp654
g15
S'H4sIAI7mm0YC/53OMQvCMBAF4P39kWQxpFbBQXDOksGsgjRpCoJtQ3oB8+89oqOTwxuO9/G4sJQ5\nVRXWHNVcnvQYch4q7jmGddkol0BIHWRoDsv46dMe0miQE16Arqnnk5XpQV85Uk0R6QDpxHQSYM2C\n6bExJ84C1lqz69DCY95ozcXtpfXvTPryf8l/evUGx/o6Le8AAAA=\n'
p655
sg16
g119
sg18
I69
ssS'cylinder_radius'
p656
F0.050000000000000003
sS'cone_resolution'
p657
I16
sS'cylinder_resolution'
p658
I16
sS'axis_labels'
p659
I1
sS'total_length'
p660
(dp661
g15
S'H4sIAI7mm0YC/53OMQvCMBAF4P39kWQxpFbBQXDOksGsgjRpCoJtQ3oB8+89oqOTwxuO9/G4sJQ5\nVRXWHNVcnvQYch4q7jmGddkol0BIHWRoDsv46dMe0miQE16Arqnnk5XpQV85Uk0R6QDpxHQSYM2C\n6bExJ84C1lqz69DCY95ozcXtpfXvTPryf8l/evUGx/o6Le8AAAA=\n'
p662
sg16
g119
sg18
I70
ssg220
I1
sS'tip_type'
p663
S'cone'
p664
sS'x_axis_label_text'
p665
S'X'
sS'cone_radius'
p666
F0.40000000000000002
sS'z_axis_label_text'
p667
S'Z'
sg213
I1
sg215
I1
sg121
I0
sS'axis_labels_'
p668
I1
sS'y_axis_label_text'
p669
S'Y'
sS'shaft_type_'
p670
I0
sS'sphere_radius'
p671
F0.5
sS'normalized_shaft_length'
p672
(dp673
g15
S'H4sIAI7mm0YC/23NsQoCMQwG4P1/kXax9KyCg+DcpYNdBbn2KgjeXemlYN/eUB0NBBL+jyQudc5N\nxbUkNdcXPcdSxoZ7SXFdNio1EvIAGbvDMn3zvIe0GuRFEKBrNryysgb0kxO1nJAPkF48TgKsWTA9\ndubFWcA5Z3cDevOxYLXmwPS6vZO5/B/5Y1Afbh8AYbkAAAA=\n'
p674
sg16
g119
sg18
I71
ssS'shaft_type'
p675
S'cylinder'
p676
sS'normalized_label_position'
p677
(dp678
g15
S'H4sIAI7mm0YC/53OMQvCMBAF4P39kWQxpFbBQXDOksGsgjRpCoJtQ3oB8+89oqOTwxuO9/G4sJQ5\nVRXWHNVcnvQYch4q7jmGddkol0BIHWRoDsv46dMe0miQE16Arqnnk5XpQV85Uk0R6QDpxHQSYM2C\n6bExJ84C1lqz69DCY95ozcXtpfXvTPryf8l/evUGx/o6Le8AAAA=\n'
p679
sg16
g119
sg18
I72
ssg110
I0
sg217
(dp680
g15
S'H4sIAI7mm0YC/7XOMQoCMRAF0P5fJGkMWVfBwguk2cK0gmyyEQQ3O8QJmNs7RK9g8YvhPz4Tc12p\nmbiVZNb65MdcytxwKylu+cWlRgYN0LE75OXb0x7aWbBXQYEvNMopyo3gn1y4UQIdoL26nxREixB6\n7Myrs8I0TW43oEfGgrNWiuvb2n9GHg7mAy0aBDD4AAAA\n'
p681
sg16
g119
sg18
I73
sssg16
g137
sg18
I65
sssS'point_smoothing'
p682
I00
sS'line_smoothing'
p683
I00
sS'show_axes'
p684
I00
sS'magnification'
p685
I1
sS'camera'
p686
(dp687
g2
(lp688
((g4
g5
tI-1
tp689
a((g7
g5
tI-1
tp690
a((g72
g73
tI-1
tp691
a((g75
g76
tI-1
tp692
a((g78
g79
tI-1
tp693
a((S'Camera'
p694
S'tvtk_classes.camera'
p695
tI-1
tp696
a((S'OpenGLCamera'
p697
S'tvtk_classes.open_gl_camera'
p698
tI-1
tp699
asg12
g697
sg13
(dp700
g15
Nsg16
g45
sg18
I8
ssg16
g19
sg18
I74
sg20
g698
sg15
(dp701
g15
(dp702
S'distance'
p703
F77113.732120986329
sS'view_plane_normal'
p704
(dp705
g15
S'H4sIAI7mm0YC/y2OSwuDMBCE7/tHIoVKUu1DKHhtLh7qsYFiYoQ+1JBGiP++o+1h2ZnZb5c1w9S7\nOTWjt2k/vcOj8b6Z6e6tGYdP8JMJ5AQlZuVoaH9zt6NEcgo104zC1WWwoGRG4U+2YXaWXE5JzboT\nI9AggO5XrGZnRlVVya2gtXBMS84xUNFmKmqjYidU5OKmYssRwugOPYewh6eKhb5AFUtcqnhCXBw3\nENlr2SjxmE6/x7lVuOAAAAA=\n'
p706
sg16
g119
sg18
I76
ssS'window_center'
p707
(dp708
g15
S'H4sIAI7mm0YC/6XOQQrCMBAF0P2/yGRjSFsFF14gmy7MVpAmjSDYNKQTMLd3qN7AxV8M//GZkOqS\nmw5riXqpL35OpUwN9xLDmjYuNTByBxV2hzR/+9xDWQN25Al8zYOcomwP/smZW47IRyhHjzNBtAih\nJ2EDHF0I4zjaQ4c9MuatMVLc3sb8E3nI6w+QLErH2AAAAA==\n'
p709
sg16
g119
sg18
I77
ssS'parallel_projection_'
p710
I0
sg217
(dp711
g15
S'H4sIAI7mm0YC/y2OTQvCMAyG7/kj3cVR3aabeBAPQi87uGtA+jUQXFdqNzr888bpIZA875MQ7abB\nL7keg82H6RkfMgS5wD1YPbpXDJOO4LeQ6dUDZ36530EmOMSOKQbx5gsayRIFxL9p4uIt+BKyjvU1\nA7LJILVatY6dGLRtKzZbWIuOKcE5BZikxGT2mLjF1JgjNRUBjUlzAiU6TKohcrjOmGz95Rfaamb/\nxlT3lOozvaXyD0+v40jeAAAA\n'
p712
sg16
g119
sg18
I82
ssS'parallel_scale'
p713
F20784.609690826528
sS'thickness'
p714
F88402.004317544415
sS'view_up'
p715
(dp716
g15
S'H4sIAI7mm0YC/y3MPQvCMBAG4P1+hbikiyX90gpC5zh0MIvDgSRpCkI/YppC+u89qsPLcXcPr5nW\n0W2pmb1Nx3UIb+W92uDlrZmnJfjVBHAZJGZ3MHW/v8shERyCZJpBeLiCVlKigPCXXdicBVdCIllf\nMyBNgmi1M8luDNq2FacM9lCZFpyDPH4wXi8YTU7zjNGakhbeYFRquQ8Y6wqj7uhmmgPGTj0x9hUj\nqCm2OVJR+gW+P7Hc1wAAAA==\n'
p717
sg16
g119
sg18
I78
ssS'use_horizontal_view_angle'
p718
I0
sS'eye_angle'
p719
F2
sS'focal_disk'
p720
F1
sg121
I0
sS'clipping_range'
p721
(dp722
g15
S'H4sIAI7mm0YC/y3NTQuDMAwG4Hv+SIUx8RsHO3jtxcPcMWzYWEGY2nUR6r9fcDsEkrwPCS3b7PaY\nVm/jeXvx1Hvf7/D0ltblw34jBpdCRIeDZfjlLoNIJ8CdMgr45nIZRekM+C8H3p0FV0DUqbFWIFqE\n0FJYDp26KmjbVp9TOEqOGZ0kEmAwFYaUMNQFhv5yemCwWYN4f0tTlRhI9qNt5LOJv/isBLPBAAAA\n'
p723
sg16
g119
sg18
I81
ssg105
I0
sS'view_shear'
p724
(dp725
g15
S'H4sIAI7mm0YC/7XOsQoCMRAE0H5+JGkMOU/BQrBOk8K0glxyORC8XIgbMH/vEv0FiymWeQwbUl1z\nU2ErUa31SY+plKnhXmLY0otKDYQ8QIbukOZvn/eQRoOc8AJ0zSOfrMwI+smZWo7IB0gnlpMAaxZM\nj505cRaw1prdgB4e80ZrLm5vrf+TRV/4W68+7xE3gfUAAAA=\n'
p726
sg16
g119
sg18
I79
ssg110
I0
sS'view_angle'
p727
F30
sS'focal_point'
p728
(dp729
g15
S'H4sIAI7mm0YC/y3MMQvCMBAF4P1+RhGuiyFtrWZw6BqEDmYNSJJWEGwbYgoJ+OM9q8Mb3r2Pc/M6\n+czcEkY2rc/4MCGYDLcwumV+xbC6CL6C0m0O5uG3+xpKySEqtAjx6huqpGQD8S+HmP0I/gClwrtA\nIE2CaLsxhWeEvu/lvoIt9MxKzkEVOtlGJ1HrxCniRBE6uYFiux2t5igZUmu7L80XnUz71pouX8cL\n+sQ+ZshWDNgAAAA=\n'
p730
sg16
g119
sg18
I80
ssg629
I0
sS'use_horizontal_view_angle_'
p731
I0
ssg16
g137
sg18
I75
sssS'jpeg_quality'
p732
I95
sg612
(dp733
g15
(F0.10000000000000001
F0.20000000000000001
F0.40000000000000002
tp734
sg16
g17
sg18
I61
ssS'marker'
p735
(dp736
g2
(lp737
((g4
g5
tI-1
tp738
a((g7
g5
tI-1
tp739
a((g72
g73
tI-1
tp740
a((g75
g76
tI-1
tp741
a((g78
g79
tI-1
tp742
a((S'InteractorObserver'
p743
S'tvtk_classes.interactor_observer'
p744
tI-1
tp745
a((S'OrientationMarkerWidget'
p746
S'tvtk_classes.orientation_marker_widget'
p747
tI-1
tp748
asg12
g746
sg13
(dp749
g15
Nsg16
g45
sg18
I8
ssg16
g19
sg18
I62
sg20
g747
sg15
(dp750
g15
(dp751
S'key_press_activation_value'
p752
S'i'
sS'enabled'
p753
I0
sg105
I0
sg598
I1
sS'priority'
p754
F0.55000001192092896
sg121
I0
sS'key_press_activation_'
p755
I0
sS'enabled_'
p756
I0
sg110
I0
sS'key_press_activation'
p757
I0
sg626
I1
ssg16
g137
sg18
I63
sssS'off_screen_rendering'
p758
I00
sS'polygon_smoothing'
p759
I00
sS'light_manager'
p760
(dp761
g2
(lp762
((g4
g5
tI-1
tp763
a((S'LightManager'
p764
S'enthought.pyface.tvtk.light_manager'
p765
tI0
tp766
asg12
g764
sg13
(dp767
g15
Nsg16
g45
sg18
I1
ssg16
g19
sg18
I92
sg20
g765
sg15
(dp768
g15
(dp769
S'light_mode'
p770
S'raymond'
p771
sS'lights'
p772
(dp773
g15
(lp774
(dp775
g2
(lp776
((g4
g5
tI-1
tp777
a((S'CameraLight'
p778
g765
tI0
tp779
asg12
g778
sg13
(dp780
g15
Nsg16
g45
sg18
I1
ssg16
g19
sg18
I95
sg20
g765
sg15
(dp781
g15
(dp782
S'activate'
p783
I01
sS'elevation'
p784
F45
sS'color'
p785
(dp786
g15
Nsg16
g45
sg18
I19
ssS'source'
p787
(dp788
g2
(lp789
((g4
g5
tI-1
tp790
a((g7
g5
tI-1
tp791
a((g72
g73
tI-1
tp792
a((g75
g76
tI-1
tp793
a((g78
g79
tI-1
tp794
a((S'Light'
p795
S'tvtk_classes.light'
p796
tI-1
tp797
asg12
g795
sg13
(dp798
g15
Nsg16
g45
sg18
I8
ssg16
g19
sg18
I97
sg20
g796
sg15
(dp799
g15
(dp800
g174
(dp801
g15
Nsg16
g45
sg18
I19
ssS'attenuation_values'
p802
(dp803
g15
S'H4sIAI7mm0YC/43OMQvCMBAF4P39kWQxpFbBQXDOksGsgjRpCoJtQ7yA+fce0VHB4Q3H+3hcWMqc\nqgprjmoud7oNOQ8V1xzDujwol0BIHWRoDsv47tMW0miQE16Azqnnk5XpQR85Uk0RaQfpxHQQYM2C\n6b4xJ44C1lqz6dDCY95ozcXlqfX3TPr0u/wv/K1XLxMFpQX1AAAA\n'
p804
sg16
g119
sg18
I102
ssS'switch_'
p805
I1
sS'exponent'
p806
F1
sS'switch'
p807
I1
sg156
(dp808
g15
Nsg16
g45
sg18
I19
ssg171
(dp809
g15
(F0
F0
F0
tp810
sg16
g17
sg18
I99
ssg105
I0
sS'light_type_'
p811
I2
sS'positional'
p812
I0
sg121
I0
sS'intensity'
p813
F1
sS'light_type'
p814
S'camera_light'
p815
sg110
I0
sg217
(dp816
g15
S'H4sIAI7mm0YC/23OuwrDMAwF0F0/4iwNStMnLWT2kqFeDSXxAwp5GFcB+++rpt3a4Q7SPQiZaRlD\nLs0cXTkuAz26GLsM9+jMPD0pLoYgVFCY1cFkP33YQiERSIleAN1CzSMrWQN9paUcHIQdFEr4kwDW\nLJjuV6bEVUDbtnJTwRo+1ktELnTyjuN/Y32jk7EXnY7v8cysQ53cgdeI/+Ow4Q/78gVJEEmE6QAA\nAA==\n'
p817
sg16
g119
sg18
I100
ssS'positional_'
p818
I0
sS'cone_angle'
p819
F30
sg728
(dp820
g15
S'H4sIAI7mm0YC/7XOMQoCMRAF0P5fJGkMWVfBwguk2cK0gmyyEQQ3O8QJmNs7RK9g8YvhPz4Tc12p\nmbiVZNb65MdcytxwKylu+cWlRgYN0LE75OXb0x7aWbBXQYEvNMopyo3gn1y4UQIdoL26nxREixB6\n7Myrs8I0TW43oEfGgrNWiuvb2n9GHg7mAy0aBDD4AAAA\n'
p821
sg16
g119
sg18
I101
sssg16
g137
sg18
I98
sssg813
F1
sS'azimuth'
p822
F45
sS'glyph'
p823
(dp824
g2
(lp825
((g4
g5
tI-1
tp826
a((S'LightGlyph'
p827
g765
tI0
tp828
asg12
g827
sg13
(dp829
g15
Nsg16
g45
sg18
I1
ssg16
g19
sg18
I103
sg20
g765
sg15
(dp830
g15
(dp831
S'el'
p832
F45
sS'az'
p833
F45
sg50
(dp834
g2
(lp835
((g4
g5
tI-1
tp836
a((g7
g5
tI-1
tp837
a((g72
g73
tI-1
tp838
a((g75
g76
tI-1
tp839
a((g78
g79
tI-1
tp840
a((g192
g193
tI-1
tp841
a((g195
g196
tI-1
tp842
a((g61
g198
tI-1
tp843
a((S'Follower'
p844
S'tvtk_classes.follower'
p845
tI-1
tp846
asg12
g844
sg13
(dp847
g15
Nsg16
g45
sg18
I8
ssg16
g19
sg18
I105
sg20
g845
sg15
(dp848
g15
(dp849
g203
(dp850
g15
S'H4sIAI7mm0YC/7XOMQoCMRAF0P5fJGkMWVfBwguk2cK0gmyyEQQ3O8QJmNs7RK9g8YvhPz4Tc12p\nmbiVZNb65MdcytxwKylu+cWlRgYN0LE75OXb0x7aWbBXQYEvNMopyo3gn1y4UQIdoL26nxREixB6\n7Myrs8I0TW43oEfGgrNWiuvb2n9GHg7mAy0aBDD4AAAA\n'
p851
sg16
g119
sg18
I107
ssg206
(dp852
g15
S'H4sIAI7mm0YC/53OMQvCMBAF4P39kWQxpFbBQXDOksGsgjRpCoJtQ3oB8+89oqOTwxuO9/G4sJQ5\nVRXWHNVcnvQYch4q7jmGddkol0BIHWRoDsv46dMe0miQE16Arqnnk5XpQV85Uk0R6QDpxHQSYM2C\n6bExJ84C1lqz69DCY95ozcXtpfXvTPryf8l/evUGx/o6Le8AAAA=\n'
p853
sg16
g119
sg18
I109
ssg209
(dp854
g15
S'H4sIAI7mm0YC/12OwQqCQBRF9/dHZjbJmIkFEbYcAhe5HSodjYrUYXrC2Nf3sFYtDtzLPTye7cfO\nTZEdfBt145PulffVhLNv7dC/yI+W4GJIO3vom+/ulpBagUpRC9DRJVzZ0gnoZzY0uRZuBVmK61qA\nbTZYTWetFFuBoij0IsYMH6u1UjyYoBJG/bPLTag4bVIme8vTIb88biasuTcZb/HeBKv4nzr6AK9z\noUrXAAAA\n'
p855
sg16
g119
sg18
I108
ssg110
I0
sg212
I1
sg213
I1
sg214
I1
sg215
I1
sg121
I0
sg105
I0
sg216
I1
sg217
(dp856
g15
S'H4sIAI7mm0YC/7XOMQoCMRAF0P5fJGkMWVfBwguk2cK0gmyyEQQ3O8QJmNs7RK9g8YvhPz4Tc12p\nmbiVZNb65MdcytxwKylu+cWlRgYN0LE75OXb0x7aWbBXQYEvNMopyo3gn1y4UQIdoL26nxREixB6\n7Myrs8I0TW43oEfGgrNWiuvb2n9GHg7mAy0aBDD4AAAA\n'
p857
sg16
g119
sg18
I110
ssg220
I1
ssg16
g137
sg18
I106
ssssg16
g137
sg18
I104
ssssg16
g137
sg18
I96
ssa(dp858
g2
(lp859
((g4
g5
tI-1
tp860
a((g778
g765
tI0
tp861
asg12
g778
sg13
(dp862
g15
Nsg16
g45
sg18
I1
ssg16
g19
sg18
I111
sg20
g765
sg15
(dp863
g15
(dp864
g783
I01
sg784
F-30
sg785
(dp865
g15
Nsg16
g45
sg18
I19
ssg787
(dp866
g2
(lp867
((g4
g5
tI-1
tp868
a((g7
g5
tI-1
tp869
a((g72
g73
tI-1
tp870
a((g75
g76
tI-1
tp871
a((g78
g79
tI-1
tp872
a((g795
g796
tI-1
tp873
asg12
g795
sg13
(dp874
g15
Nsg16
g45
sg18
I8
ssg16
g19
sg18
I113
sg20
g796
sg15
(dp875
g15
(dp876
g174
(dp877
g15
Nsg16
g45
sg18
I19
ssg802
(dp878
g15
S'H4sIAI7mm0YC/43OMQvCMBAF4P39kWQxpFbBQXDOksGsgjRpCoJtQ7yA+fce0VHB4Q3H+3hcWMqc\nqgprjmoud7oNOQ8V1xzDujwol0BIHWRoDsv47tMW0miQE16Azqnnk5XpQR85Uk0RaQfpxHQQYM2C\n6b4xJ44C1lqz6dDCY95ozcXlqfX3TPr0u/wv/K1XLxMFpQX1AAAA\n'
p879
sg16
g119
sg18
I117
ssg805
I1
sg806
F1
sg807
I1
sg156
(dp880
g15
Nsg16
g45
sg18
I19
ssg171
(dp881
g15
Nsg16
g45
sg18
I99
ssg105
I0
sg811
I2
sg812
I0
sg121
I0
sg813
F0.59999999999999998
sg814
g815
sg110
I0
sg217
(dp882
g15
S'H4sIAI7mm0YC/23OvQrCQBAE4H5e5NIYLkYlhWB9IClMYxGQ3B8I5nKcG0h8etfETospdudjWRPG\nPs65GZLL+/FB9y6lbsYtOTOEJ6XREGKBzCwOwa593CJTEtQILUCXWPLISpWgr7Q0R4e4Q9YIXwmw\nZsF0v7BGHAXqulabAkv4mFZSctFOUv6Pq9pJ+3byhuN/Y/3ad/Z8/egXjwde6xM/qfM3a8mLhewA\nAAA=\n'
p883
sg16
g119
sg18
I115
ssg818
I0
sg819
F30
sg728
(dp884
g15
S'H4sIAI7mm0YC/7XOMQoCMRAF0P5fJGkMWVfBwguk2cK0gmyyEQQ3O8QJmNs7RK9g8YvhPz4Tc12p\nmbiVZNb65MdcytxwKylu+cWlRgYN0LE75OXb0x7aWbBXQYEvNMopyo3gn1y4UQIdoL26nxREixB6\n7Myrs8I0TW43oEfGgrNWiuvb2n9GHg7mAy0aBDD4AAAA\n'
p885
sg16
g119
sg18
I116
sssg16
g137
sg18
I114
sssg813
F0.59999999999999998
sg822
F-60
sg823
(dp886
g2
(lp887
((g4
g5
tI-1
tp888
a((g827
g765
tI0
tp889
asg12
g827
sg13
(dp890
g15
Nsg16
g45
sg18
I1
ssg16
g19
sg18
I118
sg20
g765
sg15
(dp891
g15
(dp892
g832
F-30
sg833
F-60
sg50
(dp893
g2
(lp894
((g4
g5
tI-1
tp895
a((g7
g5
tI-1
tp896
a((g72
g73
tI-1
tp897
a((g75
g76
tI-1
tp898
a((g78
g79
tI-1
tp899
a((g192
g193
tI-1
tp900
a((g195
g196
tI-1
tp901
a((g61
g198
tI-1
tp902
a((g844
g845
tI-1
tp903
asg12
g844
sg13
(dp904
g15
Nsg16
g45
sg18
I8
ssg16
g19
sg18
I120
sg20
g845
sg15
(dp905
g15
(dp906
g203
(dp907
g15
S'H4sIAI7mm0YC/7XOMQoCMRAF0P5fJGkMWVfBwguk2cK0gmyyEQQ3O8QJmNs7RK9g8YvhPz4Tc12p\nmbiVZNb65MdcytxwKylu+cWlRgYN0LE75OXb0x7aWbBXQYEvNMopyo3gn1y4UQIdoL26nxREixB6\n7Myrs8I0TW43oEfGgrNWiuvb2n9GHg7mAy0aBDD4AAAA\n'
p908
sg16
g119
sg18
I122
ssg206
(dp909
g15
S'H4sIAI7mm0YC/53OMQvCMBAF4P39kWQxpFbBQXDOksGsgjRpCoJtQ3oB8+89oqOTwxuO9/G4sJQ5\nVRXWHNVcnvQYch4q7jmGddkol0BIHWRoDsv46dMe0miQE16Arqnnk5XpQV85Uk0R6QDpxHQSYM2C\n6bExJ84C1lqz69DCY95ozcXtpfXvTPryf8l/evUGx/o6Le8AAAA=\n'
p910
sg16
g119
sg18
I124
ssg209
(dp911
g15
S'H4sIAI7mm0YC/y2OQQ6CMBBF93ORskDSCogaL9ANJrJtQtoBjIlAU0tSjId3LC5mkv/fy2RwWka7\nZji7PhuXp39o5/QKretxnl7eLejBCkgwejB1G7d7SCQH3zDDwN9sTpEsmYP/m51fbQ+2gKRhw5EB\n2WSQWkatYRcGdV3LnYA4dMxIzgm0KvAyfX9UGIpUBeQqiI6CSO8qaFTBVNetxnxD+iBoVSqc+PlH\n6CWTfQGCo1dj2gAAAA==\n'
p912
sg16
g119
sg18
I123
ssg110
I0
sg212
I1
sg213
I1
sg214
I1
sg215
I1
sg121
I0
sg105
I0
sg216
I1
sg217
(dp913
g15
S'H4sIAI7mm0YC/7XOMQoCMRAF0P5fJGkMWVfBwguk2cK0gmyyEQQ3O8QJmNs7RK9g8YvhPz4Tc12p\nmbiVZNb65MdcytxwKylu+cWlRgYN0LE75OXb0x7aWbBXQYEvNMopyo3gn1y4UQIdoL26nxREixB6\n7Myrs8I0TW43oEfGgrNWiuvb2n9GHg7mAy0aBDD4AAAA\n'
p914
sg16
g119
sg18
I125
ssg220
I1
ssg16
g137
sg18
I121
ssssg16
g137
sg18
I119
ssssg16
g137
sg18
I112
ssa(dp915
g2
(lp916
((g4
g5
tI-1
tp917
a((g778
g765
tI0
tp918
asg12
g778
sg13
(dp919
g15
Nsg16
g45
sg18
I1
ssg16
g19
sg18
I126
sg20
g765
sg15
(dp920
g15
(dp921
g783
I01
sg784
F-30
sg785
(dp922
g15
Nsg16
g45
sg18
I19
ssg787
(dp923
g2
(lp924
((g4
g5
tI-1
tp925
a((g7
g5
tI-1
tp926
a((g72
g73
tI-1
tp927
a((g75
g76
tI-1
tp928
a((g78
g79
tI-1
tp929
a((g795
g796
tI-1
tp930
asg12
g795
sg13
(dp931
g15
Nsg16
g45
sg18
I8
ssg16
g19
sg18
I128
sg20
g796
sg15
(dp932
g15
(dp933
g174
(dp934
g15
Nsg16
g45
sg18
I19
ssg802
(dp935
g15
S'H4sIAI7mm0YC/43OMQvCMBAF4P39kWQxpFbBQXDOksGsgjRpCoJtQ7yA+fce0VHB4Q3H+3hcWMqc\nqgprjmoud7oNOQ8V1xzDujwol0BIHWRoDsv47tMW0miQE16Azqnnk5XpQR85Uk0RaQfpxHQQYM2C\n6b4xJ44C1lqz6dDCY95ozcXlqfX3TPr0u/wv/K1XLxMFpQX1AAAA\n'
p936
sg16
g119
sg18
I132
ssg805
I1
sg806
F1
sg807
I1
sg156
(dp937
g15
Nsg16
g45
sg18
I19
ssg171
(dp938
g15
Nsg16
g45
sg18
I99
ssg105
I0
sg811
I2
sg812
I0
sg121
I0
sg813
F0.5
sg814
g815
sg110
I0
sg217
(dp939
g15
S'H4sIAI7mm0YC/23OPwvCMBCH4f33RdLFklqVDkLngHSwi0NBmj8FwbYhXqHx03tGNx3e4XIPR8y0\njD7mZg4uH5c73foQ+ohrcGaeHhQWQ/AFMpMcJvvZ+y0yJUGt0AJ09iWPrFQJ+kpL0Tv4HbJWDJUA\naxZM94m14ijQNI3aFEjxMa2k5EW3Svk/V9XdOhhu+M1ymuvt6fKmTx4P/Kxr/qHOX6ES/LrpAAAA\n'
p940
sg16
g119
sg18
I130
ssg818
I0
sg819
F30
sg728
(dp941
g15
S'H4sIAI7mm0YC/7XOMQoCMRAF0P5fJGkMWVfBwguk2cK0gmyyEQQ3O8QJmNs7RK9g8YvhPz4Tc12p\nmbiVZNb65MdcytxwKylu+cWlRgYN0LE75OXb0x7aWbBXQYEvNMopyo3gn1y4UQIdoL26nxREixB6\n7Myrs8I0TW43oEfGgrNWiuvb2n9GHg7mAy0aBDD4AAAA\n'
p942
sg16
g119
sg18
I131
sssg16
g137
sg18
I129
sssg813
F0.5
sg822
F60
sg823
(dp943
g2
(lp944
((g4
g5
tI-1
tp945
a((g827
g765
tI0
tp946
asg12
g827
sg13
(dp947
g15
Nsg16
g45
sg18
I1
ssg16
g19
sg18
I133
sg20
g765
sg15
(dp948
g15
(dp949
g832
F-30
sg833
F60
sg50
(dp950
g2
(lp951
((g4
g5
tI-1
tp952
a((g7
g5
tI-1
tp953
a((g72
g73
tI-1
tp954
a((g75
g76
tI-1
tp955
a((g78
g79
tI-1
tp956
a((g192
g193
tI-1
tp957
a((g195
g196
tI-1
tp958
a((g61
g198
tI-1
tp959
a((g844
g845
tI-1
tp960
asg12
g844
sg13
(dp961
g15
Nsg16
g45
sg18
I8
ssg16
g19
sg18
I135
sg20
g845
sg15
(dp962
g15
(dp963
g203
(dp964
g15
S'H4sIAI7mm0YC/7XOMQoCMRAF0P5fJGkMWVfBwguk2cK0gmyyEQQ3O8QJmNs7RK9g8YvhPz4Tc12p\nmbiVZNb65MdcytxwKylu+cWlRgYN0LE75OXb0x7aWbBXQYEvNMopyo3gn1y4UQIdoL26nxREixB6\n7Myrs8I0TW43oEfGgrNWiuvb2n9GHg7mAy0aBDD4AAAA\n'
p965
sg16
g119
sg18
I137
ssg206
(dp966
g15
S'H4sIAI7mm0YC/53OMQvCMBAF4P39kWQxpFbBQXDOksGsgjRpCoJtQ3oB8+89oqOTwxuO9/G4sJQ5\nVRXWHNVcnvQYch4q7jmGddkol0BIHWRoDsv46dMe0miQE16Arqnnk5XpQV85Uk0R6QDpxHQSYM2C\n6bExJ84C1lqz69DCY95ozcXtpfXvTPryf8l/evUGx/o6Le8AAAA=\n'
p967
sg16
g119
sg18
I139
ssg209
(dp968
g15
S'H4sIAI7mm0YC/y3OTQuDMAwG4Hv+SD04aafObezgtRcH81qQtn4wmFq6CnHsxy/oDgkk70OInZbR\nrYmdfZeMyys8tfd6hcZ3dp7ewS82gBMQ2c3B1O65O0IkOYSaGQbh4VIaSckUwl+2YXUduAyimvVn\nBqRJEM03VrMbg6qq5EHAVnTMSM4paBTyPP58FfZZrNByhaKlQcSDQm0VmuJe0j7d9/okqBUKL/xa\n0jMm+QGDRrI11AAAAA==\n'
p969
sg16
g119
sg18
I138
ssg110
I0
sg212
I1
sg213
I1
sg214
I1
sg215
I1
sg121
I0
sg105
I0
sg216
I1
sg217
(dp970
g15
S'H4sIAI7mm0YC/7XOMQoCMRAF0P5fJGkMWVfBwguk2cK0gmyyEQQ3O8QJmNs7RK9g8YvhPz4Tc12p\nmbiVZNb65MdcytxwKylu+cWlRgYN0LE75OXb0x7aWbBXQYEvNMopyo3gn1y4UQIdoL26nxREixB6\n7Myrs8I0TW43oEfGgrNWiuvb2n9GHg7mAy0aBDD4AAAA\n'
p971
sg16
g119
sg18
I140
ssg220
I1
ssg16
g137
sg18
I136
ssssg16
g137
sg18
I134
ssssg16
g137
sg18
I127
ssa(dp972
g2
(lp973
((g4
g5
tI-1
tp974
a((g778
g765
tI0
tp975
asg12
g778
sg13
(dp976
g15
Nsg16
g45
sg18
I1
ssg16
g19
sg18
I141
sg20
g765
sg15
(dp977
g15
(dp978
g783
I00
sg784
F0
sg785
(dp979
g15
Nsg16
g45
sg18
I19
ssg787
(dp980
g2
(lp981
((g4
g5
tI-1
tp982
a((g7
g5
tI-1
tp983
a((g72
g73
tI-1
tp984
a((g75
g76
tI-1
tp985
a((g78
g79
tI-1
tp986
a((g795
g796
tI-1
tp987
asg12
g795
sg13
(dp988
g15
Nsg16
g45
sg18
I8
ssg16
g19
sg18
I143
sg20
g796
sg15
(dp989
g15
(dp990
g174
(dp991
g15
Nsg16
g45
sg18
I19
ssg802
(dp992
g15
S'H4sIAI7mm0YC/43OMQvCMBAF4P39kWQxpFbBQXDOksGsgjRpCoJtQ7yA+fce0VHB4Q3H+3hcWMqc\nqgprjmoud7oNOQ8V1xzDujwol0BIHWRoDsv47tMW0miQE16Azqnnk5XpQR85Uk0RaQfpxHQQYM2C\n6b4xJ44C1lqz6dDCY95ozcXlqfX3TPr0u/wv/K1XLxMFpQX1AAAA\n'
p993
sg16
g119
sg18
I147
ssg805
I0
sg806
F1
sg807
I0
sg156
(dp994
g15
Nsg16
g45
sg18
I19
ssg171
(dp995
g15
Nsg16
g45
sg18
I99
ssg105
I0
sg811
I2
sg812
I0
sg121
I0
sg813
F1
sg814
g815
sg110
I0
sg217
(dp996
g15
S'H4sIAI7mm0YC/7XOsQoCMRAE0H5+JGkMOU/BQrBOk8K0glxyORC8XIgbMH/vEv0FiymWeQwbUl1z\nU2ErUa31SY+plKnhXmLY0otKDYQ8QIbukOZvn/eQRoOc8AJ0zSOfrMwI+smZWo7IB0gnlpMAaxZM\nj505cRaw1prdgB4e80ZrLm5vrf+TRV/4W68+7xE3gfUAAAA=\n'
p997
sg16
g119
sg18
I145
ssg818
I0
sg819
F30
sg728
(dp998
g15
S'H4sIAI7mm0YC/7XOMQoCMRAF0P5fJGkMWVfBwguk2cK0gmyyEQQ3O8QJmNs7RK9g8YvhPz4Tc12p\nmbiVZNb65MdcytxwKylu+cWlRgYN0LE75OXb0x7aWbBXQYEvNMopyo3gn1y4UQIdoL26nxREixB6\n7Myrs8I0TW43oEfGgrNWiuvb2n9GHg7mAy0aBDD4AAAA\n'
p999
sg16
g119
sg18
I146
sssg16
g137
sg18
I144
sssg813
F1
sg822
F0
sg823
(dp1000
g2
(lp1001
((g4
g5
tI-1
tp1002
a((g827
g765
tI0
tp1003
asg12
g827
sg13
(dp1004
g15
Nsg16
g45
sg18
I1
ssg16
g19
sg18
I148
sg20
g765
sg15
(dp1005
g15
(dp1006
g832
F0
sg833
F0
sg50
(dp1007
g2
(lp1008
((g4
g5
tI-1
tp1009
a((g7
g5
tI-1
tp1010
a((g72
g73
tI-1
tp1011
a((g75
g76
tI-1
tp1012
a((g78
g79
tI-1
tp1013
a((g192
g193
tI-1
tp1014
a((g195
g196
tI-1
tp1015
a((g61
g198
tI-1
tp1016
a((g844
g845
tI-1
tp1017
asg12
g844
sg13
(dp1018
g15
Nsg16
g45
sg18
I8
ssg16
g19
sg18
I150
sg20
g845
sg15
(dp1019
g15
(dp1020
g203
(dp1021
g15
S'H4sIAI7mm0YC/7XOMQoCMRAF0P5fJGkMWVfBwguk2cK0gmyyEQQ3O8QJmNs7RK9g8YvhPz4Tc12p\nmbiVZNb65MdcytxwKylu+cWlRgYN0LE75OXb0x7aWbBXQYEvNMopyo3gn1y4UQIdoL26nxREixB6\n7Myrs8I0TW43oEfGgrNWiuvb2n9GHg7mAy0aBDD4AAAA\n'
p1022
sg16
g119
sg18
I152
ssg206
(dp1023
g15
S'H4sIAI7mm0YC/53OMQvCMBAF4P39kWQxpFbBQXDOksGsgjRpCoJtQ3oB8+89oqOTwxuO9/G4sJQ5\nVRXWHNVcnvQYch4q7jmGddkol0BIHWRoDsv46dMe0miQE16Arqnnk5XpQV85Uk0R6QDpxHQSYM2C\n6bExJ84C1lqz69DCY95ozcXtpfXvTPryf8l/evUGx/o6Le8AAAA=\n'
p1024
sg16
g119
sg18
I154
ssg209
(dp1025
g15
S'H4sIAI7mm0YC/53OsQoCMRAE0H5+JGkMOU/hCn8gTQrTCnLJRRC8XIgbMH/vEu0FiymWeQwbUl1z\nU2ErUa31Qfe5lLnhWmLY0pNKDYQ8QIbukJZPn/eQRoOc8AJ0ziOfrMwI+sqFWo7IB0gnbpMAaxZM\nj505cRKw1prdgB4e80ZrLi4vrf/P9NPww169AaZN3yn4AAAA\n'
p1026
sg16
g119
sg18
I153
ssg110
I0
sg212
I1
sg213
I0
sg214
I1
sg215
I1
sg121
I0
sg105
I0
sg216
I0
sg217
(dp1027
g15
S'H4sIAI7mm0YC/7XOMQoCMRAF0P5fJGkMWVfBwguk2cK0gmyyEQQ3O8QJmNs7RK9g8YvhPz4Tc12p\nmbiVZNb65MdcytxwKylu+cWlRgYN0LE75OXb0x7aWbBXQYEvNMopyo3gn1y4UQIdoL26nxREixB6\n7Myrs8I0TW43oEfGgrNWiuvb2n9GHg7mAy0aBDD4AAAA\n'
p1028
sg16
g119
sg18
I155
ssg220
I1
ssg16
g137
sg18
I151
ssssg16
g137
sg18
I149
ssssg16
g137
sg18
I142
ssasg16
g317
sg18
I94
ssS'number_of_lights'
p1029
I4
ssg16
g137
sg18
I93
sssS'jpeg_progressive'
p1030
I01
sS'_def_pos'
p1031
I1
ssg16
g137
sg18
I36
sssS'children'
p1032
(dp1033
g15
(lp1034
(dp1035
g2
(lp1036
((g4
g5
tI-1
tp1037
a((g27
g5
tI-1
tp1038
a((g29
g30
tI-1
tp1039
a((g32
g33
tI0
tp1040
a((g35
g36
tI0
tp1041
a((S'Source'
p1042
S'enthought.mayavi.core.source'
p1043
tI0
tp1044
a((S'FileDataSource'
p1045
S'enthought.mayavi.core.file_data_source'
p1046
tI0
tp1047
a((S'VTKFileReader'
p1048
S'enthought.mayavi.sources.vtk_file_reader'
p1049
tI0
tp1050
asg12
g1048
sg13
(dp1051
g15
Nsg16
g45
sg18
I1
ssg16
g19
sg18
I157
sg20
g1049
sg15
(dp1052
g15
(dp1053
g48
S''
sS'file_path'
p1054
(dp1055
g2
(lp1056
((S'FilePath'
p1057
S'enthought.persistence.file_path'
p1058
tI-1
tp1059
asg12
g1057
sg13
(dp1060
g15
Nsg16
g45
sg18
I1
ssg16
g19
sg18
I375
sg20
g1058
sg15
(dp1061
g15
(dp1062
S'rel_pth'
p1063
S'ssng-p0500-g0500.disp-100.vtk'
p1064
sS'abs_pth'
p1065
S'/home/luis/benchmarks/ssng-p0500-g0500.disp-100.vtk'
p1066
ssg16
g137
sg18
I376
sssg138
S''
sS'_timestep'
p1067
I3
sS'reader'
p1068
(dp1069
g2
(lp1070
((g4
g5
tI-1
tp1071
a((g7
g5
tI-1
tp1072
a((g72
g73
tI-1
tp1073
a((g75
g76
tI-1
tp1074
a((g78
g79
tI-1
tp1075
a((g81
g82
tI-1
tp1076
a((S'DataReader'
p1077
S'tvtk_classes.data_reader'
p1078
tI-1
tp1079
a((S'DataSetReader'
p1080
S'tvtk_classes.data_set_reader'
p1081
tI-1
tp1082
asg12
g1080
sg13
(dp1083
g15
Nsg16
g45
sg18
I8
ssg16
g19
sg18
I373
sg20
g1081
sg15
(dp1084
g15
(dp1085
S'read_all_tensors_'
p1086
I0
sS'file_name'
p1087
S'/home/luis/benchmarks/ssng-p0500-g0500.disp-100.vtk'
p1088
sS'read_all_vectors_'
p1089
I0
sS'read_all_vectors'
p1090
I0
sg105
I0
sS'read_all_color_scalars_'
p1091
I0
sS'read_all_t_coords'
p1092
I0
sS'read_from_input_string'
p1093
I0
sS'read_all_normals'
p1094
I0
sg113
I0
sS'read_all_scalars_'
p1095
I0
sg114
I0
sg115
F1
sg121
I0
sS'read_all_fields_'
p1096
I0
sg110
I0
sS'read_all_color_scalars'
p1097
I0
sS'read_all_fields'
p1098
I0
sS'read_from_input_string_'
p1099
I0
sS'read_all_tensors'
p1100
I0
sg124
I0
sS'read_all_normals_'
p1101
I0
sS'read_all_scalars'
p1102
I0
sS'read_all_t_coords_'
p1103
I0
sg131
I0
ssg16
g137
sg18
I374
sssS'_min_timestep'
p1104
I0
sg1032
(dp1105
g15
(lp1106
(dp1107
g2
(lp1108
((g4
g5
tI-1
tp1109
a((g27
g5
tI-1
tp1110
a((g29
g30
tI-1
tp1111
a((g32
g33
tI0
tp1112
a((S'ModuleManager'
p1113
S'enthought.mayavi.core.module_manager'
p1114
tI0
tp1115
asg12
g1113
sg13
(dp1116
g15
Nsg16
g45
sg18
I1
ssg16
g19
sg18
I160
sg20
g1114
sg15
(dp1117
g15
(dp1118
g48
S''
sS'lut_data_mode'
p1119
S'auto'
p1120
sg1032
(dp1121
g15
(lp1122
(dp1123
g2
(lp1124
((g4
g5
tI-1
tp1125
a((g27
g5
tI-1
tp1126
a((g29
g30
tI-1
tp1127
a((g32
g33
tI0
tp1128
a((g35
g36
tI0
tp1129
a((g38
g39
tI0
tp1130
a((S'OrientationAxes'
p1131
S'enthought.mayavi.modules.orientation_axes'
p1132
tI0
tp1133
asg12
g1131
sg13
(dp1134
g15
Nsg16
g45
sg18
I1
ssg16
g19
sg18
I163
sg20
g1132
sg15
(dp1135
g15
(dp1136
S'_text_property'
p1137
(dp1138
g2
(lp1139
((g4
g5
tI-1
tp1140
a((g7
g5
tI-1
tp1141
a((g72
g73
tI-1
tp1142
a((g75
g76
tI-1
tp1143
a((g78
g79
tI-1
tp1144
a((S'TextProperty'
p1145
S'tvtk_classes.text_property'
p1146
tI-1
tp1147
asg12
g1145
sg13
(dp1148
g15
Nsg16
g45
sg18
I8
ssg16
g19
sg18
I165
sg20
g1146
sg15
(dp1149
g15
(dp1150
g167
F1
sS'justification'
p1151
S'left'
p1152
sS'font_size'
p1153
I12
sg209
F0
sS'line_offset'
p1154
F0
sS'italic_'
p1155
I0
sS'vertical_justification'
p1156
S'centered'
p1157
sS'shadow_'
p1158
I0
sg105
I0
sS'line_spacing'
p1159
F1.1000000000000001
sg785
(dp1160
g15
Nsg16
g45
sg18
I19
ssS'italic'
p1161
I0
sS'shadow_offset'
p1162
(dp1163
g15
S'H4sIAI7mm0YC/03NsQrDIBDG8f17EV0qmqRbX8DFoa6FEo2BQJOIPaG+fY+00A7/4bgfd3Gra24q\n7iWptT5oGUsZG+4lxX17UqmRkA1kPBy26bPPHaTVIC+CAF1zzyMr24G+cqKWE/IA6cUyCLBmwfTM\nrIcXFwHnnD0ZHPGxYLXmxe2lDad/zfN//DCoN80p7hW4AAAA\n'
p1164
sg16
g119
sg18
I167
ssg110
I0
sS'bold_'
p1165
I1
sS'shadow'
p1166
I0
sS'vertical_justification_'
p1167
I1
sS'font_family'
p1168
S'arial'
p1169
sg121
I0
sS'bold'
p1170
I1
ssg16
g137
sg18
I166
sssg735
(dp1171
g2
(lp1172
((g4
g5
tI-1
tp1173
a((g7
g5
tI-1
tp1174
a((g72
g73
tI-1
tp1175
a((g75
g76
tI-1
tp1176
a((g78
g79
tI-1
tp1177
a((g743
g744
tI-1
tp1178
a((g746
g747
tI-1
tp1179
asg12
g746
sg13
(dp1180
g15
Nsg16
g45
sg18
I8
ssg16
g19
sg18
I178
sg20
g747
sg15
(dp1181
g15
(dp1182
g752
S'i'
sg753
I1
sg105
I0
sg598
I1
sg754
F0.55000001192092896
sg121
I0
sg755
I0
sg756
I1
sg110
I0
sg757
I0
sg626
I1
ssg16
g137
sg18
I179
sssg138
S''
sg630
(dp1183
g2
(lp1184
((g4
g5
tI-1
tp1185
a((g7
g5
tI-1
tp1186
a((g72
g73
tI-1
tp1187
a((g75
g76
tI-1
tp1188
a((g78
g79
tI-1
tp1189
a((g192
g193
tI-1
tp1190
a((g195
g196
tI-1
tp1191
a((g640
g641
tI-1
tp1192
asg12
g640
sg13
(dp1193
g15
Nsg16
g45
sg18
I8
ssg16
g19
sg18
I168
sg20
g641
sg15
(dp1194
g15
(dp1195
g203
(dp1196
g15
S'H4sIAI7mm0YC/7XOMQoCMRAF0P5fJGkMWVfBwguk2cK0gmyyEQQ3O8QJmNs7RK9g8YvhPz4Tc12p\nmbiVZNb65MdcytxwKylu+cWlRgYN0LE75OXb0x7aWbBXQYEvNMopyo3gn1y4UQIdoL26nxREixB6\n7Myrs8I0TW43oEfGgrNWiuvb2n9GHg7mAy0aBDD4AAAA\n'
p1197
sg16
g119
sg18
I170
ssg209
(dp1198
g15
S'H4sIAI7mm0YC/53OsQoCMRAE0H5+JGkMOU/hCn8gTQrTCnLJRRC8XIgbMH/vEu0FiymWeQwbUl1z\nU2ErUa31Qfe5lLnhWmLY0pNKDYQ8QIbukJZPn/eQRoOc8AJ0ziOfrMwI+sqFWo7IB0gnbpMAaxZM\nj505cRKw1prdgB4e80ZrLi4vrf/P9NPww169AaZN3yn4AAAA\n'
p1199
sg16
g119
sg18
I171
ssg650
(dp1200
g15
S'H4sIAI7mm0YC/53OMQvCMBAF4P39ketiaK2CBcE5SwazCpImFQTbHvEC9t97VDc3hzcc7+NxcSoj\nLybOeTBjecg95BwWXPMQ5+kpuUQBN6ji6jClT89bVLaGeOoJcuZWT1W2hXxlkoUH8A6Vp9uBoFqF\n0v3KPB0Jzjm7abBGx3pb11pcXl3QdL9J3en/Uv/szRs+d+FG7wAAAA==\n'
p1201
sg16
g119
sg18
I172
ssg212
I1
sg214
I1
sg105
I0
sg216
I1
sg206
(dp1202
g15
S'H4sIAI7mm0YC/53OMQvCMBAF4P39kWQxpFbBQXDOksGsgjRpCoJtQ3oB8+89oqOTwxuO9/G4sJQ5\nVRXWHNVcnvQYch4q7jmGddkol0BIHWRoDsv46dMe0miQE16Arqnnk5XpQV85Uk0R6QDpxHQSYM2C\n6bExJ84C1lqz69DCY95ozcXtpfXvTPryf8l/evUGx/o6Le8AAAA=\n'
p1203
sg16
g119
sg18
I174
ssg656
F0.050000000000000003
sg657
I16
sg658
I16
sg659
I1
sg660
(dp1204
g15
S'H4sIAI7mm0YC/53OMQvCMBAF4P39kWQxpFbBQXDOksGsgjRpCoJtQ3oB8+89oqOTwxuO9/G4sJQ5\nVRXWHNVcnvQYch4q7jmGddkol0BIHWRoDsv46dMe0miQE16Arqnnk5XpQV85Uk0R6QDpxHQSYM2C\n6bExJ84C1lqz69DCY95ozcXtpfXvTPryf8l/evUGx/o6Le8AAAA=\n'
p1205
sg16
g119
sg18
I175
ssg220
I1
sg663
g664
sg665
S'X'
sg666
F0.40000000000000002
sg667
S'Z'
sg213
I1
sg215
I1
sg121
I0
sg668
I1
sg669
S'Y'
sg670
I0
sg671
F0.5
sg672
(dp1206
g15
S'H4sIAI7mm0YC/23NsQoCMQwG4P1/kXax9KyCg+DcpYNdBbn2KgjeXemlYN/eUB0NBBL+jyQudc5N\nxbUkNdcXPcdSxoZ7SXFdNio1EvIAGbvDMn3zvIe0GuRFEKBrNryysgb0kxO1nJAPkF48TgKsWTA9\ndubFWcA5Z3cDevOxYLXmwPS6vZO5/B/5Y1Afbh8AYbkAAAA=\n'
p1207
sg16
g119
sg18
I173
ssg675
g676
sg677
(dp1208
g15
S'H4sIAI7mm0YC/53OMQvCMBAF4P39kWQxpFbBQXDOksGsgjRpCoJtQ3oB8+89oqOTwxuO9/G4sJQ5\nVRXWHNVcnvQYch4q7jmGddkol0BIHWRoDsv46dMe0miQE16Arqnnk5XpQV85Uk0R6QDpxHQSYM2C\n6bExJ84C1lqz69DCY95ozcXtpfXvTPryf8l/evUGx/o6Le8AAAA=\n'
p1209
sg16
g119
sg18
I176
ssg110
I0
sg217
(dp1210
g15
S'H4sIAI7mm0YC/7XOMQoCMRAF0P5fJGkMWVfBwguk2cK0gmyyEQQ3O8QJmNs7RK9g8YvhPz4Tc12p\nmbiVZNb65MdcytxwKylu+cWlRgYN0LE75OXb0x7aWbBXQYEvNMopyo3gn1y4UQIdoL26nxREixB6\n7Myrs8I0TW43oEfGgrNWiuvb2n9GHg7mAy0aBDD4AAAA\n'
p1211
sg16
g119
sg18
I177
ssg653
I16
ssg16
g137
sg18
I169
sssg48
S''
ssg16
g137
sg18
I164
ssa(dp1212
g2
(lp1213
((g4
g5
tI-1
tp1214
a((g27
g5
tI-1
tp1215
a((g29
g30
tI-1
tp1216
a((g32
g33
tI0
tp1217
a((g35
g36
tI0
tp1218
a((g38
g39
tI0
tp1219
a((S'Outline'
p1220
S'enthought.mayavi.modules.outline'
p1221
tI0
tp1222
asg12
g1220
sg13
(dp1223
g15
Nsg16
g45
sg18
I1
ssg16
g19
sg18
I180
sg20
g1221
sg15
(dp1224
g15
(dp1225
S'outline_filter'
p1226
(dp1227
g2
(lp1228
((g4
g5
tI-1
tp1229
a((g7
g5
tI-1
tp1230
a((g72
g73
tI-1
tp1231
a((g75
g76
tI-1
tp1232
a((g78
g79
tI-1
tp1233
a((g81
g82
tI-1
tp1234
a((g245
g246
tI-1
tp1235
a((S'OutlineFilter'
p1236
S'tvtk_classes.outline_filter'
p1237
tI-1
tp1238
asg12
g1236
sg13
(dp1239
g15
Nsg16
g45
sg18
I8
ssg16
g19
sg18
I195
sg20
g1237
sg15
(dp1240
g15
(dp1241
g124
I0
sg131
I0
sg105
I0
sg121
I0
sg113
I0
sg114
I0
sg110
I0
sg115
F1
ssg16
g137
sg18
I196
sssg138
S''
sg48
S''
sg50
(dp1242
g2
(lp1243
((g4
g5
tI-1
tp1244
a((g27
g5
tI-1
tp1245
a((g29
g30
tI-1
tp1246
a((g32
g33
tI0
tp1247
a((g35
g36
tI0
tp1248
a((g58
g59
tI0
tp1249
a((g61
g62
tI0
tp1250
asg12
g61
sg13
(dp1251
g15
Nsg16
g45
sg18
I1
ssg16
g19
sg18
I182
sg20
g62
sg15
(dp1252
g15
(dp1253
g67
(dp1254
g2
(lp1255
((g4
g5
tI-1
tp1256
a((g7
g5
tI-1
tp1257
a((g72
g73
tI-1
tp1258
a((g75
g76
tI-1
tp1259
a((g78
g79
tI-1
tp1260
a((g81
g82
tI-1
tp1261
a((g84
g85
tI-1
tp1262
a((g87
g88
tI-1
tp1263
a((g90
g91
tI-1
tp1264
a((g93
g94
tI-1
tp1265
asg12
g93
sg13
(dp1266
g15
Nsg16
g45
sg18
I8
ssg16
g19
sg18
I184
sg20
g94
sg15
(dp1267
g15
(dp1268
g100
I0
sg101
I0
sg102
g103
sg104
I0
sg105
I0
sg106
F0.01
sg107
I0
sg108
g103
sg109
I0
sg110
I0
sg111
I0
sg112
I1
sg113
I0
sg114
I0
sg115
F1
sg116
(dp1269
g15
S'H4sIAI/mm0YC/53OsQrCMBQF0P3+SLIY0lbBQXDOksGsgjRpCoJNQ/oC5u99VL/A4Q6Pe7i8kOqS\nmwpriWqpL3qOpYwNjxLDmjYqNRByBxl2hzR9+9xDGg1ywgvQLQ98sjI96CcnajkiHyGdmM8CrFkw\nPTEb4MRFwFprDh328Jg3WnNxf2v9X2Z95W+8+gDYoI1C1QAAAA==\n'
p1270
sg16
g119
sg18
I186
ssg120
I1
sg121
I0
sg122
I0
sg123
I1
sg124
I0
sg125
I1
sg126
I0
sg127
I0
sg128
I0
sg129
I1
sg130
g103
sg131
I0
sg132
I0
sg133
I1
sg134
g135
sg136
F0
ssg16
g137
sg18
I185
sssg138
S''
sg139
(dp1271
g2
(lp1272
((g4
g5
tI-1
tp1273
a((g7
g5
tI-1
tp1274
a((g72
g73
tI-1
tp1275
a((g75
g76
tI-1
tp1276
a((g78
g79
tI-1
tp1277
a((g147
g148
tI-1
tp1278
a((g150
g151
tI-1
tp1279
asg12
g150
sg13
(dp1280
g15
Nsg16
g45
sg18
I8
ssg16
g19
sg18
I193
sg20
g151
sg15
(dp1281
g15
(dp1282
g156
(dp1283
g15
Nsg16
g45
sg18
I19
ssg158
I0
sg159
F1
sg160
(dp1284
g15
Nsg16
g45
sg18
I19
ssg163
F0
sg164
I0
sg165
g166
sg167
F1
sg168
I0
sg169
F1
sg174
(dp1285
g15
Nsg16
g45
sg18
I19
ssg171
(dp1286
g15
Nsg16
g45
sg18
I19
ssg121
I0
sg173
I0
sg176
F1
sg170
I0
sg105
I0
sg178
F0
sg179
I0
sg181
I65535
sg110
I0
sg182
g183
sg184
I1
sg177
F1
ssg16
g137
sg18
I194
sssg48
S''
sg50
(dp1287
g2
(lp1288
((g4
g5
tI-1
tp1289
a((g7
g5
tI-1
tp1290
a((g72
g73
tI-1
tp1291
a((g75
g76
tI-1
tp1292
a((g78
g79
tI-1
tp1293
a((g192
g193
tI-1
tp1294
a((g195
g196
tI-1
tp1295
a((g61
g198
tI-1
tp1296
asg12
g61
sg13
(dp1297
g15
Nsg16
g45
sg18
I8
ssg16
g19
sg18
I187
sg20
g198
sg15
(dp1298
g15
(dp1299
g203
(dp1300
g15
S'H4sIAI/mm0YC/7XOMQoCMRAF0P5fJGkMWVfBwguk2cK0gmyyEQQ3O8QJmNs7RK9g8YvhPz4Tc12p\nmbiVZNb65MdcytxwKylu+cWlRgYN0LE75OXb0x7aWbBXQYEvNMopyo3gn1y4UQIdoL26nxREixB6\n7Myrs8I0TW43oEfGgrNWiuvb2n9GHg7mAy0aBDD4AAAA\n'
p1301
sg16
g119
sg18
I189
ssg206
(dp1302
g15
S'H4sIAI/mm0YC/53OMQvCMBAF4P39kWQxpFbBQXDOksGsgjRpCoJtQ3oB8+89oqOTwxuO9/G4sJQ5\nVRXWHNVcnvQYch4q7jmGddkol0BIHWRoDsv46dMe0miQE16Arqnnk5XpQV85Uk0R6QDpxHQSYM2C\n6bExJ84C1lqz69DCY95ozcXtpfXvTPryf8l/evUGx/o6Le8AAAA=\n'
p1303
sg16
g119
sg18
I191
ssg209
(dp1304
g15
S'H4sIAI/mm0YC/53OsQoCMRAE0H5+JGkMOU/hCn8gTQrTCnLJRRC8XIgbMH/vEu0FiymWeQwbUl1z\nU2ErUa31Qfe5lLnhWmLY0pNKDYQ8QIbukJZPn/eQRoOc8AJ0ziOfrMwI+sqFWo7IB0gnbpMAaxZM\nj505cRKw1prdgB4e80ZrLi4vrf/P9NPww169AaZN3yn4AAAA\n'
p1305
sg16
g119
sg18
I190
ssg110
I0
sg212
I1
sg213
I1
sg214
I1
sg215
I1
sg121
I0
sg105
I0
sg216
I1
sg217
(dp1306
g15
S'H4sIAI/mm0YC/7XOMQoCMRAF0P5fJGkMWVfBwguk2cK0gmyyEQQ3O8QJmNs7RK9g8YvhPz4Tc12p\nmbiVZNb65MdcytxwKylu+cWlRgYN0LE75OXb0x7aWbBXQYEvNMopyo3gn1y4UQIdoL26nxREixB6\n7Myrs8I0TW43oEfGgrNWiuvb2n9GHg7mAy0aBDD4AAAA\n'
p1307
sg16
g119
sg18
I192
ssg220
I1
ssg16
g137
sg18
I188
ssssg16
g137
sg18
I183
ssssg16
g137
sg18
I181
ssasg16
g317
sg18
I162
ssg138
S''
sS'scalar_lut_manager'
p1308
(dp1309
g2
(lp1310
((g4
g5
tI-1
tp1311
a((g27
g5
tI-1
tp1312
a((g29
g30
tI-1
tp1313
a((g32
g33
tI0
tp1314
a((S'LUTManager'
p1315
S'enthought.mayavi.core.lut_manager'
p1316
tI0
tp1317
asg12
g1315
sg13
(dp1318
g15
Nsg16
g45
sg18
I1
ssg16
g19
sg18
I197
sg20
g1316
sg15
(dp1319
g15
(dp1320
S'default_data_range'
p1321
(dp1322
g15
S'H4sIAI/mm0YC/02OQQuCQBBG798fWS/JqkUGgl334iGvC+GuKwSpwzaC/vsGC+rwGIb3GMZPy0hb\n6ucY0nF58qOLsdtwj8HP04vj4hmUIfF7h6n/eMqRGA1ulVPgGxWySmVy8LfseaMAOiJp1VAqSC2F\npCfJCrSqUmiaxhwy7MgxZ7QWYVetf3hh6GWe7Rou1b+8kl3LQchrecKlb71uRTnMAAAA\n'
p1323
sg16
g119
sg18
I204
ssS'use_default_name'
p1324
I01
sS'lut'
p1325
(dp1326
g2
(lp1327
((g4
g5
tI-1
tp1328
a((g7
g5
tI-1
tp1329
a((g72
g73
tI-1
tp1330
a((g75
g76
tI-1
tp1331
a((g78
g79
tI-1
tp1332
a((S'ScalarsToColors'
p1333
S'tvtk_classes.scalars_to_colors'
p1334
tI-1
tp1335
a((S'LookupTable'
p1336
S'tvtk_classes.lookup_table'
p1337
tI-1
tp1338
asg12
g1336
sg13
(dp1339
g15
Nsg16
g45
sg18
I8
ssg16
g19
sg18
I205
sg20
g1337
sg15
(dp1340
g15
(dp1341
S'ramp_'
p1342
I2
sg206
S'linear'
p1343
sS'saturation_range'
p1344
(dp1345
g15
S'H4sIAI/mm0YC/33OMQvCMBAF4P39kWQxpK2Cg+CcJYNZBWnSFASbhngB8+89qqM4vOF4H48LqS65\nqbCWqJb6oPtYythwKzGs6UmlBkLuIMPmkKZPn3tIo0FOeAG65IFPVqYHfeVELUfkPaQT81GANQum\nB2YDnDgJWGvNrsMWHvNGay6uL61/Z9bnvyW/4tUbw9sFJ9IAAAA=\n'
p1346
sg16
g119
sg18
I207
ssS'table_range'
p1347
(dp1348
g15
S'H4sIAI/mm0YC/02OQQuCQBBG798fWS/JqkUGgl334iGvC+GuKwSpwzaC/vsGC+rwGIb3GMZPy0hb\n6ucY0nF58qOLsdtwj8HP04vj4hmUIfF7h6n/eMqRGA1ulVPgGxWySmVy8LfseaMAOiJp1VAqSC2F\npCfJCrSqUmiaxhwy7MgxZ7QWYVetf3hh6GWe7Rou1b+8kl3LQchrecKlb71uRTnMAAAA\n'
p1349
sg16
g119
sg18
I209
ssS'hue_range'
p1350
(dp1351
g15
S'H4sIAI/mm0YC/33OMQvCMBAF4P39kXSxpK3FCopzEDpY3ALSpBEKNg3xCum/96jODm94vI/jrF+m\nsOZ2ji6flheNfYz9ikd0dvZvioslhAKZ3Rz88N1DiUxJUCeMAN1CxZWVKkE/OdAaHMIeWSeejQBr\nFkxrZhU6cRJo21btCmzhY0ZJycNVJ9voJA9nnY7mrpOrL1zlv/ATJv8A/YiyW8wAAAA=\n'
p1352
sg16
g119
sg18
I208
ssS'number_of_table_values'
p1353
I256
sS'ramp'
p1354
S'sqrt'
p1355
sg105
I0
sS'number_of_colors'
p1356
I256
sS'alpha_range'
p1357
(dp1358
g15
S'H4sIAI/mm0YC/33OMQvCMBAF4P39kWQxpK2Cg+CcJYNZBWnSFASbhngB8+89qqM4vOF4H48LqS65\nqbCWqJb6oPtYythwKzGs6UmlBkLuIMPmkKZPn3tIo0FOeAG65IFPVqYHfeVELUfkPaQT81GANQum\nB2YDnDgJWGvNrsMWHvNGay6uL61/Z9bnvyW/4tUbw9sFJ9IAAAA=\n'
p1359
sg16
g119
sg18
I210
ssS'vector_component'
p1360
I0
sS'value_range'
p1361
(dp1362
g15
S'H4sIAI/mm0YC/33OMQvCMBAF4P39kWQxpK2Cg+CcJYNZBWnSFASbhngB8+89qqM4vOF4H48LqS65\nqbCWqJb6oPtYythwKzGs6UmlBkLuIMPmkKZPn3tIo0FOeAG65IFPVqYHfeVELUfkPaQT81GANQum\nB2YDnDgJWGvNrsMWHvNGay6uL61/Z9bnvyW/4tUbw9sFJ9IAAAA=\n'
p1363
sg16
g119
sg18
I211
ssg110
I0
sS'alpha'
p1364
F1
sS'vector_mode'
p1365
S'component'
p1366
sg121
I0
ssg16
g137
sg18
I206
sssS'_label_text_property'
p1367
(dp1368
g2
(lp1369
((g4
g5
tI-1
tp1370
a((g7
g5
tI-1
tp1371
a((g72
g73
tI-1
tp1372
a((g75
g76
tI-1
tp1373
a((g78
g79
tI-1
tp1374
a((g1145
g1146
tI-1
tp1375
asg12
g1145
sg13
(dp1376
g15
Nsg16
g45
sg18
I8
ssg16
g19
sg18
I199
sg20
g1146
sg15
(dp1377
g15
(dp1378
g167
F1
sg1151
g1152
sg1153
I12
sg209
F0
sg1154
F0
sg1155
I1
sg1156
S'bottom'
p1379
sg1158
I0
sg105
I0
sg1159
F1.1000000000000001
sg785
(dp1380
g15
Nsg16
g45
sg18
I19
ssg1161
I1
sg1162
(dp1381
g15
S'H4sIAI/mm0YC/03NsQrDIBDG8f17EV0qmqRbX8DFoa6FEo2BQJOIPaG+fY+00A7/4bgfd3Gra24q\n7iWptT5oGUsZG+4lxX17UqmRkA1kPBy26bPPHaTVIC+CAF1zzyMr24G+cqKWE/IA6cUyCLBmwfTM\nrIcXFwHnnD0ZHPGxYLXmxe2lDad/zfN//DCoN80p7hW4AAAA\n'
p1382
sg16
g119
sg18
I201
ssg110
I0
sg1165
I1
sg1166
I0
sg1168
g1169
sg121
I0
sg1170
I1
ssg16
g137
sg18
I200
sssS'_title_text_property'
p1383
(dp1384
g2
(lp1385
((g4
g5
tI-1
tp1386
a((g7
g5
tI-1
tp1387
a((g72
g73
tI-1
tp1388
a((g75
g76
tI-1
tp1389
a((g78
g79
tI-1
tp1390
a((g1145
g1146
tI-1
tp1391
asg12
g1145
sg13
(dp1392
g15
Nsg16
g45
sg18
I8
ssg16
g19
sg18
I212
sg20
g1146
sg15
(dp1393
g15
(dp1394
g167
F1
sg1151
g1152
sg1153
I12
sg209
F0
sg1154
F0
sg1155
I1
sg1156
g1379
sg1158
I0
sg105
I0
sg1159
F1.1000000000000001
sg785
(dp1395
g15
Nsg16
g45
sg18
I19
ssg1161
I1
sg1162
(dp1396
g15
S'H4sIAI/mm0YC/03NsQrDIBDG8f17EV0qmqRbX8DFoa6FEo2BQJOIPaG+fY+00A7/4bgfd3Gra24q\n7iWptT5oGUsZG+4lxX17UqmRkA1kPBy26bPPHaTVIC+CAF1zzyMr24G+cqKWE/IA6cUyCLBmwfTM\nrIcXFwHnnD0ZHPGxYLXmxe2lDad/zfN//DCoN80p7hW4AAAA\n'
p1397
sg16
g119
sg18
I214
ssg110
I0
sg1165
I1
sg1166
I0
sg1168
g1169
sg121
I0
sg1170
I1
ssg16
g137
sg18
I213
sssS'scalar_bar_widget'
p1398
(dp1399
g2
(lp1400
((g4
g5
tI-1
tp1401
a((g7
g5
tI-1
tp1402
a((g72
g73
tI-1
tp1403
a((g75
g76
tI-1
tp1404
a((g78
g79
tI-1
tp1405
a((g743
g744
tI-1
tp1406
a((S'ScalarBarWidget'
p1407
S'tvtk_classes.scalar_bar_widget'
p1408
tI-1
tp1409
asg12
g1407
sg13
(dp1410
g15
Nsg16
g45
sg18
I8
ssg16
g19
sg18
I202
sg20
g1408
sg15
(dp1411
g15
(dp1412
g752
S'i'
sg753
I0
sg105
I0
sg754
F0.55000001192092896
sg121
I0
sg755
I0
sg756
I0
sg110
I0
sg757
I0
ssg16
g137
sg18
I203
sssg1087
S''
sS'data_name'
p1413
S'LocalResiduals'
p1414
sS'data_range'
p1415
(dp1416
g15
Nsg16
g45
sg18
I204
ssg48
S''
sg1356
I256
sS'default_data_name'
p1417
S'LocalResiduals'
p1418
sg138
S''
sS'use_default_range'
p1419
I01
sS'number_of_labels'
p1420
I8
sS'show_scalar_bar'
p1421
I00
sS'scalar_bar'
p1422
(dp1423
g2
(lp1424
((g4
g5
tI-1
tp1425
a((g7
g5
tI-1
tp1426
a((g72
g73
tI-1
tp1427
a((g75
g76
tI-1
tp1428
a((g78
g79
tI-1
tp1429
a((g192
g193
tI-1
tp1430
a((S'Actor2D'
p1431
S'tvtk_classes.actor2d'
p1432
tI-1
tp1433
a((S'ScalarBarActor'
p1434
S'tvtk_classes.scalar_bar_actor'
p1435
tI-1
tp1436
asg12
g1434
sg13
(dp1437
g15
Nsg16
g45
sg18
I8
ssg16
g19
sg18
I215
sg20
g1435
sg15
(dp1438
g15
(dp1439
g105
I0
sg220
I1
sg209
S'horizontal'
p1440
sS'width'
p1441
F0.80000000000000004
sS'label_format'
p1442
S'%-#6.3g'
p1443
sg1420
I8
sg212
I1
sg213
I1
sg214
I1
sg215
I1
sg121
I0
sS'maximum_number_of_colors'
p1444
I256
sS'orientation_'
p1445
I0
sS'position2'
p1446
(dp1447
g15
S'H4sIAI/mm0YC/2XOMQuDMBAF4P39kWSpaGxAoeCcxaGugaIxQqFqSC8Q/30P263DGx7v4zi3pTUc\nhdujL9b0oucY43jgEb3btzfF5AihgnSnwzZ/96AgTQkaxCRA91BzZWUU6CdnOoJHuEIOYmkEWLNg\nqpnVGMRNoO97c6lwho9Npix5sLkdOe1/fNvZ7GqbFy2ttblZuCqO7viLqfgAbt3QTs0AAAA=\n'
p1448
sg16
g119
sg18
I218
ssg216
I1
sg217
(dp1449
g15
S'H4sIAI/mm0YC/2XOMQuDMBAF4P39kbhUjFpQKDiWLA51DZQkplCoGtITYvvne9huHd5wvI/HuXmd\nwpa7Jfp8Wh90NzGaDdfo3TI/Ka6OECQytzvM47cPJTJVgAZhBegSKj5ZqRL0kyNtwSPUyAZxawRY\ns2B6ZFZhECeBvu/VQWIPj1lVFFzo1BpO+x/bdm+dZK2T8WedvHzp1NQdf2DzD7ndMtDJAAAA\n'
p1450
sg16
g119
sg18
I217
ssS'height'
p1451
F0.17000000000000001
sg110
I0
sS'layer_number'
p1452
I0
ssg16
g137
sg18
I216
sssS'_orig_data_range'
p1453
(dp1454
g15
S'H4sIAI/mm0YC/53OsQrCMBQF0P3+SLIY0lbBQXDOksGsgjRpCoJNQ/oC5u99VL/A4Q6Pe7i8kOqS\nmwpriWqpL3qOpYwNjxLDmjYqNRByBxl2hzR9+9xDGg1ywgvQLQ98sjI96CcnajkiHyGdmM8CrFkw\nPTEb4MRFwFprDh328Jg3WnNxf2v9X2Z95W+8+gDYoI1C1QAAAA==\n'
p1455
sg16
g119
sg18
I219
ssg1166
I00
sS'lut_mode'
p1456
S'blue-red'
p1457
sS'reverse_lut'
p1458
I00
ssg16
g137
sg18
I198
sssS'vector_lut_manager'
p1459
(dp1460
g2
(lp1461
((g4
g5
tI-1
tp1462
a((g27
g5
tI-1
tp1463
a((g29
g30
tI-1
tp1464
a((g32
g33
tI0
tp1465
a((g1315
g1316
tI0
tp1466
asg12
g1315
sg13
(dp1467
g15
Nsg16
g45
sg18
I1
ssg16
g19
sg18
I220
sg20
g1316
sg15
(dp1468
g15
(dp1469
g1321
(dp1470
g15
S'H4sIAI/mm0YC/53OsQrCMBQF0P3+SLIY0lbBQXDOksGsgjRpCoJNQ/oC5u99VL/A4Q6Pe7i8kOqS\nmwpriWqpL3qOpYwNjxLDmjYqNRByBxl2hzR9+9xDGg1ywgvQLQ98sjI96CcnajkiHyGdmM8CrFkw\nPTEb4MRFwFprDh328Jg3WnNxf2v9X2Z95W+8+gDYoI1C1QAAAA==\n'
p1471
sg16
g119
sg18
I227
ssg1324
I01
sg1325
(dp1472
g2
(lp1473
((g4
g5
tI-1
tp1474
a((g7
g5
tI-1
tp1475
a((g72
g73
tI-1
tp1476
a((g75
g76
tI-1
tp1477
a((g78
g79
tI-1
tp1478
a((g1333
g1334
tI-1
tp1479
a((g1336
g1337
tI-1
tp1480
asg12
g1336
sg13
(dp1481
g15
Nsg16
g45
sg18
I8
ssg16
g19
sg18
I228
sg20
g1337
sg15
(dp1482
g15
(dp1483
g1342
I2
sg206
g1343
sg1344
(dp1484
g15
S'H4sIAI/mm0YC/33OMQvCMBAF4P39kWQxpK2Cg+CcJYNZBWnSFASbhngB8+89qqM4vOF4H48LqS65\nqbCWqJb6oPtYythwKzGs6UmlBkLuIMPmkKZPn3tIo0FOeAG65IFPVqYHfeVELUfkPaQT81GANQum\nB2YDnDgJWGvNrsMWHvNGay6uL61/Z9bnvyW/4tUbw9sFJ9IAAAA=\n'
p1485
sg16
g119
sg18
I230
ssg1347
(dp1486
g15
S'H4sIAI/mm0YC/53OsQrCMBQF0P3+SLIY0lbBQXDOksGsgjRpCoJNQ/oC5u99VL/A4Q6Pe7i8kOqS\nmwpriWqpL3qOpYwNjxLDmjYqNRByBxl2hzR9+9xDGg1ywgvQLQ98sjI96CcnajkiHyGdmM8CrFkw\nPTEb4MRFwFprDh328Jg3WnNxf2v9X2Z95W+8+gDYoI1C1QAAAA==\n'
p1487
sg16
g119
sg18
I232
ssg1350
(dp1488
g15
S'H4sIAI/mm0YC/33OMQvCMBAF4P39kXSxpK3FCopzEDpY3ALSpBEKNg3xCum/96jODm94vI/jrF+m\nsOZ2ji6flheNfYz9ikd0dvZvioslhAKZ3Rz88N1DiUxJUCeMAN1CxZWVKkE/OdAaHMIeWSeejQBr\nFkxrZhU6cRJo21btCmzhY0ZJycNVJ9voJA9nnY7mrpOrL1zlv/ATJv8A/YiyW8wAAAA=\n'
p1489
sg16
g119
sg18
I231
ssg1353
I256
sg1354
g1355
sg105
I0
sg1356
I256
sg1357
(dp1490
g15
S'H4sIAI/mm0YC/33OMQvCMBAF4P39kWQxpK2Cg+CcJYNZBWnSFASbhngB8+89qqM4vOF4H48LqS65\nqbCWqJb6oPtYythwKzGs6UmlBkLuIMPmkKZPn3tIo0FOeAG65IFPVqYHfeVELUfkPaQT81GANQum\nB2YDnDgJWGvNrsMWHvNGay6uL61/Z9bnvyW/4tUbw9sFJ9IAAAA=\n'
p1491
sg16
g119
sg18
I233
ssg1360
I0
sg1361
(dp1492
g15
S'H4sIAI/mm0YC/33OMQvCMBAF4P39kWQxpK2Cg+CcJYNZBWnSFASbhngB8+89qqM4vOF4H48LqS65\nqbCWqJb6oPtYythwKzGs6UmlBkLuIMPmkKZPn3tIo0FOeAG65IFPVqYHfeVELUfkPaQT81GANQum\nB2YDnDgJWGvNrsMWHvNGay6uL61/Z9bnvyW/4tUbw9sFJ9IAAAA=\n'
p1493
sg16
g119
sg18
I234
ssg110
I0
sg1364
F1
sg1365
g1366
sg121
I0
ssg16
g137
sg18
I229
sssg1367
(dp1494
g2
(lp1495
((g4
g5
tI-1
tp1496
a((g7
g5
tI-1
tp1497
a((g72
g73
tI-1
tp1498
a((g75
g76
tI-1
tp1499
a((g78
g79
tI-1
tp1500
a((g1145
g1146
tI-1
tp1501
asg12
g1145
sg13
(dp1502
g15
Nsg16
g45
sg18
I8
ssg16
g19
sg18
I222
sg20
g1146
sg15
(dp1503
g15
(dp1504
g167
F1
sg1151
g1152
sg1153
I12
sg209
F0
sg1154
F0
sg1155
I1
sg1156
g1379
sg1158
I0
sg105
I0
sg1159
F1.1000000000000001
sg785
(dp1505
g15
Nsg16
g45
sg18
I19
ssg1161
I1
sg1162
(dp1506
g15
S'H4sIAI/mm0YC/03NsQrDIBDG8f17EV0qmqRbX8DFoa6FEo2BQJOIPaG+fY+00A7/4bgfd3Gra24q\n7iWptT5oGUsZG+4lxX17UqmRkA1kPBy26bPPHaTVIC+CAF1zzyMr24G+cqKWE/IA6cUyCLBmwfTM\nrIcXFwHnnD0ZHPGxYLXmxe2lDad/zfN//DCoN80p7hW4AAAA\n'
p1507
sg16
g119
sg18
I224
ssg110
I0
sg1165
I1
sg1166
I0
sg1168
g1169
sg121
I0
sg1170
I1
ssg16
g137
sg18
I223
sssg1383
(dp1508
g2
(lp1509
((g4
g5
tI-1
tp1510
a((g7
g5
tI-1
tp1511
a((g72
g73
tI-1
tp1512
a((g75
g76
tI-1
tp1513
a((g78
g79
tI-1
tp1514
a((g1145
g1146
tI-1
tp1515
asg12
g1145
sg13
(dp1516
g15
Nsg16
g45
sg18
I8
ssg16
g19
sg18
I235
sg20
g1146
sg15
(dp1517
g15
(dp1518
g167
F1
sg1151
g1152
sg1153
I12
sg209
F0
sg1154
F0
sg1155
I1
sg1156
g1379
sg1158
I0
sg105
I0
sg1159
F1.1000000000000001
sg785
(dp1519
g15
Nsg16
g45
sg18
I19
ssg1161
I1
sg1162
(dp1520
g15
S'H4sIAI/mm0YC/03NsQrDIBDG8f17EV0qmqRbX8DFoa6FEo2BQJOIPaG+fY+00A7/4bgfd3Gra24q\n7iWptT5oGUsZG+4lxX17UqmRkA1kPBy26bPPHaTVIC+CAF1zzyMr24G+cqKWE/IA6cUyCLBmwfTM\nrIcXFwHnnD0ZHPGxYLXmxe2lDad/zfN//DCoN80p7hW4AAAA\n'
p1521
sg16
g119
sg18
I237
ssg110
I0
sg1165
I1
sg1166
I0
sg1168
g1169
sg121
I0
sg1170
I1
ssg16
g137
sg18
I236
sssg1398
(dp1522
g2
(lp1523
((g4
g5
tI-1
tp1524
a((g7
g5
tI-1
tp1525
a((g72
g73
tI-1
tp1526
a((g75
g76
tI-1
tp1527
a((g78
g79
tI-1
tp1528
a((g743
g744
tI-1
tp1529
a((g1407
g1408
tI-1
tp1530
asg12
g1407
sg13
(dp1531
g15
Nsg16
g45
sg18
I8
ssg16
g19
sg18
I225
sg20
g1408
sg15
(dp1532
g15
(dp1533
g752
S'i'
sg753
I0
sg105
I0
sg754
F0.55000001192092896
sg121
I0
sg755
I0
sg756
I0
sg110
I0
sg757
I0
ssg16
g137
sg18
I226
sssg1087
S''
sg1413
S'No vectors'
p1534
sg1415
(dp1535
g15
Nsg16
g45
sg18
I227
ssg48
S''
sg1356
I256
sg1417
g1534
sg138
S''
sg1419
I01
sg1420
I8
sg1421
I00
sg1422
(dp1536
g2
(lp1537
((g4
g5
tI-1
tp1538
a((g7
g5
tI-1
tp1539
a((g72
g73
tI-1
tp1540
a((g75
g76
tI-1
tp1541
a((g78
g79
tI-1
tp1542
a((g192
g193
tI-1
tp1543
a((g1431
g1432
tI-1
tp1544
a((g1434
g1435
tI-1
tp1545
asg12
g1434
sg13
(dp1546
g15
Nsg16
g45
sg18
I8
ssg16
g19
sg18
I238
sg20
g1435
sg15
(dp1547
g15
(dp1548
g105
I0
sg220
I1
sg209
g1440
sg1441
F0.80000000000000004
sg1442
S'%-#6.3g'
p1549
sg1420
I8
sg212
I1
sg213
I1
sg214
I1
sg215
I1
sg121
I0
sg1444
I256
sg1445
I0
sg1446
(dp1550
g15
S'H4sIAI/mm0YC/2XOMQuDMBAF4P39kWSpaGxAoeCcxaGugaIxQqFqSC8Q/30P263DGx7v4zi3pTUc\nhdujL9b0oucY43jgEb3btzfF5AihgnSnwzZ/96AgTQkaxCRA91BzZWUU6CdnOoJHuEIOYmkEWLNg\nqpnVGMRNoO97c6lwho9Npix5sLkdOe1/fNvZ7GqbFy2ttblZuCqO7viLqfgAbt3QTs0AAAA=\n'
p1551
sg16
g119
sg18
I241
ssg216
I1
sg217
(dp1552
g15
S'H4sIAI/mm0YC/2XOMQuDMBAF4P39kbhUjFpQKDiWLA51DZQkplCoGtITYvvne9huHd5wvI/HuXmd\nwpa7Jfp8Wh90NzGaDdfo3TI/Ka6OECQytzvM47cPJTJVgAZhBegSKj5ZqRL0kyNtwSPUyAZxawRY\ns2B6ZFZhECeBvu/VQWIPj1lVFFzo1BpO+x/bdm+dZK2T8WedvHzp1NQdf2DzD7ndMtDJAAAA\n'
p1553
sg16
g119
sg18
I240
ssg1451
F0.17000000000000001
sg110
I0
sg1452
I0
ssg16
g137
sg18
I239
sssg1453
(dp1554
g15
S'H4sIAI/mm0YC/53OsQrCMBQF0P3+SLIY0lbBQXDOksGsgjRpCoJNQ/oC5u99VL/A4Q6Pe7i8kOqS\nmwpriWqpL3qOpYwNjxLDmjYqNRByBxl2hzR9+9xDGg1ywgvQLQ98sjI96CcnajkiHyGdmM8CrFkw\nPTEb4MRFwFprDh328Jg3WnNxf2v9X2Z95W+8+gDYoI1C1QAAAA==\n'
p1555
sg16
g119
sg18
I242
ssg1166
I00
sg1456
g1457
sg1458
I00
ssg16
g137
sg18
I221
ssssg16
g137
sg18
I161
ssa(dp1556
g2
(lp1557
((g4
g5
tI-1
tp1558
a((g27
g5
tI-1
tp1559
a((g29
g30
tI-1
tp1560
a((g32
g33
tI0
tp1561
a((g35
g36
tI0
tp1562
a((g1042
g1043
tI0
tp1563
a((S'Filter'
p1564
S'enthought.mayavi.core.filter'
p1565
tI0
tp1566
a((S'Threshold'
p1567
S'enthought.mayavi.filters.threshold'
p1568
tI0
tp1569
asg12
g1567
sg13
(dp1570
g15
Nsg16
g45
sg18
I1
ssg16
g19
sg18
I243
sg20
g1568
sg15
(dp1571
g15
(dp1572
S'threshold_filter'
p1573
(dp1574
g2
(lp1575
((g4
g5
tI-1
tp1576
a((g7
g5
tI-1
tp1577
a((g72
g73
tI-1
tp1578
a((g75
g76
tI-1
tp1579
a((g78
g79
tI-1
tp1580
a((g81
g82
tI-1
tp1581
a((S'UnstructuredGridAlgorithm'
p1582
S'tvtk_classes.unstructured_grid_algorithm'
p1583
tI-1
tp1584
a((g1567
S'tvtk_classes.threshold'
p1585
tI-1
tp1586
asg12
g1567
sg13
(dp1587
g15
Nsg16
g45
sg18
I8
ssg16
g19
sg18
I317
sg20
g1585
sg15
(dp1588
g15
(dp1589
S'attribute_mode'
p1590
I-1
sS'all_scalars_'
p1591
I1
sg110
I0
sg124
I0
sg105
I0
sS'component_mode'
p1592
S'use_selected'
p1593
sS'all_scalars'
p1594
I1
sg121
I0
sg113
I0
sg114
I0
sg115
F1
sg131
I0
sS'selected_component'
p1595
I0
sS'attribute_mode_'
p1596
I-1
ssg16
g137
sg18
I318
sssg48
S''
sS'_upper_threshold'
p1597
F0.0090626496821641922
sg138
S''
sS'_lower_threshold'
p1598
F1.0000000000000001e-05
sS'reset_lower'
p1599
I00
sg1032
(dp1600
g15
(lp1601
(dp1602
g2
(lp1603
((g4
g5
tI-1
tp1604
a((g27
g5
tI-1
tp1605
a((g29
g30
tI-1
tp1606
a((g32
g33
tI0
tp1607
a((g1113
g1114
tI0
tp1608
asg12
g1113
sg13
(dp1609
g15
Nsg16
g45
sg18
I1
ssg16
g19
sg18
I246
sg20
g1114
sg15
(dp1610
g15
(dp1611
g48
S''
sg1119
g1120
sg1032
(dp1612
g15
(lp1613
(dp1614
g2
(lp1615
((g4
g5
tI-1
tp1616
a((g27
g5
tI-1
tp1617
a((g29
g30
tI-1
tp1618
a((g32
g33
tI0
tp1619
a((g35
g36
tI0
tp1620
a((g38
g39
tI0
tp1621
a((S'Surface'
p1622
S'enthought.mayavi.modules.surface'
p1623
tI0
tp1624
asg12
g1622
sg13
(dp1625
g15
Nsg16
g45
sg18
I1
ssg16
g19
sg18
I249
sg20
g1623
sg15
(dp1626
g15
(dp1627
g138
S''
sS'enable_contours'
p1628
I00
sg48
S''
sg50
(dp1629
g2
(lp1630
((g4
g5
tI-1
tp1631
a((g27
g5
tI-1
tp1632
a((g29
g30
tI-1
tp1633
a((g32
g33
tI0
tp1634
a((g35
g36
tI0
tp1635
a((g58
g59
tI0
tp1636
a((g61
g62
tI0
tp1637
asg12
g61
sg13
(dp1638
g15
Nsg16
g45
sg18
I1
ssg16
g19
sg18
I251
sg20
g62
sg15
(dp1639
g15
(dp1640
g67
(dp1641
g2
(lp1642
((g4
g5
tI-1
tp1643
a((g7
g5
tI-1
tp1644
a((g72
g73
tI-1
tp1645
a((g75
g76
tI-1
tp1646
a((g78
g79
tI-1
tp1647
a((g81
g82
tI-1
tp1648
a((g84
g85
tI-1
tp1649
a((g87
g88
tI-1
tp1650
a((g90
g91
tI-1
tp1651
a((S'DataSetMapper'
p1652
S'tvtk_classes.data_set_mapper'
p1653
tI-1
tp1654
asg12
g1652
sg13
(dp1655
g15
Nsg16
g45
sg18
I8
ssg16
g19
sg18
I253
sg20
g1653
sg15
(dp1656
g15
(dp1657
g100
I0
sg101
I0
sg102
g103
sg104
I0
sg126
I0
sg106
F0.01
sg108
g103
sg109
I0
sg110
I0
sg111
I0
sg112
I1
sg113
I0
sg114
I0
sg115
F1
sg116
(dp1658
g15
S'H4sIAI/mm0YC/53OsQrCMBQF0P3+SLIY0lbBQXDOksGsgjRpCoJNQ/oC5u99VL/A4Q6Pe7i8kOqS\nmwpriWqpL3qOpYwNjxLDmjYqNRByBxl2hzR9+9xDGg1ywgvQLQ98sjI96CcnajkiHyGdmM8CrFkw\nPTEb4MRFwFprDh328Jg3WnNxf2v9X2Z95W+8+gDYoI1C1QAAAA==\n'
p1659
sg16
g119
sg18
I255
ssg120
I1
sg121
I0
sg122
I0
sg123
I1
sg124
I0
sg125
I1
sg105
I0
sg128
I0
sg134
g135
sg131
I0
sg127
I0
sg130
g103
sg136
F0
ssg16
g137
sg18
I254
sssg138
S''
sg139
(dp1660
g2
(lp1661
((g4
g5
tI-1
tp1662
a((g7
g5
tI-1
tp1663
a((g72
g73
tI-1
tp1664
a((g75
g76
tI-1
tp1665
a((g78
g79
tI-1
tp1666
a((g147
g148
tI-1
tp1667
a((g150
g151
tI-1
tp1668
asg12
g150
sg13
(dp1669
g15
Nsg16
g45
sg18
I8
ssg16
g19
sg18
I262
sg20
g151
sg15
(dp1670
g15
(dp1671
g156
(dp1672
g15
Nsg16
g45
sg18
I19
ssg158
I0
sg159
F1
sg160
(dp1673
g15
Nsg16
g45
sg18
I19
ssg163
F0
sg164
I0
sg165
g166
sg167
F1
sg168
I0
sg169
F1
sg174
(dp1674
g15
Nsg16
g45
sg18
I19
ssg171
(dp1675
g15
Nsg16
g45
sg18
I19
ssg121
I0
sg173
I0
sg176
F1
sg170
I0
sg105
I0
sg178
F0
sg179
I0
sg181
I65535
sg110
I0
sg182
g183
sg184
I1
sg177
F2
ssg16
g137
sg18
I263
sssg48
S''
sg50
(dp1676
g2
(lp1677
((g4
g5
tI-1
tp1678
a((g7
g5
tI-1
tp1679
a((g72
g73
tI-1
tp1680
a((g75
g76
tI-1
tp1681
a((g78
g79
tI-1
tp1682
a((g192
g193
tI-1
tp1683
a((g195
g196
tI-1
tp1684
a((g61
g198
tI-1
tp1685
asg12
g61
sg13
(dp1686
g15
Nsg16
g45
sg18
I8
ssg16
g19
sg18
I256
sg20
g198
sg15
(dp1687
g15
(dp1688
g203
(dp1689
g15
S'H4sIAI/mm0YC/7XOMQoCMRAF0P5fJGkMWVfBwguk2cK0gmyyEQQ3O8QJmNs7RK9g8YvhPz4Tc12p\nmbiVZNb65MdcytxwKylu+cWlRgYN0LE75OXb0x7aWbBXQYEvNMopyo3gn1y4UQIdoL26nxREixB6\n7Myrs8I0TW43oEfGgrNWiuvb2n9GHg7mAy0aBDD4AAAA\n'
p1690
sg16
g119
sg18
I258
ssg206
(dp1691
g15
S'H4sIAI/mm0YC/53OMQvCMBAF4P39kWQxpFbBQXDOksGsgjRpCoJtQ3oB8+89oqOTwxuO9/G4sJQ5\nVRXWHNVcnvQYch4q7jmGddkol0BIHWRoDsv46dMe0miQE16Arqnnk5XpQV85Uk0R6QDpxHQSYM2C\n6bExJ84C1lqz69DCY95ozcXtpfXvTPryf8l/evUGx/o6Le8AAAA=\n'
p1692
sg16
g119
sg18
I260
ssg209
(dp1693
g15
S'H4sIAI/mm0YC/53OsQoCMRAE0H5+JGkMOU/hCn8gTQrTCnLJRRC8XIgbMH/vEu0FiymWeQwbUl1z\nU2ErUa31Qfe5lLnhWmLY0pNKDYQ8QIbukJZPn/eQRoOc8AJ0ziOfrMwI+sqFWo7IB0gnbpMAaxZM\nj505cRKw1prdgB4e80ZrLi4vrf/P9NPww169AaZN3yn4AAAA\n'
p1694
sg16
g119
sg18
I259
ssg110
I0
sg212
I1
sg213
I0
sg214
I1
sg215
I1
sg121
I0
sg105
I0
sg216
I0
sg217
(dp1695
g15
S'H4sIAI/mm0YC/7XOMQoCMRAF0P5fJGkMWVfBwguk2cK0gmyyEQQ3O8QJmNs7RK9g8YvhPz4Tc12p\nmbiVZNb65MdcytxwKylu+cWlRgYN0LE75OXb0x7aWbBXQYEvNMopyo3gn1y4UQIdoL26nxREixB6\n7Myrs8I0TW43oEfGgrNWiuvb2n9GHg7mAy0aBDD4AAAA\n'
p1696
sg16
g119
sg18
I261
ssg220
I1
ssg16
g137
sg18
I257
ssssg16
g137
sg18
I252
sssg268
(dp1697
g2
(lp1698
((g4
g5
tI-1
tp1699
a((g27
g5
tI-1
tp1700
a((g29
g30
tI-1
tp1701
a((g32
g33
tI0
tp1702
a((g35
g36
tI0
tp1703
a((g58
g59
tI0
tp1704
a((g277
g278
tI0
tp1705
asg12
g277
sg13
(dp1706
g15
Nsg16
g45
sg18
I1
ssg16
g19
sg18
I264
sg20
g278
sg15
(dp1707
g15
(dp1708
g48
S''
sg283
I01
sg284
(dp1709
g15
Nsg16
g45
sg18
I1
ssg287
I00
sg288
F0
sg138
S''
sg289
(dp1710
g2
(lp1711
((g4
g5
tI-1
tp1712
a((g7
g5
tI-1
tp1713
a((g72
g73
tI-1
tp1714
a((g75
g76
tI-1
tp1715
a((g78
g79
tI-1
tp1716
a((g81
g82
tI-1
tp1717
a((g245
g246
tI-1
tp1718
a((g299
g300
tI-1
tp1719
asg12
g299
sg13
(dp1720
g15
Nsg16
g45
sg18
I8
ssg16
g19
sg18
I266
sg20
g300
sg15
(dp1721
g15
(dp1722
g305
I0
sg121
I0
sg306
I0
sg307
I1
sg308
I0
sg124
I0
sg309
I1
sg49
I1
sg310
I1
sg311
I0
sg312
I0
sg113
I0
sg105
I0
sg114
I0
sg131
I0
sg115
F0
sg313
I1
sg110
I0
ssg16
g137
sg18
I267
sssg314
(dp1723
g15
(lp1724
sg16
g317
sg18
I268
ssg318
(dp1725
g2
(lp1726
((g4
g5
tI-1
tp1727
a((g7
g5
tI-1
tp1728
a((g72
g73
tI-1
tp1729
a((g75
g76
tI-1
tp1730
a((g78
g79
tI-1
tp1731
a((g81
g82
tI-1
tp1732
a((g245
g246
tI-1
tp1733
a((g328
g329
tI-1
tp1734
asg12
g328
sg13
(dp1735
g15
Nsg16
g45
sg18
I8
ssg16
g19
sg18
I269
sg20
g329
sg15
(dp1736
g15
(dp1737
g105
I0
sg334
I1
sg124
I0
sg335
I1
sg102
g336
sg337
I0
sg110
I0
sg121
I0
sg113
I0
sg338
I1
sg114
I0
sg131
I0
sg115
F0
sg313
I1
sg339
I0
ssg16
g137
sg18
I270
sssg340
I01
sg313
I10
sg341
F0
ssg16
g137
sg18
I265
ssssg16
g137
sg18
I250
ssasg16
g317
sg18
I248
ssg138
S''
sg1308
(dp1738
g2
(lp1739
((g4
g5
tI-1
tp1740
a((g27
g5
tI-1
tp1741
a((g29
g30
tI-1
tp1742
a((g32
g33
tI0
tp1743
a((g1315
g1316
tI0
tp1744
asg12
g1315
sg13
(dp1745
g15
Nsg16
g45
sg18
I1
ssg16
g19
sg18
I271
sg20
g1316
sg15
(dp1746
g15
(dp1747
g1321
(dp1748
g15
S'H4sIAI/mm0YC/1XOMQuDMBAF4P39kbhUYrTgUNquWRzqGigaIxSqHukJ8d/3sO3Q4Q3H+3icn9eJ\nttwvMeTT+uRHF2O34R6DX+YXx9UzqEDmd4d5+PRkkFkNblWvwDcq5RRlDfgrB94ogCpkrRprBdEi\nhB6FlWjVSaFpGnsosEfGequ1FC5p/cvVJV+6NNYuher815BL9SgxF/mgz98tBcR7yQAAAA==\n'
p1749
sg16
g119
sg18
I278
ssg1324
I01
sg1325
(dp1750
g2
(lp1751
((g4
g5
tI-1
tp1752
a((g7
g5
tI-1
tp1753
a((g72
g73
tI-1
tp1754
a((g75
g76
tI-1
tp1755
a((g78
g79
tI-1
tp1756
a((g1333
g1334
tI-1
tp1757
a((g1336
g1337
tI-1
tp1758
asg12
g1336
sg13
(dp1759
g15
Nsg16
g45
sg18
I8
ssg16
g19
sg18
I279
sg20
g1337
sg15
(dp1760
g15
(dp1761
g1342
I2
sg206
g1343
sg1344
(dp1762
g15
S'H4sIAI/mm0YC/33OMQvCMBAF4P39kWQxpK2Cg+CcJYNZBWnSFASbhngB8+89qqM4vOF4H48LqS65\nqbCWqJb6oPtYythwKzGs6UmlBkLuIMPmkKZPn3tIo0FOeAG65IFPVqYHfeVELUfkPaQT81GANQum\nB2YDnDgJWGvNrsMWHvNGay6uL61/Z9bnvyW/4tUbw9sFJ9IAAAA=\n'
p1763
sg16
g119
sg18
I281
ssg1347
(dp1764
g15
S'H4sIAI/mm0YC/1XOMQuDMBAF4P39kbhUYrTgUNquWRzqGigaIxSqHukJ8d/3sO3Q4Q3H+3icn9eJ\nttwvMeTT+uRHF2O34R6DX+YXx9UzqEDmd4d5+PRkkFkNblWvwDcq5RRlDfgrB94ogCpkrRprBdEi\nhB6FlWjVSaFpGnsosEfGequ1FC5p/cvVJV+6NNYuher815BL9SgxF/mgz98tBcR7yQAAAA==\n'
p1765
sg16
g119
sg18
I283
ssg1350
(dp1766
g15
S'H4sIAI/mm0YC/33OMQvCMBAF4P39kXSxpK3FCopzEDpY3ALSpBEKNg3xCum/96jODm94vI/jrF+m\nsOZ2ji6flheNfYz9ikd0dvZvioslhAKZ3Rz88N1DiUxJUCeMAN1CxZWVKkE/OdAaHMIeWSeejQBr\nFkxrZhU6cRJo21btCmzhY0ZJycNVJ9voJA9nnY7mrpOrL1zlv/ATJv8A/YiyW8wAAAA=\n'
p1767
sg16
g119
sg18
I282
ssg1353
I256
sg1354
g1355
sg105
I0
sg1356
I256
sg1357
(dp1768
g15
S'H4sIAI/mm0YC/33OMQvCMBAF4P39kWQxpK2Cg+CcJYNZBWnSFASbhngB8+89qqM4vOF4H48LqS65\nqbCWqJb6oPtYythwKzGs6UmlBkLuIMPmkKZPn3tIo0FOeAG65IFPVqYHfeVELUfkPaQT81GANQum\nB2YDnDgJWGvNrsMWHvNGay6uL61/Z9bnvyW/4tUbw9sFJ9IAAAA=\n'
p1769
sg16
g119
sg18
I284
ssg1360
I0
sg1361
(dp1770
g15
S'H4sIAI/mm0YC/33OMQvCMBAF4P39kWQxpK2Cg+CcJYNZBWnSFASbhngB8+89qqM4vOF4H48LqS65\nqbCWqJb6oPtYythwKzGs6UmlBkLuIMPmkKZPn3tIo0FOeAG65IFPVqYHfeVELUfkPaQT81GANQum\nB2YDnDgJWGvNrsMWHvNGay6uL61/Z9bnvyW/4tUbw9sFJ9IAAAA=\n'
p1771
sg16
g119
sg18
I285
ssg110
I0
sg1364
F1
sg1365
g1366
sg121
I0
ssg16
g137
sg18
I280
sssg1367
(dp1772
g2
(lp1773
((g4
g5
tI-1
tp1774
a((g7
g5
tI-1
tp1775
a((g72
g73
tI-1
tp1776
a((g75
g76
tI-1
tp1777
a((g78
g79
tI-1
tp1778
a((g1145
g1146
tI-1
tp1779
asg12
g1145
sg13
(dp1780
g15
Nsg16
g45
sg18
I8
ssg16
g19
sg18
I273
sg20
g1146
sg15
(dp1781
g15
(dp1782
g167
F1
sg1151
g1152
sg1153
I12
sg209
F0
sg1154
F0
sg1155
I1
sg1156
g1379
sg1158
I0
sg105
I0
sg1159
F1.1000000000000001
sg785
(dp1783
g15
Nsg16
g45
sg18
I19
ssg1161
I1
sg1162
(dp1784
g15
S'H4sIAI/mm0YC/03NsQrDIBDG8f17EV0qmqRbX8DFoa6FEo2BQJOIPaG+fY+00A7/4bgfd3Gra24q\n7iWptT5oGUsZG+4lxX17UqmRkA1kPBy26bPPHaTVIC+CAF1zzyMr24G+cqKWE/IA6cUyCLBmwfTM\nrIcXFwHnnD0ZHPGxYLXmxe2lDad/zfN//DCoN80p7hW4AAAA\n'
p1785
sg16
g119
sg18
I275
ssg110
I0
sg1165
I1
sg1166
I0
sg1168
g1169
sg121
I0
sg1170
I1
ssg16
g137
sg18
I274
sssg1383
(dp1786
g2
(lp1787
((g4
g5
tI-1
tp1788
a((g7
g5
tI-1
tp1789
a((g72
g73
tI-1
tp1790
a((g75
g76
tI-1
tp1791
a((g78
g79
tI-1
tp1792
a((g1145
g1146
tI-1
tp1793
asg12
g1145
sg13
(dp1794
g15
Nsg16
g45
sg18
I8
ssg16
g19
sg18
I286
sg20
g1146
sg15
(dp1795
g15
(dp1796
g167
F1
sg1151
g1152
sg1153
I12
sg209
F0
sg1154
F0
sg1155
I1
sg1156
g1379
sg1158
I0
sg105
I0
sg1159
F1.1000000000000001
sg785
(dp1797
g15
Nsg16
g45
sg18
I19
ssg1161
I1
sg1162
(dp1798
g15
S'H4sIAI/mm0YC/03NsQrDIBDG8f17EV0qmqRbX8DFoa6FEo2BQJOIPaG+fY+00A7/4bgfd3Gra24q\n7iWptT5oGUsZG+4lxX17UqmRkA1kPBy26bPPHaTVIC+CAF1zzyMr24G+cqKWE/IA6cUyCLBmwfTM\nrIcXFwHnnD0ZHPGxYLXmxe2lDad/zfN//DCoN80p7hW4AAAA\n'
p1799
sg16
g119
sg18
I288
ssg110
I0
sg1165
I1
sg1166
I0
sg1168
g1169
sg121
I0
sg1170
I1
ssg16
g137
sg18
I287
sssg1398
(dp1800
g2
(lp1801
((g4
g5
tI-1
tp1802
a((g7
g5
tI-1
tp1803
a((g72
g73
tI-1
tp1804
a((g75
g76
tI-1
tp1805
a((g78
g79
tI-1
tp1806
a((g743
g744
tI-1
tp1807
a((g1407
g1408
tI-1
tp1808
asg12
g1407
sg13
(dp1809
g15
Nsg16
g45
sg18
I8
ssg16
g19
sg18
I276
sg20
g1408
sg15
(dp1810
g15
(dp1811
g752
S'i'
sg753
I0
sg105
I0
sg754
F0.55000001192092896
sg121
I0
sg755
I0
sg756
I0
sg110
I0
sg757
I0
ssg16
g137
sg18
I277
sssg1087
S''
sg1413
S'LocalResiduals'
p1812
sg1415
(dp1813
g15
Nsg16
g45
sg18
I278
ssg48
S''
sg1356
I256
sg1417
S'LocalResiduals'
p1814
sg138
S''
sg1419
I01
sg1420
I8
sg1421
I00
sg1422
(dp1815
g2
(lp1816
((g4
g5
tI-1
tp1817
a((g7
g5
tI-1
tp1818
a((g72
g73
tI-1
tp1819
a((g75
g76
tI-1
tp1820
a((g78
g79
tI-1
tp1821
a((g192
g193
tI-1
tp1822
a((g1431
g1432
tI-1
tp1823
a((g1434
g1435
tI-1
tp1824
asg12
g1434
sg13
(dp1825
g15
Nsg16
g45
sg18
I8
ssg16
g19
sg18
I289
sg20
g1435
sg15
(dp1826
g15
(dp1827
g105
I0
sg220
I1
sg209
g1440
sg1441
F0.80000000000000004
sg1442
S'%-#6.3g'
p1828
sg1420
I8
sg212
I1
sg213
I1
sg214
I1
sg215
I1
sg121
I0
sg1444
I256
sg1445
I0
sg1446
(dp1829
g15
S'H4sIAI/mm0YC/2XOMQuDMBAF4P39kWSpaGxAoeCcxaGugaIxQqFqSC8Q/30P263DGx7v4zi3pTUc\nhdujL9b0oucY43jgEb3btzfF5AihgnSnwzZ/96AgTQkaxCRA91BzZWUU6CdnOoJHuEIOYmkEWLNg\nqpnVGMRNoO97c6lwho9Npix5sLkdOe1/fNvZ7GqbFy2ttblZuCqO7viLqfgAbt3QTs0AAAA=\n'
p1830
sg16
g119
sg18
I292
ssg216
I1
sg217
(dp1831
g15
S'H4sIAI/mm0YC/2XOMQuDMBAF4P39kbhUjFpQKDiWLA51DZQkplCoGtITYvvne9huHd5wvI/HuXmd\nwpa7Jfp8Wh90NzGaDdfo3TI/Ka6OECQytzvM47cPJTJVgAZhBegSKj5ZqRL0kyNtwSPUyAZxawRY\ns2B6ZFZhECeBvu/VQWIPj1lVFFzo1BpO+x/bdm+dZK2T8WedvHzp1NQdf2DzD7ndMtDJAAAA\n'
p1832
sg16
g119
sg18
I291
ssg1451
F0.17000000000000001
sg110
I0
sg1452
I0
ssg16
g137
sg18
I290
sssg1453
(dp1833
g15
S'H4sIAI/mm0YC/53OsQrCMBQF0P3+SLIY0lbBQXDOksGsgjRpCoJNQ/oC5u99VL/A4Q6Pe7i8kOqS\nmwpriWqpL3qOpYwNjxLDmjYqNRByBxl2hzR9+9xDGg1ywgvQLQ98sjI96CcnajkiHyGdmM8CrFkw\nPTEb4MRFwFprDh328Jg3WnNxf2v9X2Z95W+8+gDYoI1C1QAAAA==\n'
p1834
sg16
g119
sg18
I293
ssg1166
I00
sg1456
g1457
sg1458
I00
ssg16
g137
sg18
I272
sssg1459
(dp1835
g2
(lp1836
((g4
g5
tI-1
tp1837
a((g27
g5
tI-1
tp1838
a((g29
g30
tI-1
tp1839
a((g32
g33
tI0
tp1840
a((g1315
g1316
tI0
tp1841
asg12
g1315
sg13
(dp1842
g15
Nsg16
g45
sg18
I1
ssg16
g19
sg18
I294
sg20
g1316
sg15
(dp1843
g15
(dp1844
g1321
(dp1845
g15
S'H4sIAI/mm0YC/53OsQrCMBQF0P3+SLIY0lbBQXDOksGsgjRpCoJNQ/oC5u99VL/A4Q6Pe7i8kOqS\nmwpriWqpL3qOpYwNjxLDmjYqNRByBxl2hzR9+9xDGg1ywgvQLQ98sjI96CcnajkiHyGdmM8CrFkw\nPTEb4MRFwFprDh328Jg3WnNxf2v9X2Z95W+8+gDYoI1C1QAAAA==\n'
p1846
sg16
g119
sg18
I301
ssg1324
I01
sg1325
(dp1847
g2
(lp1848
((g4
g5
tI-1
tp1849
a((g7
g5
tI-1
tp1850
a((g72
g73
tI-1
tp1851
a((g75
g76
tI-1
tp1852
a((g78
g79
tI-1
tp1853
a((g1333
g1334
tI-1
tp1854
a((g1336
g1337
tI-1
tp1855
asg12
g1336
sg13
(dp1856
g15
Nsg16
g45
sg18
I8
ssg16
g19
sg18
I302
sg20
g1337
sg15
(dp1857
g15
(dp1858
g1342
I2
sg206
g1343
sg1344
(dp1859
g15
S'H4sIAI/mm0YC/33OMQvCMBAF4P39kWQxpK2Cg+CcJYNZBWnSFASbhngB8+89qqM4vOF4H48LqS65\nqbCWqJb6oPtYythwKzGs6UmlBkLuIMPmkKZPn3tIo0FOeAG65IFPVqYHfeVELUfkPaQT81GANQum\nB2YDnDgJWGvNrsMWHvNGay6uL61/Z9bnvyW/4tUbw9sFJ9IAAAA=\n'
p1860
sg16
g119
sg18
I304
ssg1347
(dp1861
g15
S'H4sIAI/mm0YC/53OsQrCMBQF0P3+SLIY0lbBQXDOksGsgjRpCoJNQ/oC5u99VL/A4Q6Pe7i8kOqS\nmwpriWqpL3qOpYwNjxLDmjYqNRByBxl2hzR9+9xDGg1ywgvQLQ98sjI96CcnajkiHyGdmM8CrFkw\nPTEb4MRFwFprDh328Jg3WnNxf2v9X2Z95W+8+gDYoI1C1QAAAA==\n'
p1862
sg16
g119
sg18
I306
ssg1350
(dp1863
g15
S'H4sIAI/mm0YC/33OMQvCMBAF4P39kXSxpK3FCopzEDpY3ALSpBEKNg3xCum/96jODm94vI/jrF+m\nsOZ2ji6flheNfYz9ikd0dvZvioslhAKZ3Rz88N1DiUxJUCeMAN1CxZWVKkE/OdAaHMIeWSeejQBr\nFkxrZhU6cRJo21btCmzhY0ZJycNVJ9voJA9nnY7mrpOrL1zlv/ATJv8A/YiyW8wAAAA=\n'
p1864
sg16
g119
sg18
I305
ssg1353
I256
sg1354
g1355
sg105
I0
sg1356
I256
sg1357
(dp1865
g15
S'H4sIAI/mm0YC/33OMQvCMBAF4P39kWQxpK2Cg+CcJYNZBWnSFASbhngB8+89qqM4vOF4H48LqS65\nqbCWqJb6oPtYythwKzGs6UmlBkLuIMPmkKZPn3tIo0FOeAG65IFPVqYHfeVELUfkPaQT81GANQum\nB2YDnDgJWGvNrsMWHvNGay6uL61/Z9bnvyW/4tUbw9sFJ9IAAAA=\n'
p1866
sg16
g119
sg18
I307
ssg1360
I0
sg1361
(dp1867
g15
S'H4sIAI/mm0YC/33OMQvCMBAF4P39kWQxpK2Cg+CcJYNZBWnSFASbhngB8+89qqM4vOF4H48LqS65\nqbCWqJb6oPtYythwKzGs6UmlBkLuIMPmkKZPn3tIo0FOeAG65IFPVqYHfeVELUfkPaQT81GANQum\nB2YDnDgJWGvNrsMWHvNGay6uL61/Z9bnvyW/4tUbw9sFJ9IAAAA=\n'
p1868
sg16
g119
sg18
I308
ssg110
I0
sg1364
F1
sg1365
g1366
sg121
I0
ssg16
g137
sg18
I303
sssg1367
(dp1869
g2
(lp1870
((g4
g5
tI-1
tp1871
a((g7
g5
tI-1
tp1872
a((g72
g73
tI-1
tp1873
a((g75
g76
tI-1
tp1874
a((g78
g79
tI-1
tp1875
a((g1145
g1146
tI-1
tp1876
asg12
g1145
sg13
(dp1877
g15
Nsg16
g45
sg18
I8
ssg16
g19
sg18
I296
sg20
g1146
sg15
(dp1878
g15
(dp1879
g167
F1
sg1151
g1152
sg1153
I12
sg209
F0
sg1154
F0
sg1155
I1
sg1156
g1379
sg1158
I0
sg105
I0
sg1159
F1.1000000000000001
sg785
(dp1880
g15
Nsg16
g45
sg18
I19
ssg1161
I1
sg1162
(dp1881
g15
S'H4sIAI/mm0YC/03NsQrDIBDG8f17EV0qmqRbX8DFoa6FEo2BQJOIPaG+fY+00A7/4bgfd3Gra24q\n7iWptT5oGUsZG+4lxX17UqmRkA1kPBy26bPPHaTVIC+CAF1zzyMr24G+cqKWE/IA6cUyCLBmwfTM\nrIcXFwHnnD0ZHPGxYLXmxe2lDad/zfN//DCoN80p7hW4AAAA\n'
p1882
sg16
g119
sg18
I298
ssg110
I0
sg1165
I1
sg1166
I0
sg1168
g1169
sg121
I0
sg1170
I1
ssg16
g137
sg18
I297
sssg1383
(dp1883
g2
(lp1884
((g4
g5
tI-1
tp1885
a((g7
g5
tI-1
tp1886
a((g72
g73
tI-1
tp1887
a((g75
g76
tI-1
tp1888
a((g78
g79
tI-1
tp1889
a((g1145
g1146
tI-1
tp1890
asg12
g1145
sg13
(dp1891
g15
Nsg16
g45
sg18
I8
ssg16
g19
sg18
I309
sg20
g1146
sg15
(dp1892
g15
(dp1893
g167
F1
sg1151
g1152
sg1153
I12
sg209
F0
sg1154
F0
sg1155
I1
sg1156
g1379
sg1158
I0
sg105
I0
sg1159
F1.1000000000000001
sg785
(dp1894
g15
Nsg16
g45
sg18
I19
ssg1161
I1
sg1162
(dp1895
g15
S'H4sIAI/mm0YC/03NsQrDIBDG8f17EV0qmqRbX8DFoa6FEo2BQJOIPaG+fY+00A7/4bgfd3Gra24q\n7iWptT5oGUsZG+4lxX17UqmRkA1kPBy26bPPHaTVIC+CAF1zzyMr24G+cqKWE/IA6cUyCLBmwfTM\nrIcXFwHnnD0ZHPGxYLXmxe2lDad/zfN//DCoN80p7hW4AAAA\n'
p1896
sg16
g119
sg18
I311
ssg110
I0
sg1165
I1
sg1166
I0
sg1168
g1169
sg121
I0
sg1170
I1
ssg16
g137
sg18
I310
sssg1398
(dp1897
g2
(lp1898
((g4
g5
tI-1
tp1899
a((g7
g5
tI-1
tp1900
a((g72
g73
tI-1
tp1901
a((g75
g76
tI-1
tp1902
a((g78
g79
tI-1
tp1903
a((g743
g744
tI-1
tp1904
a((g1407
g1408
tI-1
tp1905
asg12
g1407
sg13
(dp1906
g15
Nsg16
g45
sg18
I8
ssg16
g19
sg18
I299
sg20
g1408
sg15
(dp1907
g15
(dp1908
g752
S'i'
sg753
I0
sg105
I0
sg754
F0.55000001192092896
sg121
I0
sg755
I0
sg756
I0
sg110
I0
sg757
I0
ssg16
g137
sg18
I300
sssg1087
S''
sg1413
g1534
sg1415
(dp1909
g15
Nsg16
g45
sg18
I301
ssg48
S''
sg1356
I256
sg1417
g1534
sg138
S''
sg1419
I01
sg1420
I8
sg1421
I00
sg1422
(dp1910
g2
(lp1911
((g4
g5
tI-1
tp1912
a((g7
g5
tI-1
tp1913
a((g72
g73
tI-1
tp1914
a((g75
g76
tI-1
tp1915
a((g78
g79
tI-1
tp1916
a((g192
g193
tI-1
tp1917
a((g1431
g1432
tI-1
tp1918
a((g1434
g1435
tI-1
tp1919
asg12
g1434
sg13
(dp1920
g15
Nsg16
g45
sg18
I8
ssg16
g19
sg18
I312
sg20
g1435
sg15
(dp1921
g15
(dp1922
g105
I0
sg220
I1
sg209
g1440
sg1441
F0.80000000000000004
sg1442
S'%-#6.3g'
p1923
sg1420
I8
sg212
I1
sg213
I1
sg214
I1
sg215
I1
sg121
I0
sg1444
I256
sg1445
I0
sg1446
(dp1924
g15
S'H4sIAI/mm0YC/2XOMQuDMBAF4P39kWSpaGxAoeCcxaGugaIxQqFqSC8Q/30P263DGx7v4zi3pTUc\nhdujL9b0oucY43jgEb3btzfF5AihgnSnwzZ/96AgTQkaxCRA91BzZWUU6CdnOoJHuEIOYmkEWLNg\nqpnVGMRNoO97c6lwho9Npix5sLkdOe1/fNvZ7GqbFy2ttblZuCqO7viLqfgAbt3QTs0AAAA=\n'
p1925
sg16
g119
sg18
I315
ssg216
I1
sg217
(dp1926
g15
S'H4sIAI/mm0YC/2XOMQuDMBAF4P39kbhUjFpQKDiWLA51DZQkplCoGtITYvvne9huHd5wvI/HuXmd\nwpa7Jfp8Wh90NzGaDdfo3TI/Ka6OECQytzvM47cPJTJVgAZhBegSKj5ZqRL0kyNtwSPUyAZxawRY\ns2B6ZFZhECeBvu/VQWIPj1lVFFzo1BpO+x/bdm+dZK2T8WedvHzp1NQdf2DzD7ndMtDJAAAA\n'
p1927
sg16
g119
sg18
I314
ssg1451
F0.17000000000000001
sg110
I0
sg1452
I0
ssg16
g137
sg18
I313
sssg1453
(dp1928
g15
S'H4sIAI/mm0YC/53OsQrCMBQF0P3+SLIY0lbBQXDOksGsgjRpCoJNQ/oC5u99VL/A4Q6Pe7i8kOqS\nmwpriWqpL3qOpYwNjxLDmjYqNRByBxl2hzR9+9xDGg1ywgvQLQ98sjI96CcnajkiHyGdmM8CrFkw\nPTEb4MRFwFprDh328Jg3WnNxf2v9X2Z95W+8+gDYoI1C1QAAAA==\n'
p1929
sg16
g119
sg18
I316
ssg1166
I00
sg1456
g1457
sg1458
I00
ssg16
g137
sg18
I295
ssssg16
g137
sg18
I247
ssasg16
g317
sg18
I245
ssS'reset_upper'
p1930
I01
ssg16
g137
sg18
I244
ssa(dp1931
g2
(lp1932
((g4
g5
tI-1
tp1933
a((g27
g5
tI-1
tp1934
a((g29
g30
tI-1
tp1935
a((g32
g33
tI0
tp1936
a((g35
g36
tI0
tp1937
a((g1042
g1043
tI0
tp1938
a((g1564
g1565
tI0
tp1939
a((S'FilterBase'
p1940
S'enthought.mayavi.filters.filter_base'
p1941
tI0
tp1942
a((S'CellToPointData'
p1943
S'enthought.mayavi.filters.cell_to_point_data'
p1944
tI0
tp1945
asg12
g1943
sg13
(dp1946
g15
Nsg16
g45
sg18
I1
ssg16
g19
sg18
I319
sg20
g1944
sg15
(dp1947
g15
(dp1948
g236
(dp1949
g2
(lp1950
((g4
g5
tI-1
tp1951
a((g7
g5
tI-1
tp1952
a((g72
g73
tI-1
tp1953
a((g75
g76
tI-1
tp1954
a((g78
g79
tI-1
tp1955
a((g81
g82
tI-1
tp1956
a((S'DataSetAlgorithm'
p1957
S'tvtk_classes.data_set_algorithm'
p1958
tI-1
tp1959
a((S'CellDataToPointData'
p1960
S'tvtk_classes.cell_data_to_point_data'
p1961
tI-1
tp1962
asg12
g1960
sg13
(dp1963
g15
Nsg16
g45
sg18
I8
ssg16
g19
sg18
I321
sg20
g1961
sg15
(dp1964
g15
(dp1965
S'pass_cell_data'
p1966
I0
sg124
I0
sg131
I0
sg105
I0
sg121
I0
sg113
I0
sg114
I0
sg110
I0
sg115
F1
sS'pass_cell_data_'
p1967
I0
ssg16
g137
sg18
I322
sssg138
S''
sg48
S''
sg1032
(dp1968
g15
(lp1969
(dp1970
g2
(lp1971
((g4
g5
tI-1
tp1972
a((g27
g5
tI-1
tp1973
a((g29
g30
tI-1
tp1974
a((g32
g33
tI0
tp1975
a((g1113
g1114
tI0
tp1976
asg12
g1113
sg13
(dp1977
g15
Nsg16
g45
sg18
I1
ssg16
g19
sg18
I324
sg20
g1114
sg15
(dp1978
g15
(dp1979
g48
S''
sg1119
g1120
sg1032
(dp1980
g15
(lp1981
(dp1982
g15
Nsg16
g45
sg18
I3
sasg16
g317
sg18
I326
ssg138
S''
sg1308
(dp1983
g2
(lp1984
((g4
g5
tI-1
tp1985
a((g27
g5
tI-1
tp1986
a((g29
g30
tI-1
tp1987
a((g32
g33
tI0
tp1988
a((g1315
g1316
tI0
tp1989
asg12
g1315
sg13
(dp1990
g15
Nsg16
g45
sg18
I1
ssg16
g19
sg18
I327
sg20
g1316
sg15
(dp1991
g15
(dp1992
g1321
(dp1993
g15
S'H4sIAI/mm0YC/03NwQ6CMAwG4Pv/IuMiKaAJB43nXXaQK4myMaOJjGUWA29vgx44tEn7f2ldmIa4\n5G5MPh+mFz+7lLoF1+TdGN6cJseIBTK3OoT+l8cSmSZwo6wCX2Iloyhdgv+y5yV6xD2yRt1rBdEi\nhB6EVWjUUcEYo3cF1pJjVhNJ0M5E23p8pLvTdnVrZ2+Ldq7pLO9t/gUcjDBUxgAAAA==\n'
p1994
sg16
g119
sg18
I334
ssg1324
I01
sg1325
(dp1995
g2
(lp1996
((g4
g5
tI-1
tp1997
a((g7
g5
tI-1
tp1998
a((g72
g73
tI-1
tp1999
a((g75
g76
tI-1
tp2000
a((g78
g79
tI-1
tp2001
a((g1333
g1334
tI-1
tp2002
a((g1336
g1337
tI-1
tp2003
asg12
g1336
sg13
(dp2004
g15
Nsg16
g45
sg18
I8
ssg16
g19
sg18
I335
sg20
g1337
sg15
(dp2005
g15
(dp2006
g1342
I2
sg206
g1343
sg1344
(dp2007
g15
S'H4sIAI/mm0YC/33OMQvCMBAF4P39kWQxpK2Cg+CcJYNZBWnSFASbhngB8+89qqM4vOF4H48LqS65\nqbCWqJb6oPtYythwKzGs6UmlBkLuIMPmkKZPn3tIo0FOeAG65IFPVqYHfeVELUfkPaQT81GANQum\nB2YDnDgJWGvNrsMWHvNGay6uL61/Z9bnvyW/4tUbw9sFJ9IAAAA=\n'
p2008
sg16
g119
sg18
I337
ssg1347
(dp2009
g15
S'H4sIAI/mm0YC/03NwQ6CMAwG4Pv/IuMiKaAJB43nXXaQK4myMaOJjGUWA29vgx44tEn7f2ldmIa4\n5G5MPh+mFz+7lLoF1+TdGN6cJseIBTK3OoT+l8cSmSZwo6wCX2Iloyhdgv+y5yV6xD2yRt1rBdEi\nhB6EVWjUUcEYo3cF1pJjVhNJ0M5E23p8pLvTdnVrZ2+Ldq7pLO9t/gUcjDBUxgAAAA==\n'
p2010
sg16
g119
sg18
I339
ssg1350
(dp2011
g15
S'H4sIAI/mm0YC/33OMQvCMBAF4P39kXSxpK3FCopzEDpY3ALSpBEKNg3xCum/96jODm94vI/jrF+m\nsOZ2ji6flheNfYz9ikd0dvZvioslhAKZ3Rz88N1DiUxJUCeMAN1CxZWVKkE/OdAaHMIeWSeejQBr\nFkxrZhU6cRJo21btCmzhY0ZJycNVJ9voJA9nnY7mrpOrL1zlv/ATJv8A/YiyW8wAAAA=\n'
p2012
sg16
g119
sg18
I338
ssg1353
I256
sg1354
g1355
sg105
I0
sg1356
I256
sg1357
(dp2013
g15
S'H4sIAI/mm0YC/33OMQvCMBAF4P39kWQxpK2Cg+CcJYNZBWnSFASbhngB8+89qqM4vOF4H48LqS65\nqbCWqJb6oPtYythwKzGs6UmlBkLuIMPmkKZPn3tIo0FOeAG65IFPVqYHfeVELUfkPaQT81GANQum\nB2YDnDgJWGvNrsMWHvNGay6uL61/Z9bnvyW/4tUbw9sFJ9IAAAA=\n'
p2014
sg16
g119
sg18
I340
ssg1360
I0
sg1361
(dp2015
g15
S'H4sIAI/mm0YC/33OMQvCMBAF4P39kWQxpK2Cg+CcJYNZBWnSFASbhngB8+89qqM4vOF4H48LqS65\nqbCWqJb6oPtYythwKzGs6UmlBkLuIMPmkKZPn3tIo0FOeAG65IFPVqYHfeVELUfkPaQT81GANQum\nB2YDnDgJWGvNrsMWHvNGay6uL61/Z9bnvyW/4tUbw9sFJ9IAAAA=\n'
p2016
sg16
g119
sg18
I341
ssg110
I0
sg1364
F1
sg1365
g1366
sg121
I0
ssg16
g137
sg18
I336
sssg1367
(dp2017
g2
(lp2018
((g4
g5
tI-1
tp2019
a((g7
g5
tI-1
tp2020
a((g72
g73
tI-1
tp2021
a((g75
g76
tI-1
tp2022
a((g78
g79
tI-1
tp2023
a((g1145
g1146
tI-1
tp2024
asg12
g1145
sg13
(dp2025
g15
Nsg16
g45
sg18
I8
ssg16
g19
sg18
I329
sg20
g1146
sg15
(dp2026
g15
(dp2027
g167
F1
sg1151
g1152
sg1153
I12
sg209
F0
sg1154
F0
sg1155
I1
sg1156
g1379
sg1158
I0
sg105
I0
sg1159
F1.1000000000000001
sg785
(dp2028
g15
Nsg16
g45
sg18
I19
ssg1161
I1
sg1162
(dp2029
g15
S'H4sIAI/mm0YC/03NsQrDIBDG8f17EV0qmqRbX8DFoa6FEo2BQJOIPaG+fY+00A7/4bgfd3Gra24q\n7iWptT5oGUsZG+4lxX17UqmRkA1kPBy26bPPHaTVIC+CAF1zzyMr24G+cqKWE/IA6cUyCLBmwfTM\nrIcXFwHnnD0ZHPGxYLXmxe2lDad/zfN//DCoN80p7hW4AAAA\n'
p2030
sg16
g119
sg18
I331
ssg110
I0
sg1165
I1
sg1166
I0
sg1168
g1169
sg121
I0
sg1170
I1
ssg16
g137
sg18
I330
sssg1383
(dp2031
g2
(lp2032
((g4
g5
tI-1
tp2033
a((g7
g5
tI-1
tp2034
a((g72
g73
tI-1
tp2035
a((g75
g76
tI-1
tp2036
a((g78
g79
tI-1
tp2037
a((g1145
g1146
tI-1
tp2038
asg12
g1145
sg13
(dp2039
g15
Nsg16
g45
sg18
I8
ssg16
g19
sg18
I342
sg20
g1146
sg15
(dp2040
g15
(dp2041
g167
F1
sg1151
g1152
sg1153
I12
sg209
F0
sg1154
F0
sg1155
I1
sg1156
g1379
sg1158
I0
sg105
I0
sg1159
F1.1000000000000001
sg785
(dp2042
g15
Nsg16
g45
sg18
I19
ssg1161
I1
sg1162
(dp2043
g15
S'H4sIAI/mm0YC/03NsQrDIBDG8f17EV0qmqRbX8DFoa6FEo2BQJOIPaG+fY+00A7/4bgfd3Gra24q\n7iWptT5oGUsZG+4lxX17UqmRkA1kPBy26bPPHaTVIC+CAF1zzyMr24G+cqKWE/IA6cUyCLBmwfTM\nrIcXFwHnnD0ZHPGxYLXmxe2lDad/zfN//DCoN80p7hW4AAAA\n'
p2044
sg16
g119
sg18
I344
ssg110
I0
sg1165
I1
sg1166
I0
sg1168
g1169
sg121
I0
sg1170
I1
ssg16
g137
sg18
I343
sssg1398
(dp2045
g2
(lp2046
((g4
g5
tI-1
tp2047
a((g7
g5
tI-1
tp2048
a((g72
g73
tI-1
tp2049
a((g75
g76
tI-1
tp2050
a((g78
g79
tI-1
tp2051
a((g743
g744
tI-1
tp2052
a((g1407
g1408
tI-1
tp2053
asg12
g1407
sg13
(dp2054
g15
Nsg16
g45
sg18
I8
ssg16
g19
sg18
I332
sg20
g1408
sg15
(dp2055
g15
(dp2056
g752
S'i'
sg753
I1
sg105
I0
sg754
F0.55000001192092896
sg121
I0
sg755
I0
sg756
I1
sg110
I0
sg757
I0
ssg16
g137
sg18
I333
sssg1087
S''
sg1413
V
sg1415
(dp2057
g15
Nsg16
g45
sg18
I334
ssg48
S''
sg1356
I256
sg1417
S'LocalResiduals'
p2058
sg138
S''
sg1419
I01
sg1420
I8
sg1421
I01
sg1422
(dp2059
g2
(lp2060
((g4
g5
tI-1
tp2061
a((g7
g5
tI-1
tp2062
a((g72
g73
tI-1
tp2063
a((g75
g76
tI-1
tp2064
a((g78
g79
tI-1
tp2065
a((g192
g193
tI-1
tp2066
a((g1431
g1432
tI-1
tp2067
a((g1434
g1435
tI-1
tp2068
asg12
g1434
sg13
(dp2069
g15
Nsg16
g45
sg18
I8
ssg16
g19
sg18
I345
sg20
g1435
sg15
(dp2070
g15
(dp2071
g105
I0
sg220
I1
sg209
S'vertical'
p2072
sg1441
F0.090725883476600266
sg1442
S'%-#6.3g'
p2073
sg1420
I8
sg212
I1
sg213
I1
sg214
I1
sg215
I1
sg121
I0
sg1444
I256
sg1445
I1
sg1446
(dp2074
g15
S'H4sIAI/mm0YC/y3NTQuDMAwG4Pv7R+plUr/YBoIHT714mNfCsLXCYNbSRaj/fsHtEJLwPiTW72s4\ncrtFl6/7m15TjNOBZ3R28x+KuyWEApk9Hfz8y0OJTEnQKIwAPULFKytVgv5ypiM4hBrZKJabAGsW\nTBtmFUbRCgzDoC4FzuJjRknJgU5WcjVeJ+N4WO48XLu21qkwOknuk+x1clXHv03+Bdy3ASfDAAAA\n'
p2075
sg16
g119
sg18
I348
ssg216
I1
sg217
(dp2076
g15
S'H4sIAI/mm0YC/y3NzQrCMBAE4Pu8SHqxJP0RBbWgp1x6sNeAJGkEwbYhppBCH96lehiWZT527TgP\nfsntFFw+zO/40iHoBY/g7DR+YphthBfI7OYw9r/eF8gkR+yYYYh3X9JKShaIf9nHxTv4ClnHngcG\n0iSI1sRKdOzE0Lat3AlsoWNGck6FSn1xU+m4V4lXKolaJU1xplnPK01xvahkdUOPTf4Fc7BodsAA\nAAA=\n'
p2077
sg16
g119
sg18
I347
ssg1451
F0.60200501253132854
sg110
I0
sg1452
I0
ssg16
g137
sg18
I346
sssg1453
(dp2078
g15
S'H4sIAI/mm0YC/53OsQrCMBQF0P3+SLIY0lbBQXDOksGsgjRpCoJNQ/oC5u99VL/A4Q6Pe7i8kOqS\nmwpriWqpL3qOpYwNjxLDmjYqNRByBxl2hzR9+9xDGg1ywgvQLQ98sjI96CcnajkiHyGdmM8CrFkw\nPTEb4MRFwFprDh328Jg3WnNxf2v9X2Z95W+8+gDYoI1C1QAAAA==\n'
p2079
sg16
g119
sg18
I349
ssg1166
I00
sg1456
g1457
sg1458
I00
ssg16
g137
sg18
I328
sssg1459
(dp2080
g2
(lp2081
((g4
g5
tI-1
tp2082
a((g27
g5
tI-1
tp2083
a((g29
g30
tI-1
tp2084
a((g32
g33
tI0
tp2085
a((g1315
g1316
tI0
tp2086
asg12
g1315
sg13
(dp2087
g15
Nsg16
g45
sg18
I1
ssg16
g19
sg18
I350
sg20
g1316
sg15
(dp2088
g15
(dp2089
g1321
(dp2090
g15
S'H4sIAI/mm0YC/53OsQrCMBQF0P3+SLIY0lbBQXDOksGsgjRpCoJNQ/oC5u99VL/A4Q6Pe7i8kOqS\nmwpriWqpL3qOpYwNjxLDmjYqNRByBxl2hzR9+9xDGg1ywgvQLQ98sjI96CcnajkiHyGdmM8CrFkw\nPTEb4MRFwFprDh328Jg3WnNxf2v9X2Z95W+8+gDYoI1C1QAAAA==\n'
p2091
sg16
g119
sg18
I357
ssg1324
I01
sg1325
(dp2092
g2
(lp2093
((g4
g5
tI-1
tp2094
a((g7
g5
tI-1
tp2095
a((g72
g73
tI-1
tp2096
a((g75
g76
tI-1
tp2097
a((g78
g79
tI-1
tp2098
a((g1333
g1334
tI-1
tp2099
a((g1336
g1337
tI-1
tp2100
asg12
g1336
sg13
(dp2101
g15
Nsg16
g45
sg18
I8
ssg16
g19
sg18
I358
sg20
g1337
sg15
(dp2102
g15
(dp2103
g1342
I2
sg206
g1343
sg1344
(dp2104
g15
S'H4sIAI/mm0YC/33OMQvCMBAF4P39kWQxpK2Cg+CcJYNZBWnSFASbhngB8+89qqM4vOF4H48LqS65\nqbCWqJb6oPtYythwKzGs6UmlBkLuIMPmkKZPn3tIo0FOeAG65IFPVqYHfeVELUfkPaQT81GANQum\nB2YDnDgJWGvNrsMWHvNGay6uL61/Z9bnvyW/4tUbw9sFJ9IAAAA=\n'
p2105
sg16
g119
sg18
I360
ssg1347
(dp2106
g15
S'H4sIAI/mm0YC/53OsQrCMBQF0P3+SLIY0lbBQXDOksGsgjRpCoJNQ/oC5u99VL/A4Q6Pe7i8kOqS\nmwpriWqpL3qOpYwNjxLDmjYqNRByBxl2hzR9+9xDGg1ywgvQLQ98sjI96CcnajkiHyGdmM8CrFkw\nPTEb4MRFwFprDh328Jg3WnNxf2v9X2Z95W+8+gDYoI1C1QAAAA==\n'
p2107
sg16
g119
sg18
I362
ssg1350
(dp2108
g15
S'H4sIAI/mm0YC/33OMQvCMBAF4P39kXSxpK3FCopzEDpY3ALSpBEKNg3xCum/96jODm94vI/jrF+m\nsOZ2ji6flheNfYz9ikd0dvZvioslhAKZ3Rz88N1DiUxJUCeMAN1CxZWVKkE/OdAaHMIeWSeejQBr\nFkxrZhU6cRJo21btCmzhY0ZJycNVJ9voJA9nnY7mrpOrL1zlv/ATJv8A/YiyW8wAAAA=\n'
p2109
sg16
g119
sg18
I361
ssg1353
I256
sg1354
g1355
sg105
I0
sg1356
I256
sg1357
(dp2110
g15
S'H4sIAI/mm0YC/33OMQvCMBAF4P39kWQxpK2Cg+CcJYNZBWnSFASbhngB8+89qqM4vOF4H48LqS65\nqbCWqJb6oPtYythwKzGs6UmlBkLuIMPmkKZPn3tIo0FOeAG65IFPVqYHfeVELUfkPaQT81GANQum\nB2YDnDgJWGvNrsMWHvNGay6uL61/Z9bnvyW/4tUbw9sFJ9IAAAA=\n'
p2111
sg16
g119
sg18
I363
ssg1360
I0
sg1361
(dp2112
g15
S'H4sIAI/mm0YC/33OMQvCMBAF4P39kWQxpK2Cg+CcJYNZBWnSFASbhngB8+89qqM4vOF4H48LqS65\nqbCWqJb6oPtYythwKzGs6UmlBkLuIMPmkKZPn3tIo0FOeAG65IFPVqYHfeVELUfkPaQT81GANQum\nB2YDnDgJWGvNrsMWHvNGay6uL61/Z9bnvyW/4tUbw9sFJ9IAAAA=\n'
p2113
sg16
g119
sg18
I364
ssg110
I0
sg1364
F1
sg1365
g1366
sg121
I0
ssg16
g137
sg18
I359
sssg1367
(dp2114
g2
(lp2115
((g4
g5
tI-1
tp2116
a((g7
g5
tI-1
tp2117
a((g72
g73
tI-1
tp2118
a((g75
g76
tI-1
tp2119
a((g78
g79
tI-1
tp2120
a((g1145
g1146
tI-1
tp2121
asg12
g1145
sg13
(dp2122
g15
Nsg16
g45
sg18
I8
ssg16
g19
sg18
I352
sg20
g1146
sg15
(dp2123
g15
(dp2124
g167
F1
sg1151
g1152
sg1153
I12
sg209
F0
sg1154
F0
sg1155
I1
sg1156
g1379
sg1158
I0
sg105
I0
sg1159
F1.1000000000000001
sg785
(dp2125
g15
Nsg16
g45
sg18
I19
ssg1161
I1
sg1162
(dp2126
g15
S'H4sIAI/mm0YC/03NsQrDIBDG8f17EV0qmqRbX8DFoa6FEo2BQJOIPaG+fY+00A7/4bgfd3Gra24q\n7iWptT5oGUsZG+4lxX17UqmRkA1kPBy26bPPHaTVIC+CAF1zzyMr24G+cqKWE/IA6cUyCLBmwfTM\nrIcXFwHnnD0ZHPGxYLXmxe2lDad/zfN//DCoN80p7hW4AAAA\n'
p2127
sg16
g119
sg18
I354
ssg110
I0
sg1165
I1
sg1166
I0
sg1168
g1169
sg121
I0
sg1170
I1
ssg16
g137
sg18
I353
sssg1383
(dp2128
g2
(lp2129
((g4
g5
tI-1
tp2130
a((g7
g5
tI-1
tp2131
a((g72
g73
tI-1
tp2132
a((g75
g76
tI-1
tp2133
a((g78
g79
tI-1
tp2134
a((g1145
g1146
tI-1
tp2135
asg12
g1145
sg13
(dp2136
g15
Nsg16
g45
sg18
I8
ssg16
g19
sg18
I365
sg20
g1146
sg15
(dp2137
g15
(dp2138
g167
F1
sg1151
g1152
sg1153
I12
sg209
F0
sg1154
F0
sg1155
I1
sg1156
g1379
sg1158
I0
sg105
I0
sg1159
F1.1000000000000001
sg785
(dp2139
g15
Nsg16
g45
sg18
I19
ssg1161
I1
sg1162
(dp2140
g15
S'H4sIAI/mm0YC/03NsQrDIBDG8f17EV0qmqRbX8DFoa6FEo2BQJOIPaG+fY+00A7/4bgfd3Gra24q\n7iWptT5oGUsZG+4lxX17UqmRkA1kPBy26bPPHaTVIC+CAF1zzyMr24G+cqKWE/IA6cUyCLBmwfTM\nrIcXFwHnnD0ZHPGxYLXmxe2lDad/zfN//DCoN80p7hW4AAAA\n'
p2141
sg16
g119
sg18
I367
ssg110
I0
sg1165
I1
sg1166
I0
sg1168
g1169
sg121
I0
sg1170
I1
ssg16
g137
sg18
I366
sssg1398
(dp2142
g2
(lp2143
((g4
g5
tI-1
tp2144
a((g7
g5
tI-1
tp2145
a((g72
g73
tI-1
tp2146
a((g75
g76
tI-1
tp2147
a((g78
g79
tI-1
tp2148
a((g743
g744
tI-1
tp2149
a((g1407
g1408
tI-1
tp2150
asg12
g1407
sg13
(dp2151
g15
Nsg16
g45
sg18
I8
ssg16
g19
sg18
I355
sg20
g1408
sg15
(dp2152
g15
(dp2153
g752
S'i'
sg753
I0
sg105
I0
sg754
F0.55000001192092896
sg121
I0
sg755
I0
sg756
I0
sg110
I0
sg757
I0
ssg16
g137
sg18
I356
sssg1087
S''
sg1413
g1534
sg1415
(dp2154
g15
Nsg16
g45
sg18
I357
ssg48
S''
sg1356
I256
sg1417
g1534
sg138
S''
sg1419
I01
sg1420
I8
sg1421
I00
sg1422
(dp2155
g2
(lp2156
((g4
g5
tI-1
tp2157
a((g7
g5
tI-1
tp2158
a((g72
g73
tI-1
tp2159
a((g75
g76
tI-1
tp2160
a((g78
g79
tI-1
tp2161
a((g192
g193
tI-1
tp2162
a((g1431
g1432
tI-1
tp2163
a((g1434
g1435
tI-1
tp2164
asg12
g1434
sg13
(dp2165
g15
Nsg16
g45
sg18
I8
ssg16
g19
sg18
I368
sg20
g1435
sg15
(dp2166
g15
(dp2167
g105
I0
sg220
I1
sg209
g1440
sg1441
F0.80000000000000004
sg1442
S'%-#6.3g'
p2168
sg1420
I8
sg212
I1
sg213
I1
sg214
I1
sg215
I1
sg121
I0
sg1444
I256
sg1445
I0
sg1446
(dp2169
g15
S'H4sIAI/mm0YC/2XOMQuDMBAF4P39kWSpaGxAoeCcxaGugaIxQqFqSC8Q/30P263DGx7v4zi3pTUc\nhdujL9b0oucY43jgEb3btzfF5AihgnSnwzZ/96AgTQkaxCRA91BzZWUU6CdnOoJHuEIOYmkEWLNg\nqpnVGMRNoO97c6lwho9Npix5sLkdOe1/fNvZ7GqbFy2ttblZuCqO7viLqfgAbt3QTs0AAAA=\n'
p2170
sg16
g119
sg18
I371
ssg216
I1
sg217
(dp2171
g15
S'H4sIAI/mm0YC/2XOMQuDMBAF4P39kbhUjFpQKDiWLA51DZQkplCoGtITYvvne9huHd5wvI/HuXmd\nwpa7Jfp8Wh90NzGaDdfo3TI/Ka6OECQytzvM47cPJTJVgAZhBegSKj5ZqRL0kyNtwSPUyAZxawRY\ns2B6ZFZhECeBvu/VQWIPj1lVFFzo1BpO+x/bdm+dZK2T8WedvHzp1NQdf2DzD7ndMtDJAAAA\n'
p2172
sg16
g119
sg18
I370
ssg1451
F0.17000000000000001
sg110
I0
sg1452
I0
ssg16
g137
sg18
I369
sssg1453
(dp2173
g15
S'H4sIAI/mm0YC/53OsQrCMBQF0P3+SLIY0lbBQXDOksGsgjRpCoJNQ/oC5u99VL/A4Q6Pe7i8kOqS\nmwpriWqpL3qOpYwNjxLDmjYqNRByBxl2hzR9+9xDGg1ywgvQLQ98sjI96CcnajkiHyGdmM8CrFkw\nPTEb4MRFwFprDh328Jg3WnNxf2v9X2Z95W+8+gDYoI1C1QAAAA==\n'
p2174
sg16
g119
sg18
I372
ssg1166
I00
sg1456
g1457
sg1458
I00
ssg16
g137
sg18
I351
ssssg16
g137
sg18
I325
ssasg16
g317
sg18
I323
sssg16
g137
sg18
I320
ssasg16
g317
sg18
I159
ssS'_max_timestep'
p2175
I3
ssg16
g137
sg18
I158
ssa(dp2176
g2
(lp2177
((g4
g5
tI-1
tp2178
a((g27
g5
tI-1
tp2179
a((g29
g30
tI-1
tp2180
a((g32
g33
tI0
tp2181
a((g35
g36
tI0
tp2182
a((g1042
g1043
tI0
tp2183
a((g1045
g1046
tI0
tp2184
a((g1048
g1049
tI0
tp2185
asg12
g1048
sg13
(dp2186
g15
Nsg16
g45
sg18
I1
ssg16
g19
sg18
I377
sg20
g1049
sg15
(dp2187
g15
(dp2188
g48
S''
sg1054
(dp2189
g2
(lp2190
((g1057
g1058
tI-1
tp2191
asg12
g1057
sg13
(dp2192
g15
Nsg16
g45
sg18
I1
ssg16
g19
sg18
I453
sg20
g1058
sg15
(dp2193
g15
(dp2194
g1063
S'bottom-layer.vtk'
p2195
sg1065
S'/home/luis/benchmarks/bottom-layer.vtk'
p2196
ssg16
g137
sg18
I454
sssg138
S''
sg1067
I0
sg1068
(dp2197
g2
(lp2198
((g4
g5
tI-1
tp2199
a((g7
g5
tI-1
tp2200
a((g72
g73
tI-1
tp2201
a((g75
g76
tI-1
tp2202
a((g78
g79
tI-1
tp2203
a((g81
g82
tI-1
tp2204
a((g1077
g1078
tI-1
tp2205
a((g1080
g1081
tI-1
tp2206
asg12
g1080
sg13
(dp2207
g15
Nsg16
g45
sg18
I8
ssg16
g19
sg18
I451
sg20
g1081
sg15
(dp2208
g15
(dp2209
g1086
I0
sg1087
S'/home/luis/benchmarks/bottom-layer.vtk'
p2210
sg1089
I0
sg1090
I0
sg105
I0
sg1091
I0
sg1092
I0
sg1093
I0
sg1094
I0
sg113
I0
sg1095
I0
sg114
I0
sg115
F1
sg121
I0
sg1096
I0
sg110
I0
sg1097
I0
sg1098
I0
sg1099
I0
sg1100
I0
sg124
I0
sg1101
I0
sg1102
I0
sg1103
I0
sg131
I0
ssg16
g137
sg18
I452
sssg1104
I0
sg1032
(dp2211
g15
(lp2212
(dp2213
g2
(lp2214
((g4
g5
tI-1
tp2215
a((g27
g5
tI-1
tp2216
a((g29
g30
tI-1
tp2217
a((g32
g33
tI0
tp2218
a((g1113
g1114
tI0
tp2219
asg12
g1113
sg13
(dp2220
g15
Nsg16
g45
sg18
I1
ssg16
g19
sg18
I380
sg20
g1114
sg15
(dp2221
g15
(dp2222
g48
S''
sg1119
g1120
sg1032
(dp2223
g15
(lp2224
(dp2225
g2
(lp2226
((g4
g5
tI-1
tp2227
a((g27
g5
tI-1
tp2228
a((g29
g30
tI-1
tp2229
a((g32
g33
tI0
tp2230
a((g35
g36
tI0
tp2231
a((g38
g39
tI0
tp2232
a((g1622
g1623
tI0
tp2233
asg12
g1622
sg13
(dp2234
g15
Nsg16
g45
sg18
I1
ssg16
g19
sg18
I383
sg20
g1623
sg15
(dp2235
g15
(dp2236
g138
S''
sg1628
I00
sg48
S''
sg50
(dp2237
g2
(lp2238
((g4
g5
tI-1
tp2239
a((g27
g5
tI-1
tp2240
a((g29
g30
tI-1
tp2241
a((g32
g33
tI0
tp2242
a((g35
g36
tI0
tp2243
a((g58
g59
tI0
tp2244
a((g61
g62
tI0
tp2245
asg12
g61
sg13
(dp2246
g15
Nsg16
g45
sg18
I1
ssg16
g19
sg18
I385
sg20
g62
sg15
(dp2247
g15
(dp2248
g67
(dp2249
g2
(lp2250
((g4
g5
tI-1
tp2251
a((g7
g5
tI-1
tp2252
a((g72
g73
tI-1
tp2253
a((g75
g76
tI-1
tp2254
a((g78
g79
tI-1
tp2255
a((g81
g82
tI-1
tp2256
a((g84
g85
tI-1
tp2257
a((g87
g88
tI-1
tp2258
a((g90
g91
tI-1
tp2259
a((g1652
g1653
tI-1
tp2260
asg12
g1652
sg13
(dp2261
g15
Nsg16
g45
sg18
I8
ssg16
g19
sg18
I387
sg20
g1653
sg15
(dp2262
g15
(dp2263
g100
I0
sg101
I0
sg102
g103
sg104
I0
sg126
I0
sg106
F0.01
sg108
g103
sg109
I0
sg110
I0
sg111
I0
sg112
I1
sg113
I0
sg114
I0
sg115
F1
sg116
(dp2264
g15
S'H4sIAI/mm0YC/53OsQrCMBQF0P3+SLIY0lbBQXDOksGsgjRpCoJNQ/oC5u99VL/A4Q6Pe7i8kOqS\nmwpriWqpL3qOpYwNjxLDmjYqNRByBxl2hzR9+9xDGg1ywgvQLQ98sjI96CcnajkiHyGdmM8CrFkw\nPTEb4MRFwFprDh328Jg3WnNxf2v9X2Z95W+8+gDYoI1C1QAAAA==\n'
p2265
sg16
g119
sg18
I389
ssg120
I1
sg121
I0
sg122
I0
sg123
I1
sg124
I0
sg125
I1
sg105
I0
sg128
I0
sg134
g135
sg131
I0
sg127
I0
sg130
g103
sg136
F0
ssg16
g137
sg18
I388
sssg138
S''
sg139
(dp2266
g2
(lp2267
((g4
g5
tI-1
tp2268
a((g7
g5
tI-1
tp2269
a((g72
g73
tI-1
tp2270
a((g75
g76
tI-1
tp2271
a((g78
g79
tI-1
tp2272
a((g147
g148
tI-1
tp2273
a((g150
g151
tI-1
tp2274
asg12
g150
sg13
(dp2275
g15
Nsg16
g45
sg18
I8
ssg16
g19
sg18
I396
sg20
g151
sg15
(dp2276
g15
(dp2277
g156
(dp2278
g15
Nsg16
g45
sg18
I19
ssg158
I0
sg159
F1
sg160
(dp2279
g15
Nsg16
g45
sg18
I19
ssg163
F0
sg164
I0
sg165
g166
sg167
F0.14960000000000001
sg168
I0
sg169
F1
sg174
(dp2280
g15
Nsg16
g45
sg18
I19
ssg171
(dp2281
g15
Nsg16
g45
sg18
I19
ssg121
I0
sg173
I0
sg176
F1
sg170
I0
sg105
I0
sg178
F0
sg179
I0
sg181
I65535
sg110
I0
sg182
g183
sg184
I1
sg177
F2
ssg16
g137
sg18
I397
sssg48
S''
sg50
(dp2282
g2
(lp2283
((g4
g5
tI-1
tp2284
a((g7
g5
tI-1
tp2285
a((g72
g73
tI-1
tp2286
a((g75
g76
tI-1
tp2287
a((g78
g79
tI-1
tp2288
a((g192
g193
tI-1
tp2289
a((g195
g196
tI-1
tp2290
a((g61
g198
tI-1
tp2291
asg12
g61
sg13
(dp2292
g15
Nsg16
g45
sg18
I8
ssg16
g19
sg18
I390
sg20
g198
sg15
(dp2293
g15
(dp2294
g203
(dp2295
g15
S'H4sIAI/mm0YC/7XOMQoCMRAF0P5fJGkMWVfBwguk2cK0gmyyEQQ3O8QJmNs7RK9g8YvhPz4Tc12p\nmbiVZNb65MdcytxwKylu+cWlRgYN0LE75OXb0x7aWbBXQYEvNMopyo3gn1y4UQIdoL26nxREixB6\n7Myrs8I0TW43oEfGgrNWiuvb2n9GHg7mAy0aBDD4AAAA\n'
p2296
sg16
g119
sg18
I392
ssg206
(dp2297
g15
S'H4sIAI/mm0YC/53OMQvCMBAF4P39kWQxpFbBQXDOksGsgjRpCoJtQ3oB8+89oqOTwxuO9/G4sJQ5\nVRXWHNVcnvQYch4q7jmGddkol0BIHWRoDsv46dMe0miQE16Arqnnk5XpQV85Uk0R6QDpxHQSYM2C\n6bExJ84C1lqz69DCY95ozcXtpfXvTPryf8l/evUGx/o6Le8AAAA=\n'
p2298
sg16
g119
sg18
I394
ssg209
(dp2299
g15
S'H4sIAI/mm0YC/53OsQoCMRAE0H5+JGkMOU/hCn8gTQrTCnLJRRC8XIgbMH/vEu0FiymWeQwbUl1z\nU2ErUa31Qfe5lLnhWmLY0pNKDYQ8QIbukJZPn/eQRoOc8AJ0ziOfrMwI+sqFWo7IB0gnbpMAaxZM\nj505cRKw1prdgB4e80ZrLi4vrf/P9NPww169AaZN3yn4AAAA\n'
p2300
sg16
g119
sg18
I393
ssg110
I0
sg212
I1
sg213
I1
sg214
I1
sg215
I1
sg121
I0
sg105
I0
sg216
I1
sg217
(dp2301
g15
S'H4sIAI/mm0YC/7XOMQoCMRAF0P5fJGkMWVfBwguk2cK0gmyyEQQ3O8QJmNs7RK9g8YvhPz4Tc12p\nmbiVZNb65MdcytxwKylu+cWlRgYN0LE75OXb0x7aWbBXQYEvNMopyo3gn1y4UQIdoL26nxREixB6\n7Myrs8I0TW43oEfGgrNWiuvb2n9GHg7mAy0aBDD4AAAA\n'
p2302
sg16
g119
sg18
I395
ssg220
I1
ssg16
g137
sg18
I391
ssssg16
g137
sg18
I386
sssg268
(dp2303
g2
(lp2304
((g4
g5
tI-1
tp2305
a((g27
g5
tI-1
tp2306
a((g29
g30
tI-1
tp2307
a((g32
g33
tI0
tp2308
a((g35
g36
tI0
tp2309
a((g58
g59
tI0
tp2310
a((g277
g278
tI0
tp2311
asg12
g277
sg13
(dp2312
g15
Nsg16
g45
sg18
I1
ssg16
g19
sg18
I398
sg20
g278
sg15
(dp2313
g15
(dp2314
g48
S''
sg283
I01
sg284
(dp2315
g15
Nsg16
g45
sg18
I1
ssg287
I00
sg288
F0
sg138
S''
sg289
(dp2316
g2
(lp2317
((g4
g5
tI-1
tp2318
a((g7
g5
tI-1
tp2319
a((g72
g73
tI-1
tp2320
a((g75
g76
tI-1
tp2321
a((g78
g79
tI-1
tp2322
a((g81
g82
tI-1
tp2323
a((g245
g246
tI-1
tp2324
a((g299
g300
tI-1
tp2325
asg12
g299
sg13
(dp2326
g15
Nsg16
g45
sg18
I8
ssg16
g19
sg18
I400
sg20
g300
sg15
(dp2327
g15
(dp2328
g305
I0
sg121
I0
sg306
I0
sg307
I1
sg308
I0
sg124
I0
sg309
I1
sg49
I1
sg310
I1
sg311
I0
sg312
I0
sg113
I0
sg105
I0
sg114
I0
sg131
I0
sg115
F0
sg313
I1
sg110
I0
ssg16
g137
sg18
I401
sssg314
(dp2329
g15
(lp2330
sg16
g317
sg18
I402
ssg318
(dp2331
g2
(lp2332
((g4
g5
tI-1
tp2333
a((g7
g5
tI-1
tp2334
a((g72
g73
tI-1
tp2335
a((g75
g76
tI-1
tp2336
a((g78
g79
tI-1
tp2337
a((g81
g82
tI-1
tp2338
a((g245
g246
tI-1
tp2339
a((g328
g329
tI-1
tp2340
asg12
g328
sg13
(dp2341
g15
Nsg16
g45
sg18
I8
ssg16
g19
sg18
I403
sg20
g329
sg15
(dp2342
g15
(dp2343
g105
I0
sg334
I1
sg124
I0
sg335
I1
sg102
g336
sg337
I0
sg110
I0
sg121
I0
sg113
I0
sg338
I1
sg114
I0
sg131
I0
sg115
F0
sg313
I1
sg339
I0
ssg16
g137
sg18
I404
sssg340
I01
sg313
I10
sg341
F0
ssg16
g137
sg18
I399
ssssg16
g137
sg18
I384
ssasg16
g317
sg18
I382
ssg138
S''
sg1308
(dp2344
g2
(lp2345
((g4
g5
tI-1
tp2346
a((g27
g5
tI-1
tp2347
a((g29
g30
tI-1
tp2348
a((g32
g33
tI0
tp2349
a((g1315
g1316
tI0
tp2350
asg12
g1315
sg13
(dp2351
g15
Nsg16
g45
sg18
I1
ssg16
g19
sg18
I405
sg20
g1316
sg15
(dp2352
g15
(dp2353
g1321
(dp2354
g15
S'H4sIAI/mm0YC/53OsQrCMBQF0P3+SLIY0lbBQXDOksGsgjRpCoJNQ/oC5u99VL/A4Q6Pe7i8kOqS\nmwpriWqpL3qOpYwNjxLDmjYqNRByBxl2hzR9+9xDGg1ywgvQLQ98sjI96CcnajkiHyGdmM8CrFkw\nPTEb4MRFwFprDh328Jg3WnNxf2v9X2Z95W+8+gDYoI1C1QAAAA==\n'
p2355
sg16
g119
sg18
I412
ssg1324
I01
sg1325
(dp2356
g2
(lp2357
((g4
g5
tI-1
tp2358
a((g7
g5
tI-1
tp2359
a((g72
g73
tI-1
tp2360
a((g75
g76
tI-1
tp2361
a((g78
g79
tI-1
tp2362
a((g1333
g1334
tI-1
tp2363
a((g1336
g1337
tI-1
tp2364
asg12
g1336
sg13
(dp2365
g15
Nsg16
g45
sg18
I8
ssg16
g19
sg18
I413
sg20
g1337
sg15
(dp2366
g15
(dp2367
g1342
I2
sg206
g1343
sg1344
(dp2368
g15
S'H4sIAI/mm0YC/33OMQvCMBAF4P39kWQxpK2Cg+CcJYNZBWnSFASbhngB8+89qqM4vOF4H48LqS65\nqbCWqJb6oPtYythwKzGs6UmlBkLuIMPmkKZPn3tIo0FOeAG65IFPVqYHfeVELUfkPaQT81GANQum\nB2YDnDgJWGvNrsMWHvNGay6uL61/Z9bnvyW/4tUbw9sFJ9IAAAA=\n'
p2369
sg16
g119
sg18
I415
ssg1347
(dp2370
g15
S'H4sIAI/mm0YC/53OsQrCMBQF0P3+SLIY0lbBQXDOksGsgjRpCoJNQ/oC5u99VL/A4Q6Pe7i8kOqS\nmwpriWqpL3qOpYwNjxLDmjYqNRByBxl2hzR9+9xDGg1ywgvQLQ98sjI96CcnajkiHyGdmM8CrFkw\nPTEb4MRFwFprDh328Jg3WnNxf2v9X2Z95W+8+gDYoI1C1QAAAA==\n'
p2371
sg16
g119
sg18
I417
ssg1350
(dp2372
g15
S'H4sIAI/mm0YC/33OMQvCMBAF4P39kXSxpK3FCopzEDpY3ALSpBEKNg3xCum/96jODm94vI/jrF+m\nsOZ2ji6flheNfYz9ikd0dvZvioslhAKZ3Rz88N1DiUxJUCeMAN1CxZWVKkE/OdAaHMIeWSeejQBr\nFkxrZhU6cRJo21btCmzhY0ZJycNVJ9voJA9nnY7mrpOrL1zlv/ATJv8A/YiyW8wAAAA=\n'
p2373
sg16
g119
sg18
I416
ssg1353
I256
sg1354
g1355
sg105
I0
sg1356
I256
sg1357
(dp2374
g15
S'H4sIAI/mm0YC/33OMQvCMBAF4P39kWQxpK2Cg+CcJYNZBWnSFASbhngB8+89qqM4vOF4H48LqS65\nqbCWqJb6oPtYythwKzGs6UmlBkLuIMPmkKZPn3tIo0FOeAG65IFPVqYHfeVELUfkPaQT81GANQum\nB2YDnDgJWGvNrsMWHvNGay6uL61/Z9bnvyW/4tUbw9sFJ9IAAAA=\n'
p2375
sg16
g119
sg18
I418
ssg1360
I0
sg1361
(dp2376
g15
S'H4sIAI/mm0YC/33OMQvCMBAF4P39kWQxpK2Cg+CcJYNZBWnSFASbhngB8+89qqM4vOF4H48LqS65\nqbCWqJb6oPtYythwKzGs6UmlBkLuIMPmkKZPn3tIo0FOeAG65IFPVqYHfeVELUfkPaQT81GANQum\nB2YDnDgJWGvNrsMWHvNGay6uL61/Z9bnvyW/4tUbw9sFJ9IAAAA=\n'
p2377
sg16
g119
sg18
I419
ssg110
I0
sg1364
F1
sg1365
g1366
sg121
I0
ssg16
g137
sg18
I414
sssg1367
(dp2378
g2
(lp2379
((g4
g5
tI-1
tp2380
a((g7
g5
tI-1
tp2381
a((g72
g73
tI-1
tp2382
a((g75
g76
tI-1
tp2383
a((g78
g79
tI-1
tp2384
a((g1145
g1146
tI-1
tp2385
asg12
g1145
sg13
(dp2386
g15
Nsg16
g45
sg18
I8
ssg16
g19
sg18
I407
sg20
g1146
sg15
(dp2387
g15
(dp2388
g167
F1
sg1151
g1152
sg1153
I12
sg209
F0
sg1154
F0
sg1155
I1
sg1156
g1379
sg1158
I0
sg105
I0
sg1159
F1.1000000000000001
sg785
(dp2389
g15
Nsg16
g45
sg18
I19
ssg1161
I1
sg1162
(dp2390
g15
S'H4sIAI/mm0YC/03NsQrDIBDG8f17EV0qmqRbX8DFoa6FEo2BQJOIPaG+fY+00A7/4bgfd3Gra24q\n7iWptT5oGUsZG+4lxX17UqmRkA1kPBy26bPPHaTVIC+CAF1zzyMr24G+cqKWE/IA6cUyCLBmwfTM\nrIcXFwHnnD0ZHPGxYLXmxe2lDad/zfN//DCoN80p7hW4AAAA\n'
p2391
sg16
g119
sg18
I409
ssg110
I0
sg1165
I1
sg1166
I0
sg1168
g1169
sg121
I0
sg1170
I1
ssg16
g137
sg18
I408
sssg1383
(dp2392
g2
(lp2393
((g4
g5
tI-1
tp2394
a((g7
g5
tI-1
tp2395
a((g72
g73
tI-1
tp2396
a((g75
g76
tI-1
tp2397
a((g78
g79
tI-1
tp2398
a((g1145
g1146
tI-1
tp2399
asg12
g1145
sg13
(dp2400
g15
Nsg16
g45
sg18
I8
ssg16
g19
sg18
I420
sg20
g1146
sg15
(dp2401
g15
(dp2402
g167
F1
sg1151
g1152
sg1153
I12
sg209
F0
sg1154
F0
sg1155
I1
sg1156
g1379
sg1158
I0
sg105
I0
sg1159
F1.1000000000000001
sg785
(dp2403
g15
Nsg16
g45
sg18
I19
ssg1161
I1
sg1162
(dp2404
g15
S'H4sIAI/mm0YC/03NsQrDIBDG8f17EV0qmqRbX8DFoa6FEo2BQJOIPaG+fY+00A7/4bgfd3Gra24q\n7iWptT5oGUsZG+4lxX17UqmRkA1kPBy26bPPHaTVIC+CAF1zzyMr24G+cqKWE/IA6cUyCLBmwfTM\nrIcXFwHnnD0ZHPGxYLXmxe2lDad/zfN//DCoN80p7hW4AAAA\n'
p2405
sg16
g119
sg18
I422
ssg110
I0
sg1165
I1
sg1166
I0
sg1168
g1169
sg121
I0
sg1170
I1
ssg16
g137
sg18
I421
sssg1398
(dp2406
g2
(lp2407
((g4
g5
tI-1
tp2408
a((g7
g5
tI-1
tp2409
a((g72
g73
tI-1
tp2410
a((g75
g76
tI-1
tp2411
a((g78
g79
tI-1
tp2412
a((g743
g744
tI-1
tp2413
a((g1407
g1408
tI-1
tp2414
asg12
g1407
sg13
(dp2415
g15
Nsg16
g45
sg18
I8
ssg16
g19
sg18
I410
sg20
g1408
sg15
(dp2416
g15
(dp2417
g752
S'i'
sg753
I0
sg105
I0
sg754
F0.55000001192092896
sg121
I0
sg755
I0
sg756
I0
sg110
I0
sg757
I0
ssg16
g137
sg18
I411
sssg1087
S''
sg1413
S'No scalars'
p2418
sg1415
(dp2419
g15
Nsg16
g45
sg18
I412
ssg48
S''
sg1356
I256
sg1417
g2418
sg138
S''
sg1419
I01
sg1420
I8
sg1421
I00
sg1422
(dp2420
g2
(lp2421
((g4
g5
tI-1
tp2422
a((g7
g5
tI-1
tp2423
a((g72
g73
tI-1
tp2424
a((g75
g76
tI-1
tp2425
a((g78
g79
tI-1
tp2426
a((g192
g193
tI-1
tp2427
a((g1431
g1432
tI-1
tp2428
a((g1434
g1435
tI-1
tp2429
asg12
g1434
sg13
(dp2430
g15
Nsg16
g45
sg18
I8
ssg16
g19
sg18
I423
sg20
g1435
sg15
(dp2431
g15
(dp2432
g105
I0
sg220
I1
sg209
g1440
sg1441
F0.80000000000000004
sg1442
S'%-#6.3g'
p2433
sg1420
I8
sg212
I1
sg213
I1
sg214
I1
sg215
I1
sg121
I0
sg1444
I256
sg1445
I0
sg1446
(dp2434
g15
S'H4sIAI/mm0YC/2XOMQuDMBAF4P39kWSpaGxAoeCcxaGugaIxQqFqSC8Q/30P263DGx7v4zi3pTUc\nhdujL9b0oucY43jgEb3btzfF5AihgnSnwzZ/96AgTQkaxCRA91BzZWUU6CdnOoJHuEIOYmkEWLNg\nqpnVGMRNoO97c6lwho9Npix5sLkdOe1/fNvZ7GqbFy2ttblZuCqO7viLqfgAbt3QTs0AAAA=\n'
p2435
sg16
g119
sg18
I426
ssg216
I1
sg217
(dp2436
g15
S'H4sIAI/mm0YC/2XOMQuDMBAF4P39kbhUjFpQKDiWLA51DZQkplCoGtITYvvne9huHd5wvI/HuXmd\nwpa7Jfp8Wh90NzGaDdfo3TI/Ka6OECQytzvM47cPJTJVgAZhBegSKj5ZqRL0kyNtwSPUyAZxawRY\ns2B6ZFZhECeBvu/VQWIPj1lVFFzo1BpO+x/bdm+dZK2T8WedvHzp1NQdf2DzD7ndMtDJAAAA\n'
p2437
sg16
g119
sg18
I425
ssg1451
F0.17000000000000001
sg110
I0
sg1452
I0
ssg16
g137
sg18
I424
sssg1453
(dp2438
g15
S'H4sIAI/mm0YC/53OsQrCMBQF0P3+SLIY0lbBQXDOksGsgjRpCoJNQ/oC5u99VL/A4Q6Pe7i8kOqS\nmwpriWqpL3qOpYwNjxLDmjYqNRByBxl2hzR9+9xDGg1ywgvQLQ98sjI96CcnajkiHyGdmM8CrFkw\nPTEb4MRFwFprDh328Jg3WnNxf2v9X2Z95W+8+gDYoI1C1QAAAA==\n'
p2439
sg16
g119
sg18
I427
ssg1166
I00
sg1456
g1457
sg1458
I00
ssg16
g137
sg18
I406
sssg1459
(dp2440
g2
(lp2441
((g4
g5
tI-1
tp2442
a((g27
g5
tI-1
tp2443
a((g29
g30
tI-1
tp2444
a((g32
g33
tI0
tp2445
a((g1315
g1316
tI0
tp2446
asg12
g1315
sg13
(dp2447
g15
Nsg16
g45
sg18
I1
ssg16
g19
sg18
I428
sg20
g1316
sg15
(dp2448
g15
(dp2449
g1321
(dp2450
g15
S'H4sIAI/mm0YC/53OsQrCMBQF0P3+SLIY0lbBQXDOksGsgjRpCoJNQ/oC5u99VL/A4Q6Pe7i8kOqS\nmwpriWqpL3qOpYwNjxLDmjYqNRByBxl2hzR9+9xDGg1ywgvQLQ98sjI96CcnajkiHyGdmM8CrFkw\nPTEb4MRFwFprDh328Jg3WnNxf2v9X2Z95W+8+gDYoI1C1QAAAA==\n'
p2451
sg16
g119
sg18
I435
ssg1324
I01
sg1325
(dp2452
g2
(lp2453
((g4
g5
tI-1
tp2454
a((g7
g5
tI-1
tp2455
a((g72
g73
tI-1
tp2456
a((g75
g76
tI-1
tp2457
a((g78
g79
tI-1
tp2458
a((g1333
g1334
tI-1
tp2459
a((g1336
g1337
tI-1
tp2460
asg12
g1336
sg13
(dp2461
g15
Nsg16
g45
sg18
I8
ssg16
g19
sg18
I436
sg20
g1337
sg15
(dp2462
g15
(dp2463
g1342
I2
sg206
g1343
sg1344
(dp2464
g15
S'H4sIAI/mm0YC/33OMQvCMBAF4P39kWQxpK2Cg+CcJYNZBWnSFASbhngB8+89qqM4vOF4H48LqS65\nqbCWqJb6oPtYythwKzGs6UmlBkLuIMPmkKZPn3tIo0FOeAG65IFPVqYHfeVELUfkPaQT81GANQum\nB2YDnDgJWGvNrsMWHvNGay6uL61/Z9bnvyW/4tUbw9sFJ9IAAAA=\n'
p2465
sg16
g119
sg18
I438
ssg1347
(dp2466
g15
S'H4sIAI/mm0YC/53OsQrCMBQF0P3+SLIY0lbBQXDOksGsgjRpCoJNQ/oC5u99VL/A4Q6Pe7i8kOqS\nmwpriWqpL3qOpYwNjxLDmjYqNRByBxl2hzR9+9xDGg1ywgvQLQ98sjI96CcnajkiHyGdmM8CrFkw\nPTEb4MRFwFprDh328Jg3WnNxf2v9X2Z95W+8+gDYoI1C1QAAAA==\n'
p2467
sg16
g119
sg18
I440
ssg1350
(dp2468
g15
S'H4sIAI/mm0YC/33OMQvCMBAF4P39kXSxpK3FCopzEDpY3ALSpBEKNg3xCum/96jODm94vI/jrF+m\nsOZ2ji6flheNfYz9ikd0dvZvioslhAKZ3Rz88N1DiUxJUCeMAN1CxZWVKkE/OdAaHMIeWSeejQBr\nFkxrZhU6cRJo21btCmzhY0ZJycNVJ9voJA9nnY7mrpOrL1zlv/ATJv8A/YiyW8wAAAA=\n'
p2469
sg16
g119
sg18
I439
ssg1353
I256
sg1354
g1355
sg105
I0
sg1356
I256
sg1357
(dp2470
g15
S'H4sIAI/mm0YC/33OMQvCMBAF4P39kWQxpK2Cg+CcJYNZBWnSFASbhngB8+89qqM4vOF4H48LqS65\nqbCWqJb6oPtYythwKzGs6UmlBkLuIMPmkKZPn3tIo0FOeAG65IFPVqYHfeVELUfkPaQT81GANQum\nB2YDnDgJWGvNrsMWHvNGay6uL61/Z9bnvyW/4tUbw9sFJ9IAAAA=\n'
p2471
sg16
g119
sg18
I441
ssg1360
I0
sg1361
(dp2472
g15
S'H4sIAI/mm0YC/33OMQvCMBAF4P39kWQxpK2Cg+CcJYNZBWnSFASbhngB8+89qqM4vOF4H48LqS65\nqbCWqJb6oPtYythwKzGs6UmlBkLuIMPmkKZPn3tIo0FOeAG65IFPVqYHfeVELUfkPaQT81GANQum\nB2YDnDgJWGvNrsMWHvNGay6uL61/Z9bnvyW/4tUbw9sFJ9IAAAA=\n'
p2473
sg16
g119
sg18
I442
ssg110
I0
sg1364
F1
sg1365
g1366
sg121
I0
ssg16
g137
sg18
I437
sssg1367
(dp2474
g2
(lp2475
((g4
g5
tI-1
tp2476
a((g7
g5
tI-1
tp2477
a((g72
g73
tI-1
tp2478
a((g75
g76
tI-1
tp2479
a((g78
g79
tI-1
tp2480
a((g1145
g1146
tI-1
tp2481
asg12
g1145
sg13
(dp2482
g15
Nsg16
g45
sg18
I8
ssg16
g19
sg18
I430
sg20
g1146
sg15
(dp2483
g15
(dp2484
g167
F1
sg1151
g1152
sg1153
I12
sg209
F0
sg1154
F0
sg1155
I1
sg1156
g1379
sg1158
I0
sg105
I0
sg1159
F1.1000000000000001
sg785
(dp2485
g15
Nsg16
g45
sg18
I19
ssg1161
I1
sg1162
(dp2486
g15
S'H4sIAI/mm0YC/03NsQrDIBDG8f17EV0qmqRbX8DFoa6FEo2BQJOIPaG+fY+00A7/4bgfd3Gra24q\n7iWptT5oGUsZG+4lxX17UqmRkA1kPBy26bPPHaTVIC+CAF1zzyMr24G+cqKWE/IA6cUyCLBmwfTM\nrIcXFwHnnD0ZHPGxYLXmxe2lDad/zfN//DCoN80p7hW4AAAA\n'
p2487
sg16
g119
sg18
I432
ssg110
I0
sg1165
I1
sg1166
I0
sg1168
g1169
sg121
I0
sg1170
I1
ssg16
g137
sg18
I431
sssg1383
(dp2488
g2
(lp2489
((g4
g5
tI-1
tp2490
a((g7
g5
tI-1
tp2491
a((g72
g73
tI-1
tp2492
a((g75
g76
tI-1
tp2493
a((g78
g79
tI-1
tp2494
a((g1145
g1146
tI-1
tp2495
asg12
g1145
sg13
(dp2496
g15
Nsg16
g45
sg18
I8
ssg16
g19
sg18
I443
sg20
g1146
sg15
(dp2497
g15
(dp2498
g167
F1
sg1151
g1152
sg1153
I12
sg209
F0
sg1154
F0
sg1155
I1
sg1156
g1379
sg1158
I0
sg105
I0
sg1159
F1.1000000000000001
sg785
(dp2499
g15
Nsg16
g45
sg18
I19
ssg1161
I1
sg1162
(dp2500
g15
S'H4sIAI/mm0YC/03NsQrDIBDG8f17EV0qmqRbX8DFoa6FEo2BQJOIPaG+fY+00A7/4bgfd3Gra24q\n7iWptT5oGUsZG+4lxX17UqmRkA1kPBy26bPPHaTVIC+CAF1zzyMr24G+cqKWE/IA6cUyCLBmwfTM\nrIcXFwHnnD0ZHPGxYLXmxe2lDad/zfN//DCoN80p7hW4AAAA\n'
p2501
sg16
g119
sg18
I445
ssg110
I0
sg1165
I1
sg1166
I0
sg1168
g1169
sg121
I0
sg1170
I1
ssg16
g137
sg18
I444
sssg1398
(dp2502
g2
(lp2503
((g4
g5
tI-1
tp2504
a((g7
g5
tI-1
tp2505
a((g72
g73
tI-1
tp2506
a((g75
g76
tI-1
tp2507
a((g78
g79
tI-1
tp2508
a((g743
g744
tI-1
tp2509
a((g1407
g1408
tI-1
tp2510
asg12
g1407
sg13
(dp2511
g15
Nsg16
g45
sg18
I8
ssg16
g19
sg18
I433
sg20
g1408
sg15
(dp2512
g15
(dp2513
g752
S'i'
sg753
I0
sg105
I0
sg754
F0.55000001192092896
sg121
I0
sg755
I0
sg756
I0
sg110
I0
sg757
I0
ssg16
g137
sg18
I434
sssg1087
S''
sg1413
g1534
sg1415
(dp2514
g15
Nsg16
g45
sg18
I435
ssg48
S''
sg1356
I256
sg1417
g1534
sg138
S''
sg1419
I01
sg1420
I8
sg1421
I00
sg1422
(dp2515
g2
(lp2516
((g4
g5
tI-1
tp2517
a((g7
g5
tI-1
tp2518
a((g72
g73
tI-1
tp2519
a((g75
g76
tI-1
tp2520
a((g78
g79
tI-1
tp2521
a((g192
g193
tI-1
tp2522
a((g1431
g1432
tI-1
tp2523
a((g1434
g1435
tI-1
tp2524
asg12
g1434
sg13
(dp2525
g15
Nsg16
g45
sg18
I8
ssg16
g19
sg18
I446
sg20
g1435
sg15
(dp2526
g15
(dp2527
g105
I0
sg220
I1
sg209
g1440
sg1441
F0.80000000000000004
sg1442
S'%-#6.3g'
p2528
sg1420
I8
sg212
I1
sg213
I1
sg214
I1
sg215
I1
sg121
I0
sg1444
I256
sg1445
I0
sg1446
(dp2529
g15
S'H4sIAI/mm0YC/2XOMQuDMBAF4P39kWSpaGxAoeCcxaGugaIxQqFqSC8Q/30P263DGx7v4zi3pTUc\nhdujL9b0oucY43jgEb3btzfF5AihgnSnwzZ/96AgTQkaxCRA91BzZWUU6CdnOoJHuEIOYmkEWLNg\nqpnVGMRNoO97c6lwho9Npix5sLkdOe1/fNvZ7GqbFy2ttblZuCqO7viLqfgAbt3QTs0AAAA=\n'
p2530
sg16
g119
sg18
I449
ssg216
I1
sg217
(dp2531
g15
S'H4sIAI/mm0YC/2XOMQuDMBAF4P39kbhUjFpQKDiWLA51DZQkplCoGtITYvvne9huHd5wvI/HuXmd\nwpa7Jfp8Wh90NzGaDdfo3TI/Ka6OECQytzvM47cPJTJVgAZhBegSKj5ZqRL0kyNtwSPUyAZxawRY\ns2B6ZFZhECeBvu/VQWIPj1lVFFzo1BpO+x/bdm+dZK2T8WedvHzp1NQdf2DzD7ndMtDJAAAA\n'
p2532
sg16
g119
sg18
I448
ssg1451
F0.17000000000000001
sg110
I0
sg1452
I0
ssg16
g137
sg18
I447
sssg1453
(dp2533
g15
S'H4sIAI/mm0YC/53OsQrCMBQF0P3+SLIY0lbBQXDOksGsgjRpCoJNQ/oC5u99VL/A4Q6Pe7i8kOqS\nmwpriWqpL3qOpYwNjxLDmjYqNRByBxl2hzR9+9xDGg1ywgvQLQ98sjI96CcnajkiHyGdmM8CrFkw\nPTEb4MRFwFprDh328Jg3WnNxf2v9X2Z95W+8+gDYoI1C1QAAAA==\n'
p2534
sg16
g119
sg18
I450
ssg1166
I00
sg1456
g1457
sg1458
I00
ssg16
g137
sg18
I429
ssssg16
g137
sg18
I381
ssasg16
g317
sg18
I379
ssg2175
I0
ssg16
g137
sg18
I378
ssa(dp2535
g2
(lp2536
((g4
g5
tI-1
tp2537
a((g27
g5
tI-1
tp2538
a((g29
g30
tI-1
tp2539
a((g32
g33
tI0
tp2540
a((g35
g36
tI0
tp2541
a((g1042
g1043
tI0
tp2542
a((g1045
g1046
tI0
tp2543
a((g1048
g1049
tI0
tp2544
asg12
g1048
sg13
(dp2545
g15
Nsg16
g45
sg18
I1
ssg16
g19
sg18
I455
sg20
g1049
sg15
(dp2546
g15
(dp2547
g48
S''
sg1054
(dp2548
g2
(lp2549
((g1057
g1058
tI-1
tp2550
asg12
g1057
sg13
(dp2551
g15
Nsg16
g45
sg18
I1
ssg16
g19
sg18
I531
sg20
g1058
sg15
(dp2552
g15
(dp2553
g1063
S'strike-slip-fault.vtk'
p2554
sg1065
S'/home/luis/benchmarks/strike-slip-fault.vtk'
p2555
ssg16
g137
sg18
I532
sssg138
S''
sg1067
I0
sg1068
(dp2556
g2
(lp2557
((g4
g5
tI-1
tp2558
a((g7
g5
tI-1
tp2559
a((g72
g73
tI-1
tp2560
a((g75
g76
tI-1
tp2561
a((g78
g79
tI-1
tp2562
a((g81
g82
tI-1
tp2563
a((g1077
g1078
tI-1
tp2564
a((g1080
g1081
tI-1
tp2565
asg12
g1080
sg13
(dp2566
g15
Nsg16
g45
sg18
I8
ssg16
g19
sg18
I529
sg20
g1081
sg15
(dp2567
g15
(dp2568
g1086
I0
sg1087
S'/home/luis/benchmarks/strike-slip-fault.vtk'
p2569
sg1089
I0
sg1090
I0
sg105
I0
sg1091
I0
sg1092
I0
sg1093
I0
sg1094
I0
sg113
I0
sg1095
I0
sg114
I0
sg115
F1
sg121
I0
sg1096
I0
sg110
I0
sg1097
I0
sg1098
I0
sg1099
I0
sg1100
I0
sg124
I0
sg1101
I0
sg1102
I0
sg1103
I0
sg131
I0
ssg16
g137
sg18
I530
sssg1104
I0
sg1032
(dp2570
g15
(lp2571
(dp2572
g2
(lp2573
((g4
g5
tI-1
tp2574
a((g27
g5
tI-1
tp2575
a((g29
g30
tI-1
tp2576
a((g32
g33
tI0
tp2577
a((g1113
g1114
tI0
tp2578
asg12
g1113
sg13
(dp2579
g15
Nsg16
g45
sg18
I1
ssg16
g19
sg18
I458
sg20
g1114
sg15
(dp2580
g15
(dp2581
g48
S''
sg1119
g1120
sg1032
(dp2582
g15
(lp2583
(dp2584
g2
(lp2585
((g4
g5
tI-1
tp2586
a((g27
g5
tI-1
tp2587
a((g29
g30
tI-1
tp2588
a((g32
g33
tI0
tp2589
a((g35
g36
tI0
tp2590
a((g38
g39
tI0
tp2591
a((g1622
g1623
tI0
tp2592
asg12
g1622
sg13
(dp2593
g15
Nsg16
g45
sg18
I1
ssg16
g19
sg18
I461
sg20
g1623
sg15
(dp2594
g15
(dp2595
g138
S''
sg1628
I00
sg48
S''
sg50
(dp2596
g2
(lp2597
((g4
g5
tI-1
tp2598
a((g27
g5
tI-1
tp2599
a((g29
g30
tI-1
tp2600
a((g32
g33
tI0
tp2601
a((g35
g36
tI0
tp2602
a((g58
g59
tI0
tp2603
a((g61
g62
tI0
tp2604
asg12
g61
sg13
(dp2605
g15
Nsg16
g45
sg18
I1
ssg16
g19
sg18
I463
sg20
g62
sg15
(dp2606
g15
(dp2607
g67
(dp2608
g2
(lp2609
((g4
g5
tI-1
tp2610
a((g7
g5
tI-1
tp2611
a((g72
g73
tI-1
tp2612
a((g75
g76
tI-1
tp2613
a((g78
g79
tI-1
tp2614
a((g81
g82
tI-1
tp2615
a((g84
g85
tI-1
tp2616
a((g87
g88
tI-1
tp2617
a((g90
g91
tI-1
tp2618
a((g1652
g1653
tI-1
tp2619
asg12
g1652
sg13
(dp2620
g15
Nsg16
g45
sg18
I8
ssg16
g19
sg18
I465
sg20
g1653
sg15
(dp2621
g15
(dp2622
g100
I0
sg101
I0
sg102
g103
sg104
I0
sg126
I0
sg106
F0.01
sg108
g103
sg109
I0
sg110
I0
sg111
I0
sg112
I1
sg113
I0
sg114
I0
sg115
F1
sg116
(dp2623
g15
S'H4sIAI/mm0YC/53OsQrCMBQF0P3+SLIY0lbBQXDOksGsgjRpCoJNQ/oC5u99VL/A4Q6Pe7i8kOqS\nmwpriWqpL3qOpYwNjxLDmjYqNRByBxl2hzR9+9xDGg1ywgvQLQ98sjI96CcnajkiHyGdmM8CrFkw\nPTEb4MRFwFprDh328Jg3WnNxf2v9X2Z95W+8+gDYoI1C1QAAAA==\n'
p2624
sg16
g119
sg18
I467
ssg120
I1
sg121
I0
sg122
I0
sg123
I1
sg124
I0
sg125
I1
sg105
I0
sg128
I0
sg134
g135
sg131
I0
sg127
I0
sg130
g103
sg136
F0
ssg16
g137
sg18
I466
sssg138
S''
sg139
(dp2625
g2
(lp2626
((g4
g5
tI-1
tp2627
a((g7
g5
tI-1
tp2628
a((g72
g73
tI-1
tp2629
a((g75
g76
tI-1
tp2630
a((g78
g79
tI-1
tp2631
a((g147
g148
tI-1
tp2632
a((g150
g151
tI-1
tp2633
asg12
g150
sg13
(dp2634
g15
Nsg16
g45
sg18
I8
ssg16
g19
sg18
I474
sg20
g151
sg15
(dp2635
g15
(dp2636
g156
(dp2637
g15
Nsg16
g45
sg18
I19
ssg158
I0
sg159
F1
sg160
(dp2638
g15
Nsg16
g45
sg18
I19
ssg163
F0
sg164
I0
sg165
g166
sg167
F1
sg168
I0
sg169
F1
sg174
(dp2639
g15
Nsg16
g45
sg18
I19
ssg171
(dp2640
g15
Nsg16
g45
sg18
I19
ssg121
I0
sg173
I0
sg176
F1
sg170
I0
sg105
I0
sg178
F0
sg179
I0
sg181
I65535
sg110
I0
sg182
g183
sg184
I1
sg177
F2
ssg16
g137
sg18
I475
sssg48
S''
sg50
(dp2641
g2
(lp2642
((g4
g5
tI-1
tp2643
a((g7
g5
tI-1
tp2644
a((g72
g73
tI-1
tp2645
a((g75
g76
tI-1
tp2646
a((g78
g79
tI-1
tp2647
a((g192
g193
tI-1
tp2648
a((g195
g196
tI-1
tp2649
a((g61
g198
tI-1
tp2650
asg12
g61
sg13
(dp2651
g15
Nsg16
g45
sg18
I8
ssg16
g19
sg18
I468
sg20
g198
sg15
(dp2652
g15
(dp2653
g203
(dp2654
g15
S'H4sIAI/mm0YC/7XOMQoCMRAF0P5fJGkMWVfBwguk2cK0gmyyEQQ3O8QJmNs7RK9g8YvhPz4Tc12p\nmbiVZNb65MdcytxwKylu+cWlRgYN0LE75OXb0x7aWbBXQYEvNMopyo3gn1y4UQIdoL26nxREixB6\n7Myrs8I0TW43oEfGgrNWiuvb2n9GHg7mAy0aBDD4AAAA\n'
p2655
sg16
g119
sg18
I470
ssg206
(dp2656
g15
S'H4sIAI/mm0YC/53OMQvCMBAF4P39kWQxpFbBQXDOksGsgjRpCoJtQ3oB8+89oqOTwxuO9/G4sJQ5\nVRXWHNVcnvQYch4q7jmGddkol0BIHWRoDsv46dMe0miQE16Arqnnk5XpQV85Uk0R6QDpxHQSYM2C\n6bExJ84C1lqz69DCY95ozcXtpfXvTPryf8l/evUGx/o6Le8AAAA=\n'
p2657
sg16
g119
sg18
I472
ssg209
(dp2658
g15
S'H4sIAI/mm0YC/53OsQoCMRAE0H5+JGkMOU/hCn8gTQrTCnLJRRC8XIgbMH/vEu0FiymWeQwbUl1z\nU2ErUa31Qfe5lLnhWmLY0pNKDYQ8QIbukJZPn/eQRoOc8AJ0ziOfrMwI+sqFWo7IB0gnbpMAaxZM\nj505cRKw1prdgB4e80ZrLi4vrf/P9NPww169AaZN3yn4AAAA\n'
p2659
sg16
g119
sg18
I471
ssg110
I0
sg212
I1
sg213
I1
sg214
I1
sg215
I1
sg121
I0
sg105
I0
sg216
I1
sg217
(dp2660
g15
S'H4sIAI/mm0YC/7XOMQoCMRAF0P5fJGkMWVfBwguk2cK0gmyyEQQ3O8QJmNs7RK9g8YvhPz4Tc12p\nmbiVZNb65MdcytxwKylu+cWlRgYN0LE75OXb0x7aWbBXQYEvNMopyo3gn1y4UQIdoL26nxREixB6\n7Myrs8I0TW43oEfGgrNWiuvb2n9GHg7mAy0aBDD4AAAA\n'
p2661
sg16
g119
sg18
I473
ssg220
I1
ssg16
g137
sg18
I469
ssssg16
g137
sg18
I464
sssg268
(dp2662
g2
(lp2663
((g4
g5
tI-1
tp2664
a((g27
g5
tI-1
tp2665
a((g29
g30
tI-1
tp2666
a((g32
g33
tI0
tp2667
a((g35
g36
tI0
tp2668
a((g58
g59
tI0
tp2669
a((g277
g278
tI0
tp2670
asg12
g277
sg13
(dp2671
g15
Nsg16
g45
sg18
I1
ssg16
g19
sg18
I476
sg20
g278
sg15
(dp2672
g15
(dp2673
g48
S''
sg283
I01
sg284
(dp2674
g15
Nsg16
g45
sg18
I1
ssg287
I00
sg288
F0
sg138
S''
sg289
(dp2675
g2
(lp2676
((g4
g5
tI-1
tp2677
a((g7
g5
tI-1
tp2678
a((g72
g73
tI-1
tp2679
a((g75
g76
tI-1
tp2680
a((g78
g79
tI-1
tp2681
a((g81
g82
tI-1
tp2682
a((g245
g246
tI-1
tp2683
a((g299
g300
tI-1
tp2684
asg12
g299
sg13
(dp2685
g15
Nsg16
g45
sg18
I8
ssg16
g19
sg18
I478
sg20
g300
sg15
(dp2686
g15
(dp2687
g305
I0
sg121
I0
sg306
I0
sg307
I1
sg308
I0
sg124
I0
sg309
I1
sg49
I1
sg310
I1
sg311
I0
sg312
I0
sg113
I0
sg105
I0
sg114
I0
sg131
I0
sg115
F0
sg313
I1
sg110
I0
ssg16
g137
sg18
I479
sssg314
(dp2688
g15
(lp2689
sg16
g317
sg18
I480
ssg318
(dp2690
g2
(lp2691
((g4
g5
tI-1
tp2692
a((g7
g5
tI-1
tp2693
a((g72
g73
tI-1
tp2694
a((g75
g76
tI-1
tp2695
a((g78
g79
tI-1
tp2696
a((g81
g82
tI-1
tp2697
a((g245
g246
tI-1
tp2698
a((g328
g329
tI-1
tp2699
asg12
g328
sg13
(dp2700
g15
Nsg16
g45
sg18
I8
ssg16
g19
sg18
I481
sg20
g329
sg15
(dp2701
g15
(dp2702
g105
I0
sg334
I1
sg124
I0
sg335
I1
sg102
g336
sg337
I0
sg110
I0
sg121
I0
sg113
I0
sg338
I1
sg114
I0
sg131
I0
sg115
F0
sg313
I1
sg339
I0
ssg16
g137
sg18
I482
sssg340
I01
sg313
I10
sg341
F0
ssg16
g137
sg18
I477
ssssg16
g137
sg18
I462
ssasg16
g317
sg18
I460
ssg138
S''
sg1308
(dp2703
g2
(lp2704
((g4
g5
tI-1
tp2705
a((g27
g5
tI-1
tp2706
a((g29
g30
tI-1
tp2707
a((g32
g33
tI0
tp2708
a((g1315
g1316
tI0
tp2709
asg12
g1315
sg13
(dp2710
g15
Nsg16
g45
sg18
I1
ssg16
g19
sg18
I483
sg20
g1316
sg15
(dp2711
g15
(dp2712
g1321
(dp2713
g15
S'H4sIAI/mm0YC/53OsQrCMBQF0P3+SLIY0lbBQXDOksGsgjRpCoJNQ/oC5u99VL/A4Q6Pe7i8kOqS\nmwpriWqpL3qOpYwNjxLDmjYqNRByBxl2hzR9+9xDGg1ywgvQLQ98sjI96CcnajkiHyGdmM8CrFkw\nPTEb4MRFwFprDh328Jg3WnNxf2v9X2Z95W+8+gDYoI1C1QAAAA==\n'
p2714
sg16
g119
sg18
I490
ssg1324
I01
sg1325
(dp2715
g2
(lp2716
((g4
g5
tI-1
tp2717
a((g7
g5
tI-1
tp2718
a((g72
g73
tI-1
tp2719
a((g75
g76
tI-1
tp2720
a((g78
g79
tI-1
tp2721
a((g1333
g1334
tI-1
tp2722
a((g1336
g1337
tI-1
tp2723
asg12
g1336
sg13
(dp2724
g15
Nsg16
g45
sg18
I8
ssg16
g19
sg18
I491
sg20
g1337
sg15
(dp2725
g15
(dp2726
g1342
I2
sg206
g1343
sg1344
(dp2727
g15
S'H4sIAI/mm0YC/33OMQvCMBAF4P39kWQxpK2Cg+CcJYNZBWnSFASbhngB8+89qqM4vOF4H48LqS65\nqbCWqJb6oPtYythwKzGs6UmlBkLuIMPmkKZPn3tIo0FOeAG65IFPVqYHfeVELUfkPaQT81GANQum\nB2YDnDgJWGvNrsMWHvNGay6uL61/Z9bnvyW/4tUbw9sFJ9IAAAA=\n'
p2728
sg16
g119
sg18
I493
ssg1347
(dp2729
g15
S'H4sIAI/mm0YC/53OsQrCMBQF0P3+SLIY0lbBQXDOksGsgjRpCoJNQ/oC5u99VL/A4Q6Pe7i8kOqS\nmwpriWqpL3qOpYwNjxLDmjYqNRByBxl2hzR9+9xDGg1ywgvQLQ98sjI96CcnajkiHyGdmM8CrFkw\nPTEb4MRFwFprDh328Jg3WnNxf2v9X2Z95W+8+gDYoI1C1QAAAA==\n'
p2730
sg16
g119
sg18
I495
ssg1350
(dp2731
g15
S'H4sIAI/mm0YC/33OMQvCMBAF4P39kXSxpK3FCopzEDpY3ALSpBEKNg3xCum/96jODm94vI/jrF+m\nsOZ2ji6flheNfYz9ikd0dvZvioslhAKZ3Rz88N1DiUxJUCeMAN1CxZWVKkE/OdAaHMIeWSeejQBr\nFkxrZhU6cRJo21btCmzhY0ZJycNVJ9voJA9nnY7mrpOrL1zlv/ATJv8A/YiyW8wAAAA=\n'
p2732
sg16
g119
sg18
I494
ssg1353
I256
sg1354
g1355
sg105
I0
sg1356
I256
sg1357
(dp2733
g15
S'H4sIAI/mm0YC/33OMQvCMBAF4P39kWQxpK2Cg+CcJYNZBWnSFASbhngB8+89qqM4vOF4H48LqS65\nqbCWqJb6oPtYythwKzGs6UmlBkLuIMPmkKZPn3tIo0FOeAG65IFPVqYHfeVELUfkPaQT81GANQum\nB2YDnDgJWGvNrsMWHvNGay6uL61/Z9bnvyW/4tUbw9sFJ9IAAAA=\n'
p2734
sg16
g119
sg18
I496
ssg1360
I0
sg1361
(dp2735
g15
S'H4sIAI/mm0YC/33OMQvCMBAF4P39kWQxpK2Cg+CcJYNZBWnSFASbhngB8+89qqM4vOF4H48LqS65\nqbCWqJb6oPtYythwKzGs6UmlBkLuIMPmkKZPn3tIo0FOeAG65IFPVqYHfeVELUfkPaQT81GANQum\nB2YDnDgJWGvNrsMWHvNGay6uL61/Z9bnvyW/4tUbw9sFJ9IAAAA=\n'
p2736
sg16
g119
sg18
I497
ssg110
I0
sg1364
F1
sg1365
g1366
sg121
I0
ssg16
g137
sg18
I492
sssg1367
(dp2737
g2
(lp2738
((g4
g5
tI-1
tp2739
a((g7
g5
tI-1
tp2740
a((g72
g73
tI-1
tp2741
a((g75
g76
tI-1
tp2742
a((g78
g79
tI-1
tp2743
a((g1145
g1146
tI-1
tp2744
asg12
g1145
sg13
(dp2745
g15
Nsg16
g45
sg18
I8
ssg16
g19
sg18
I485
sg20
g1146
sg15
(dp2746
g15
(dp2747
g167
F1
sg1151
g1152
sg1153
I12
sg209
F0
sg1154
F0
sg1155
I1
sg1156
g1379
sg1158
I0
sg105
I0
sg1159
F1.1000000000000001
sg785
(dp2748
g15
Nsg16
g45
sg18
I19
ssg1161
I1
sg1162
(dp2749
g15
S'H4sIAI/mm0YC/03NsQrDIBDG8f17EV0qmqRbX8DFoa6FEo2BQJOIPaG+fY+00A7/4bgfd3Gra24q\n7iWptT5oGUsZG+4lxX17UqmRkA1kPBy26bPPHaTVIC+CAF1zzyMr24G+cqKWE/IA6cUyCLBmwfTM\nrIcXFwHnnD0ZHPGxYLXmxe2lDad/zfN//DCoN80p7hW4AAAA\n'
p2750
sg16
g119
sg18
I487
ssg110
I0
sg1165
I1
sg1166
I0
sg1168
g1169
sg121
I0
sg1170
I1
ssg16
g137
sg18
I486
sssg1383
(dp2751
g2
(lp2752
((g4
g5
tI-1
tp2753
a((g7
g5
tI-1
tp2754
a((g72
g73
tI-1
tp2755
a((g75
g76
tI-1
tp2756
a((g78
g79
tI-1
tp2757
a((g1145
g1146
tI-1
tp2758
asg12
g1145
sg13
(dp2759
g15
Nsg16
g45
sg18
I8
ssg16
g19
sg18
I498
sg20
g1146
sg15
(dp2760
g15
(dp2761
g167
F1
sg1151
g1152
sg1153
I12
sg209
F0
sg1154
F0
sg1155
I1
sg1156
g1379
sg1158
I0
sg105
I0
sg1159
F1.1000000000000001
sg785
(dp2762
g15
Nsg16
g45
sg18
I19
ssg1161
I1
sg1162
(dp2763
g15
S'H4sIAI/mm0YC/03NsQrDIBDG8f17EV0qmqRbX8DFoa6FEo2BQJOIPaG+fY+00A7/4bgfd3Gra24q\n7iWptT5oGUsZG+4lxX17UqmRkA1kPBy26bPPHaTVIC+CAF1zzyMr24G+cqKWE/IA6cUyCLBmwfTM\nrIcXFwHnnD0ZHPGxYLXmxe2lDad/zfN//DCoN80p7hW4AAAA\n'
p2764
sg16
g119
sg18
I500
ssg110
I0
sg1165
I1
sg1166
I0
sg1168
g1169
sg121
I0
sg1170
I1
ssg16
g137
sg18
I499
sssg1398
(dp2765
g2
(lp2766
((g4
g5
tI-1
tp2767
a((g7
g5
tI-1
tp2768
a((g72
g73
tI-1
tp2769
a((g75
g76
tI-1
tp2770
a((g78
g79
tI-1
tp2771
a((g743
g744
tI-1
tp2772
a((g1407
g1408
tI-1
tp2773
asg12
g1407
sg13
(dp2774
g15
Nsg16
g45
sg18
I8
ssg16
g19
sg18
I488
sg20
g1408
sg15
(dp2775
g15
(dp2776
g752
S'i'
sg753
I0
sg105
I0
sg754
F0.55000001192092896
sg121
I0
sg755
I0
sg756
I0
sg110
I0
sg757
I0
ssg16
g137
sg18
I489
sssg1087
S''
sg1413
g2418
sg1415
(dp2777
g15
Nsg16
g45
sg18
I490
ssg48
S''
sg1356
I256
sg1417
g2418
sg138
S''
sg1419
I01
sg1420
I8
sg1421
I00
sg1422
(dp2778
g2
(lp2779
((g4
g5
tI-1
tp2780
a((g7
g5
tI-1
tp2781
a((g72
g73
tI-1
tp2782
a((g75
g76
tI-1
tp2783
a((g78
g79
tI-1
tp2784
a((g192
g193
tI-1
tp2785
a((g1431
g1432
tI-1
tp2786
a((g1434
g1435
tI-1
tp2787
asg12
g1434
sg13
(dp2788
g15
Nsg16
g45
sg18
I8
ssg16
g19
sg18
I501
sg20
g1435
sg15
(dp2789
g15
(dp2790
g105
I0
sg220
I1
sg209
g1440
sg1441
F0.80000000000000004
sg1442
S'%-#6.3g'
p2791
sg1420
I8
sg212
I1
sg213
I1
sg214
I1
sg215
I1
sg121
I0
sg1444
I256
sg1445
I0
sg1446
(dp2792
g15
S'H4sIAI/mm0YC/2XOMQuDMBAF4P39kWSpaGxAoeCcxaGugaIxQqFqSC8Q/30P263DGx7v4zi3pTUc\nhdujL9b0oucY43jgEb3btzfF5AihgnSnwzZ/96AgTQkaxCRA91BzZWUU6CdnOoJHuEIOYmkEWLNg\nqpnVGMRNoO97c6lwho9Npix5sLkdOe1/fNvZ7GqbFy2ttblZuCqO7viLqfgAbt3QTs0AAAA=\n'
p2793
sg16
g119
sg18
I504
ssg216
I1
sg217
(dp2794
g15
S'H4sIAI/mm0YC/2XOMQuDMBAF4P39kbhUjFpQKDiWLA51DZQkplCoGtITYvvne9huHd5wvI/HuXmd\nwpa7Jfp8Wh90NzGaDdfo3TI/Ka6OECQytzvM47cPJTJVgAZhBegSKj5ZqRL0kyNtwSPUyAZxawRY\ns2B6ZFZhECeBvu/VQWIPj1lVFFzo1BpO+x/bdm+dZK2T8WedvHzp1NQdf2DzD7ndMtDJAAAA\n'
p2795
sg16
g119
sg18
I503
ssg1451
F0.17000000000000001
sg110
I0
sg1452
I0
ssg16
g137
sg18
I502
sssg1453
(dp2796
g15
S'H4sIAI/mm0YC/53OsQrCMBQF0P3+SLIY0lbBQXDOksGsgjRpCoJNQ/oC5u99VL/A4Q6Pe7i8kOqS\nmwpriWqpL3qOpYwNjxLDmjYqNRByBxl2hzR9+9xDGg1ywgvQLQ98sjI96CcnajkiHyGdmM8CrFkw\nPTEb4MRFwFprDh328Jg3WnNxf2v9X2Z95W+8+gDYoI1C1QAAAA==\n'
p2797
sg16
g119
sg18
I505
ssg1166
I00
sg1456
g1457
sg1458
I00
ssg16
g137
sg18
I484
sssg1459
(dp2798
g2
(lp2799
((g4
g5
tI-1
tp2800
a((g27
g5
tI-1
tp2801
a((g29
g30
tI-1
tp2802
a((g32
g33
tI0
tp2803
a((g1315
g1316
tI0
tp2804
asg12
g1315
sg13
(dp2805
g15
Nsg16
g45
sg18
I1
ssg16
g19
sg18
I506
sg20
g1316
sg15
(dp2806
g15
(dp2807
g1321
(dp2808
g15
S'H4sIAI/mm0YC/53OsQrCMBQF0P3+SLIY0lbBQXDOksGsgjRpCoJNQ/oC5u99VL/A4Q6Pe7i8kOqS\nmwpriWqpL3qOpYwNjxLDmjYqNRByBxl2hzR9+9xDGg1ywgvQLQ98sjI96CcnajkiHyGdmM8CrFkw\nPTEb4MRFwFprDh328Jg3WnNxf2v9X2Z95W+8+gDYoI1C1QAAAA==\n'
p2809
sg16
g119
sg18
I513
ssg1324
I01
sg1325
(dp2810
g2
(lp2811
((g4
g5
tI-1
tp2812
a((g7
g5
tI-1
tp2813
a((g72
g73
tI-1
tp2814
a((g75
g76
tI-1
tp2815
a((g78
g79
tI-1
tp2816
a((g1333
g1334
tI-1
tp2817
a((g1336
g1337
tI-1
tp2818
asg12
g1336
sg13
(dp2819
g15
Nsg16
g45
sg18
I8
ssg16
g19
sg18
I514
sg20
g1337
sg15
(dp2820
g15
(dp2821
g1342
I2
sg206
g1343
sg1344
(dp2822
g15
S'H4sIAI/mm0YC/33OMQvCMBAF4P39kWQxpK2Cg+CcJYNZBWnSFASbhngB8+89qqM4vOF4H48LqS65\nqbCWqJb6oPtYythwKzGs6UmlBkLuIMPmkKZPn3tIo0FOeAG65IFPVqYHfeVELUfkPaQT81GANQum\nB2YDnDgJWGvNrsMWHvNGay6uL61/Z9bnvyW/4tUbw9sFJ9IAAAA=\n'
p2823
sg16
g119
sg18
I516
ssg1347
(dp2824
g15
S'H4sIAI/mm0YC/53OsQrCMBQF0P3+SLIY0lbBQXDOksGsgjRpCoJNQ/oC5u99VL/A4Q6Pe7i8kOqS\nmwpriWqpL3qOpYwNjxLDmjYqNRByBxl2hzR9+9xDGg1ywgvQLQ98sjI96CcnajkiHyGdmM8CrFkw\nPTEb4MRFwFprDh328Jg3WnNxf2v9X2Z95W+8+gDYoI1C1QAAAA==\n'
p2825
sg16
g119
sg18
I518
ssg1350
(dp2826
g15
S'H4sIAI/mm0YC/33OMQvCMBAF4P39kXSxpK3FCopzEDpY3ALSpBEKNg3xCum/96jODm94vI/jrF+m\nsOZ2ji6flheNfYz9ikd0dvZvioslhAKZ3Rz88N1DiUxJUCeMAN1CxZWVKkE/OdAaHMIeWSeejQBr\nFkxrZhU6cRJo21btCmzhY0ZJycNVJ9voJA9nnY7mrpOrL1zlv/ATJv8A/YiyW8wAAAA=\n'
p2827
sg16
g119
sg18
I517
ssg1353
I256
sg1354
g1355
sg105
I0
sg1356
I256
sg1357
(dp2828
g15
S'H4sIAI/mm0YC/33OMQvCMBAF4P39kWQxpK2Cg+CcJYNZBWnSFASbhngB8+89qqM4vOF4H48LqS65\nqbCWqJb6oPtYythwKzGs6UmlBkLuIMPmkKZPn3tIo0FOeAG65IFPVqYHfeVELUfkPaQT81GANQum\nB2YDnDgJWGvNrsMWHvNGay6uL61/Z9bnvyW/4tUbw9sFJ9IAAAA=\n'
p2829
sg16
g119
sg18
I519
ssg1360
I0
sg1361
(dp2830
g15
S'H4sIAI/mm0YC/33OMQvCMBAF4P39kWQxpK2Cg+CcJYNZBWnSFASbhngB8+89qqM4vOF4H48LqS65\nqbCWqJb6oPtYythwKzGs6UmlBkLuIMPmkKZPn3tIo0FOeAG65IFPVqYHfeVELUfkPaQT81GANQum\nB2YDnDgJWGvNrsMWHvNGay6uL61/Z9bnvyW/4tUbw9sFJ9IAAAA=\n'
p2831
sg16
g119
sg18
I520
ssg110
I0
sg1364
F1
sg1365
g1366
sg121
I0
ssg16
g137
sg18
I515
sssg1367
(dp2832
g2
(lp2833
((g4
g5
tI-1
tp2834
a((g7
g5
tI-1
tp2835
a((g72
g73
tI-1
tp2836
a((g75
g76
tI-1
tp2837
a((g78
g79
tI-1
tp2838
a((g1145
g1146
tI-1
tp2839
asg12
g1145
sg13
(dp2840
g15
Nsg16
g45
sg18
I8
ssg16
g19
sg18
I508
sg20
g1146
sg15
(dp2841
g15
(dp2842
g167
F1
sg1151
g1152
sg1153
I12
sg209
F0
sg1154
F0
sg1155
I1
sg1156
g1379
sg1158
I0
sg105
I0
sg1159
F1.1000000000000001
sg785
(dp2843
g15
Nsg16
g45
sg18
I19
ssg1161
I1
sg1162
(dp2844
g15
S'H4sIAI/mm0YC/03NsQrDIBDG8f17EV0qmqRbX8DFoa6FEo2BQJOIPaG+fY+00A7/4bgfd3Gra24q\n7iWptT5oGUsZG+4lxX17UqmRkA1kPBy26bPPHaTVIC+CAF1zzyMr24G+cqKWE/IA6cUyCLBmwfTM\nrIcXFwHnnD0ZHPGxYLXmxe2lDad/zfN//DCoN80p7hW4AAAA\n'
p2845
sg16
g119
sg18
I510
ssg110
I0
sg1165
I1
sg1166
I0
sg1168
g1169
sg121
I0
sg1170
I1
ssg16
g137
sg18
I509
sssg1383
(dp2846
g2
(lp2847
((g4
g5
tI-1
tp2848
a((g7
g5
tI-1
tp2849
a((g72
g73
tI-1
tp2850
a((g75
g76
tI-1
tp2851
a((g78
g79
tI-1
tp2852
a((g1145
g1146
tI-1
tp2853
asg12
g1145
sg13
(dp2854
g15
Nsg16
g45
sg18
I8
ssg16
g19
sg18
I521
sg20
g1146
sg15
(dp2855
g15
(dp2856
g167
F1
sg1151
g1152
sg1153
I12
sg209
F0
sg1154
F0
sg1155
I1
sg1156
g1379
sg1158
I0
sg105
I0
sg1159
F1.1000000000000001
sg785
(dp2857
g15
Nsg16
g45
sg18
I19
ssg1161
I1
sg1162
(dp2858
g15
S'H4sIAI/mm0YC/03NsQrDIBDG8f17EV0qmqRbX8DFoa6FEo2BQJOIPaG+fY+00A7/4bgfd3Gra24q\n7iWptT5oGUsZG+4lxX17UqmRkA1kPBy26bPPHaTVIC+CAF1zzyMr24G+cqKWE/IA6cUyCLBmwfTM\nrIcXFwHnnD0ZHPGxYLXmxe2lDad/zfN//DCoN80p7hW4AAAA\n'
p2859
sg16
g119
sg18
I523
ssg110
I0
sg1165
I1
sg1166
I0
sg1168
g1169
sg121
I0
sg1170
I1
ssg16
g137
sg18
I522
sssg1398
(dp2860
g2
(lp2861
((g4
g5
tI-1
tp2862
a((g7
g5
tI-1
tp2863
a((g72
g73
tI-1
tp2864
a((g75
g76
tI-1
tp2865
a((g78
g79
tI-1
tp2866
a((g743
g744
tI-1
tp2867
a((g1407
g1408
tI-1
tp2868
asg12
g1407
sg13
(dp2869
g15
Nsg16
g45
sg18
I8
ssg16
g19
sg18
I511
sg20
g1408
sg15
(dp2870
g15
(dp2871
g752
S'i'
sg753
I0
sg105
I0
sg754
F0.55000001192092896
sg121
I0
sg755
I0
sg756
I0
sg110
I0
sg757
I0
ssg16
g137
sg18
I512
sssg1087
S''
sg1413
g1534
sg1415
(dp2872
g15
Nsg16
g45
sg18
I513
ssg48
S''
sg1356
I256
sg1417
g1534
sg138
S''
sg1419
I01
sg1420
I8
sg1421
I00
sg1422
(dp2873
g2
(lp2874
((g4
g5
tI-1
tp2875
a((g7
g5
tI-1
tp2876
a((g72
g73
tI-1
tp2877
a((g75
g76
tI-1
tp2878
a((g78
g79
tI-1
tp2879
a((g192
g193
tI-1
tp2880
a((g1431
g1432
tI-1
tp2881
a((g1434
g1435
tI-1
tp2882
asg12
g1434
sg13
(dp2883
g15
Nsg16
g45
sg18
I8
ssg16
g19
sg18
I524
sg20
g1435
sg15
(dp2884
g15
(dp2885
g105
I0
sg220
I1
sg209
g1440
sg1441
F0.80000000000000004
sg1442
S'%-#6.3g'
p2886
sg1420
I8
sg212
I1
sg213
I1
sg214
I1
sg215
I1
sg121
I0
sg1444
I256
sg1445
I0
sg1446
(dp2887
g15
S'H4sIAI/mm0YC/2XOMQuDMBAF4P39kWSpaGxAoeCcxaGugaIxQqFqSC8Q/30P263DGx7v4zi3pTUc\nhdujL9b0oucY43jgEb3btzfF5AihgnSnwzZ/96AgTQkaxCRA91BzZWUU6CdnOoJHuEIOYmkEWLNg\nqpnVGMRNoO97c6lwho9Npix5sLkdOe1/fNvZ7GqbFy2ttblZuCqO7viLqfgAbt3QTs0AAAA=\n'
p2888
sg16
g119
sg18
I527
ssg216
I1
sg217
(dp2889
g15
S'H4sIAI/mm0YC/2XOMQuDMBAF4P39kbhUjFpQKDiWLA51DZQkplCoGtITYvvne9huHd5wvI/HuXmd\nwpa7Jfp8Wh90NzGaDdfo3TI/Ka6OECQytzvM47cPJTJVgAZhBegSKj5ZqRL0kyNtwSPUyAZxawRY\ns2B6ZFZhECeBvu/VQWIPj1lVFFzo1BpO+x/bdm+dZK2T8WedvHzp1NQdf2DzD7ndMtDJAAAA\n'
p2890
sg16
g119
sg18
I526
ssg1451
F0.17000000000000001
sg110
I0
sg1452
I0
ssg16
g137
sg18
I525
sssg1453
(dp2891
g15
S'H4sIAI/mm0YC/53OsQrCMBQF0P3+SLIY0lbBQXDOksGsgjRpCoJNQ/oC5u99VL/A4Q6Pe7i8kOqS\nmwpriWqpL3qOpYwNjxLDmjYqNRByBxl2hzR9+9xDGg1ywgvQLQ98sjI96CcnajkiHyGdmM8CrFkw\nPTEb4MRFwFprDh328Jg3WnNxf2v9X2Z95W+8+gDYoI1C1QAAAA==\n'
p2892
sg16
g119
sg18
I528
ssg1166
I00
sg1456
g1457
sg1458
I00
ssg16
g137
sg18
I507
ssssg16
g137
sg18
I459
ssasg16
g317
sg18
I457
ssg2175
I0
ssg16
g137
sg18
I456
ssasg16
g317
sg18
I156
sssg16
g137
sg18
I34
ssasg16
g317
sg18
I32
sssg16
g137
sg18
I2
ss.