(dp1
S'version'
p2
(lp3
((S'HasTraits'
p4
S'enthought.traits.has_traits'
p5
tI-1
tp6
a((S'HasStrictTraits'
p7
g5
tI-1
tp8
a((S'Engine'
p9
S'enthought.mayavi.engine'
p10
tI0
tp11
asS'class_name'
p12
g9
sS'initargs'
p13
(dp14
S'data'
p15
(tsS'type'
p16
S'tuple'
p17
sS'id'
p18
I1
ssg16
S'instance'
p19
sg18
I0
sS'module'
p20
g10
sg15
(dp21
g15
(dp22
S'_current_selection'
p23
(dp24
g2
(lp25
((g4
g5
tI-1
tp26
a((S'HasPrivateTraits'
p27
g5
tI-1
tp28
a((S'TreeNodeObject'
p29
S'enthought.traits.ui.tree_node'
p30
tI-1
tp31
a((S'Base'
p32
S'enthought.mayavi.core.base'
p33
tI0
tp34
a((S'PipelineBase'
p35
S'enthought.mayavi.core.pipeline_base'
p36
tI0
tp37
a((S'Module'
p38
S'enthought.mayavi.core.module'
p39
tI0
tp40
a((S'Surface'
p41
S'enthought.mayavi.modules.surface'
p42
tI0
tp43
asg12
g41
sg13
(dp44
g15
Nsg16
S'reference'
p45
sg18
I1
ssg16
g19
sg18
I3
sg20
g42
sg15
(dp46
g15
(dp47
S'_saved_state'
p48
S''
sS'enable_contours'
p49
I00
sS'name'
p50
S''
sS'actor'
p51
(dp52
g2
(lp53
((g4
g5
tI-1
tp54
a((g27
g5
tI-1
tp55
a((g29
g30
tI-1
tp56
a((g32
g33
tI0
tp57
a((g35
g36
tI0
tp58
a((S'Component'
p59
S'enthought.mayavi.core.component'
p60
tI0
tp61
a((S'Actor'
p62
S'enthought.mayavi.components.actor'
p63
tI0
tp64
asg12
g62
sg13
(dp65
g15
Nsg16
g45
sg18
I1
ssg16
g19
sg18
I5
sg20
g63
sg15
(dp66
g15
(dp67
S'mapper'
p68
(dp69
g2
(lp70
((g4
g5
tI-1
tp71
a((g7
g5
tI-1
tp72
a((S'TVTKBase'
p73
S'enthought.tvtk.tvtk_base'
p74
tI-1
tp75
a((S'ObjectBase'
p76
S'tvtk_classes.object_base'
p77
tI-1
tp78
a((S'Object'
p79
S'tvtk_classes.object'
p80
tI-1
tp81
a((S'Algorithm'
p82
S'tvtk_classes.algorithm'
p83
tI-1
tp84
a((S'AbstractMapper'
p85
S'tvtk_classes.abstract_mapper'
p86
tI-1
tp87
a((S'AbstractMapper3D'
p88
S'tvtk_classes.abstract_mapper3d'
p89
tI-1
tp90
a((S'Mapper'
p91
S'tvtk_classes.mapper'
p92
tI-1
tp93
a((S'DataSetMapper'
p94
S'tvtk_classes.data_set_mapper'
p95
tI-1
tp96
asg12
g94
sg13
(dp97
g15
(NI0
tp98
sg16
g17
sg18
I8
ssg16
g19
sg18
I7
sg20
g95
sg15
(dp99
g15
(dp100
S'immediate_mode_rendering'
p101
I0
sS'immediate_mode_rendering_'
p102
I0
sS'scalar_mode'
p103
S'default'
p104
sS'static'
p105
I0
sS'static_'
p106
I0
sS'resolve_coincident_topology_z_shift'
p107
F0.01
sS'color_mode'
p108
g104
sS'interpolate_scalars_before_mapping'
p109
I0
sS'debug'
p110
I0
sS'resolve_coincident_topology_'
p111
I0
sS'use_lookup_table_scalar_range'
p112
I1
sS'abort_execute'
p113
I0
sS'release_data_flag'
p114
I0
sS'progress'
p115
F1
sS'scalar_range'
p116
(dp117
g15
S'H4sIAFYGnEYC/53OsQrCMBQF0P3+SLIY0lbBQXDOksGsgjRpCoJNQ/oC5u99VL/A4Q6Pe7i8kOqS\nmwpriWqpL3qOpYwNjxLDmjYqNRByBxl2hzR9+9xDGg1ywgvQLQ98sjI96CcnajkiHyGdmM8CrFkw\nPTEb4MRFwFprDh328Jg3WnNxf2v9X2Z95W+8+gDYoI1C1QAAAA==\n'
p118
sg16
S'numeric'
p119
sg18
I10
ssS'use_lookup_table_scalar_range_'
p120
I1
sS'global_warning_display_'
p121
I0
sS'global_immediate_mode_rendering_'
p122
I0
sS'scalar_visibility'
p123
I1
sS'abort_execute_'
p124
I0
sS'scalar_visibility_'
p125
I1
sS'debug_'
p126
I0
sS'interpolate_scalars_before_mapping_'
p127
I0
sS'resolve_coincident_topology'
p128
S'off'
p129
sS'release_data_flag_'
p130
I0
sS'global_immediate_mode_rendering'
p131
I0
sS'scalar_material_mode'
p132
g104
sS'render_time'
p133
F0
ssg16
S'dict'
p134
sg18
I9
sssg48
S''
sS'property'
p135
(dp136
g2
(lp137
((g4
g5
tI-1
tp138
a((g7
g5
tI-1
tp139
a((g73
g74
tI-1
tp140
a((g76
g77
tI-1
tp141
a((g79
g80
tI-1
tp142
a((S'Property'
p143
S'tvtk_classes.property'
p144
tI-1
tp145
a((S'OpenGLProperty'
p146
S'tvtk_classes.open_gl_property'
p147
tI-1
tp148
asg12
g146
sg13
(dp149
g15
Nsg16
g45
sg18
I8
ssg16
g19
sg18
I17
sg20
g147
sg15
(dp150
g15
(dp151
S'diffuse_color'
p152
(dp153
g15
Nsg16
g45
sg18
I19
ssS'backface_culling'
p154
I0
sS'specular_power'
p155
F1
sS'edge_color'
p156
(dp157
g15
(F1
F1
F1
tp158
sg16
g17
sg18
I19
ssS'ambient'
p159
F0
sS'edge_visibility'
p160
I0
sS'interpolation'
p161
S'gouraud'
p162
sS'opacity'
p163
F1
sS'frontface_culling'
p164
I0
sS'point_size'
p165
F1
sS'specular_color'
p166
(dp167
g15
Nsg16
g45
sg18
I19
ssS'ambient_color'
p168
(dp169
g15
Nsg16
g45
sg18
I19
ssg121
I0
sS'backface_culling_'
p170
I0
sS'diffuse'
p171
F1
sS'edge_visibility_'
p172
I0
sg126
I0
sS'specular'
p173
F0
sS'frontface_culling_'
p174
I0
sS'line_stipple_pattern'
p175
I65535
sg110
I0
sS'representation'
p176
S'surface'
p177
sS'line_stipple_repeat_factor'
p178
I1
sS'line_width'
p179
F2
ssg16
g134
sg18
I18
sssg50
S''
sg51
(dp180
g2
(lp181
((g4
g5
tI-1
tp182
a((g7
g5
tI-1
tp183
a((g73
g74
tI-1
tp184
a((g76
g77
tI-1
tp185
a((g79
g80
tI-1
tp186
a((S'Prop'
p187
S'tvtk_classes.prop'
p188
tI-1
tp189
a((S'Prop3D'
p190
S'tvtk_classes.prop3d'
p191
tI-1
tp192
a((g62
S'tvtk_classes.actor'
p193
tI-1
tp194
asg12
g62
sg13
(dp195
g15
Nsg16
g45
sg18
I8
ssg16
g19
sg18
I11
sg20
g193
sg15
(dp196
g15
(dp197
S'origin'
p198
(dp199
g15
S'H4sIAFYGnEYC/7XOMQoCMRAF0P5fJGkMWVfBwguk2cK0gmyyEQQ3O8QJmNs7RK9g8YvhPz4Tc12p\nmbiVZNb65MdcytxwKylu+cWlRgYN0LE75OXb0x7aWbBXQYEvNMopyo3gn1y4UQIdoL26nxREixB6\n7Myrs8I0TW43oEfGgrNWiuvb2n9GHg7mAy0aBDD4AAAA\n'
p200
sg16
g119
sg18
I13
ssS'scale'
p201
(dp202
g15
S'H4sIAFYGnEYC/53OMQvCMBAF4P39kWQxpFbBQXDOksGsgjRpCoJtQ3oB8+89oqOTwxuO9/G4sJQ5\nVRXWHNVcnvQYch4q7jmGddkol0BIHWRoDsv46dMe0miQE16Arqnnk5XpQV85Uk0R6QDpxHQSYM2C\n6bExJ84C1lqz69DCY95ozcXtpfXvTPryf8l/evUGx/o6Le8AAAA=\n'
p203
sg16
g119
sg18
I15
ssS'orientation'
p204
(dp205
g15
S'H4sIAFYGnEYC/53OsQoCMRAE0H5+JGkMOU/hCn8gTQrTCnLJRRC8XIgbMH/vEu0FiymWeQwbUl1z\nU2ErUa31Qfe5lLnhWmLY0pNKDYQ8QIbukJZPn/eQRoOc8AJ0ziOfrMwI+sqFWo7IB0gnbpMAaxZM\nj505cRKw1prdgB4e80ZrLi4vrf/P9NPww169AaZN3yn4AAAA\n'
p206
sg16
g119
sg18
I14
ssg110
I0
sS'dragable'
p207
I1
sS'visibility'
p208
I0
sS'pickable_'
p209
I1
sS'dragable_'
p210
I1
sg121
I0
sg126
I0
sS'visibility_'
p211
I0
sS'position'
p212
(dp213
g15
S'H4sIAFYGnEYC/7XOMQoCMRAF0P5fJGkMWVfBwguk2cK0gmyyEQQ3O8QJmNs7RK9g8YvhPz4Tc12p\nmbiVZNb65MdcytxwKylu+cWlRgYN0LE75OXb0x7aWbBXQYEvNMopyo3gn1y4UQIdoL26nxREixB6\n7Myrs8I0TW43oEfGgrNWiuvb2n9GHg7mAy0aBDD4AAAA\n'
p214
sg16
g119
sg18
I16
ssS'pickable'
p215
I1
ssg16
g134
sg18
I12
ssssg16
g134
sg18
I6
sssS'contour'
p216
(dp217
g2
(lp218
((g4
g5
tI-1
tp219
a((g27
g5
tI-1
tp220
a((g29
g30
tI-1
tp221
a((g32
g33
tI0
tp222
a((g35
g36
tI0
tp223
a((g59
g60
tI0
tp224
a((S'Contour'
p225
S'enthought.mayavi.components.contour'
p226
tI0
tp227
asg12
g225
sg13
(dp228
g15
Nsg16
g45
sg18
I1
ssg16
g19
sg18
I20
sg20
g226
sg15
(dp229
g15
(dp230
g50
S''
sS'auto_contours'
p231
I01
sS'_current_range'
p232
(dp233
g15
Nsg16
g45
sg18
I1
ssS'filled_contours'
p234
I00
sS'minimum_contour'
p235
F0
sg48
S''
sS'_cont_filt'
p236
(dp237
g2
(lp238
((g4
g5
tI-1
tp239
a((g7
g5
tI-1
tp240
a((g73
g74
tI-1
tp241
a((g76
g77
tI-1
tp242
a((g79
g80
tI-1
tp243
a((g82
g83
tI-1
tp244
a((S'PolyDataAlgorithm'
p245
S'tvtk_classes.poly_data_algorithm'
p246
tI-1
tp247
a((S'ContourFilter'
p248
S'tvtk_classes.contour_filter'
p249
tI-1
tp250
asg12
g248
sg13
(dp251
g15
Nsg16
g45
sg18
I8
ssg16
g19
sg18
I22
sg20
g249
sg15
(dp252
g15
(dp253
S'compute_gradients'
p254
I0
sg121
I0
sS'array_component'
p255
I0
sS'compute_normals_'
p256
I1
sS'use_scalar_tree_'
p257
I0
sg124
I0
sS'compute_scalars_'
p258
I1
sS'compute_normals'
p259
I1
sS'compute_scalars'
p260
I1
sS'use_scalar_tree'
p261
I0
sS'compute_gradients_'
p262
I0
sg113
I0
sg126
I0
sg114
I0
sg130
I0
sg115
F0
sS'number_of_contours'
p263
I1
sg110
I0
ssg16
g134
sg18
I23
sssS'contours'
p264
(dp265
g15
(lp266
sg16
S'list'
p267
sg18
I24
ssS'_fill_cont_filt'
p268
(dp269
g2
(lp270
((g4
g5
tI-1
tp271
a((g7
g5
tI-1
tp272
a((g73
g74
tI-1
tp273
a((g76
g77
tI-1
tp274
a((g79
g80
tI-1
tp275
a((g82
g83
tI-1
tp276
a((g245
g246
tI-1
tp277
a((S'BandedPolyDataContourFilter'
p278
S'tvtk_classes.banded_poly_data_contour_filter'
p279
tI-1
tp280
asg12
g278
sg13
(dp281
g15
Nsg16
g45
sg18
I8
ssg16
g19
sg18
I25
sg20
g279
sg15
(dp282
g15
(dp283
g126
I0
sS'clipping'
p284
I1
sg124
I0
sS'clipping_'
p285
I1
sg103
S'value'
p286
sS'generate_contour_edges'
p287
I0
sg110
I0
sg121
I0
sg113
I0
sS'scalar_mode_'
p288
I1
sg114
I0
sg130
I0
sg115
F0
sg263
I1
sS'generate_contour_edges_'
p289
I0
ssg16
g134
sg18
I26
sssS'show_filled_contours'
p290
I01
sg263
I10
sS'maximum_contour'
p291
F0
ssg16
g134
sg18
I21
ssssg16
g134
sg18
I4
sssg50
S'MayaVi Engine'
p292
sS'preference_manager'
p293
(dp294
g2
(lp295
((g4
g5
tI-1
tp296
a((S'PreferenceManager'
p297
S'enthought.mayavi.preference_manager'
p298
tI-1
tp299
asg12
g297
sg13
(dp300
g15
Nsg16
g45
sg18
I1
ssg16
g19
sg18
I493
sg20
g298
sg15
(dp301
g15
(dp302
S'engine'
p303
(dp304
g15
Nsg16
g45
sg18
I0
ssS'preferences'
p305
(dp306
g2
(lp307
((g4
g5
tI-1
tp308
a((S'Preferences'
p309
S'enthought.envisage.core.preferences'
p310
tI-1
tp311
asg12
g309
sg13
(dp312
g15
Nsg16
g45
sg18
I1
ssg16
g19
sg18
I495
sg20
g310
sg15
(dp313
g15
(dp314
S'user'
p315
(dp316
g15
(dp317
sg16
g134
sg18
I497
ssS'defaults'
p318
(dp319
g15
(dp320
S'confirm_delete'
p321
I01
ssg16
g134
sg18
I498
sssg16
g134
sg18
I496
ssssg16
g134
sg18
I494
sssS'scenes'
p322
(dp323
g15
(lp324
(dp325
g2
(lp326
((g4
g5
tI-1
tp327
a((g27
g5
tI-1
tp328
a((g29
g30
tI-1
tp329
a((g32
g33
tI0
tp330
a((S'Scene'
p331
S'enthought.mayavi.core.scene'
p332
tI0
tp333
asg12
g331
sg13
(dp334
g15
Nsg16
g45
sg18
I1
ssg16
g19
sg18
I28
sg20
g332
sg15
(dp335
g15
(dp336
g48
S''
sS'scene'
p337
(dp338
g2
(lp339
((g4
g5
tI-1
tp340
a((g27
g5
tI-1
tp341
a((S'Widget'
p342
S'enthought.pyface.widget'
p343
tI-1
tp344
a((g331
S'enthought.pyface.tvtk.scene'
p345
tI0
tp346
a((S'DecoratedScene'
p347
S'enthought.pyface.tvtk.decorated_scene'
p348
tI0
tp349
asg12
g347
sg13
(dp350
g15
Nsg16
g45
sg18
I1
ssg16
g19
sg18
I30
sg20
g348
sg15
(dp351
g15
(dp352
S'picker'
p353
(dp354
g2
(lp355
((g4
g5
tI-1
tp356
a((S'Picker'
p357
S'enthought.pyface.tvtk.picker'
p358
tI0
tp359
asg12
g357
sg13
(dp360
g15
Nsg16
g45
sg18
I1
ssg16
g19
sg18
I32
sg20
g358
sg15
(dp361
g15
(dp362
S'p_mapper'
p363
(dp364
g2
(lp365
((g4
g5
tI-1
tp366
a((g7
g5
tI-1
tp367
a((g73
g74
tI-1
tp368
a((g76
g77
tI-1
tp369
a((g79
g80
tI-1
tp370
a((g82
g83
tI-1
tp371
a((g85
g86
tI-1
tp372
a((g88
g89
tI-1
tp373
a((g91
g92
tI-1
tp374
a((S'PolyDataMapper'
p375
S'tvtk_classes.poly_data_mapper'
p376
tI-1
tp377
asg12
g375
sg13
(dp378
g15
Nsg16
g45
sg18
I8
ssg16
g19
sg18
I34
sg20
g376
sg15
(dp379
g15
(dp380
g101
I0
sg102
I0
sg103
g104
sg105
I0
sg126
I0
sg107
F0.01
sS'ghost_level'
p381
I0
sg108
g104
sg109
I0
sg110
I0
sg111
I0
sg112
I0
sg113
I0
sg114
I0
sg115
F0
sg116
(dp382
g15
S'H4sIAFYGnEYC/53OsQrCMBQF0P3+SLIY0lbBQXDOksGsgjRpCoJNQ/oC5u99VL/A4Q6Pe7i8kOqS\nmwpriWqpL3qOpYwNjxLDmjYqNRByBxl2hzR9+9xDGg1ywgvQLQ98sjI96CcnajkiHyGdmM8CrFkw\nPTEb4MRFwFprDh328Jg3WnNxf2v9X2Z95W+8+gDYoI1C1QAAAA==\n'
p383
sg16
g119
sg18
I36
ssg120
I0
sg121
I0
sg122
I0
sg123
I1
sg124
I0
sg125
I1
sg106
I0
sg131
I0
sg127
I0
sS'number_of_sub_pieces'
p384
I1
sg132
g104
sg130
I0
sS'piece'
p385
I0
sS'number_of_pieces'
p386
I1
sg128
g129
sg133
F0
ssg16
g134
sg18
I35
sssS'worldpicker'
p387
(dp388
g2
(lp389
((g4
g5
tI-1
tp390
a((g7
g5
tI-1
tp391
a((g73
g74
tI-1
tp392
a((g76
g77
tI-1
tp393
a((g79
g80
tI-1
tp394
a((S'AbstractPicker'
p395
S'tvtk_classes.abstract_picker'
p396
tI-1
tp397
a((S'WorldPointPicker'
p398
S'tvtk_classes.world_point_picker'
p399
tI-1
tp400
asg12
g398
sg13
(dp401
g15
Nsg16
g45
sg18
I8
ssg16
g19
sg18
I37
sg20
g399
sg15
(dp402
g15
(dp403
g110
I0
sg121
I0
sS'pick_from_list_'
p404
I0
sg126
I0
sS'pick_from_list'
p405
I0
ssg16
g134
sg18
I38
sssS'probe_data'
p406
(dp407
g2
(lp408
((g4
g5
tI-1
tp409
a((g7
g5
tI-1
tp410
a((g73
g74
tI-1
tp411
a((g76
g77
tI-1
tp412
a((g79
g80
tI-1
tp413
a((S'DataObject'
p414
S'tvtk_classes.data_object'
p415
tI-1
tp416
a((S'DataSet'
p417
S'tvtk_classes.data_set'
p418
tI-1
tp419
a((S'PointSet'
p420
S'tvtk_classes.point_set'
p421
tI-1
tp422
a((S'PolyData'
p423
S'tvtk_classes.poly_data'
p424
tI-1
tp425
asg12
g423
sg13
(dp426
g15
Nsg16
g45
sg18
I8
ssg16
g19
sg18
I39
sg20
g424
sg15
(dp427
g15
(dp428
S'update_piece'
p429
I0
sS'whole_extent'
p430
(dp431
g15
S'H4sIAFYGnEYC/6XOsQrCMBQF0P3+SLIYUlud/IEsGcwqSJOmULBpSF/B/L2P6tLZ4Q6Pe7i8kLY5\nVxWWEtW8vWjqS+krniWGJa1UtkDIDWTYHdLw7fMZ0miQE16A7rnlk5W5gn5yoJojcgfpxNQJsGbB\n9MKshRM3AWutOTXYw2PeaM3F4631MeN4zH89P+zVB24aZ/74AAAA\n'
p432
sg16
g119
sg18
I41
ssS'update_number_of_pieces'
p433
I1
sg110
I0
sS'update_ghost_level'
p434
I0
sS'global_release_data_flag_'
p435
I0
sg126
I0
sS'update_extent'
p436
(dp437
g15
S'H4sIAFYGnEYC/6XOsQrCMBQF0P3+SLIYUlud/IEsGcwqSJOmULBpSF/B/L2P6tLZ4Q6Pe7i8kLY5\nVxWWEtW8vWjqS+krniWGJa1UtkDIDWTYHdLw7fMZ0miQE16A7rnlk5W5gn5yoJojcgfpxNQJsGbB\n9MKshRM3AWutOTXYw2PeaM3F4631MeN4zH89P+zVB24aZ/74AAAA\n'
p438
sg16
g119
sg18
I42
ssS'request_exact_extent_'
p439
I0
sg121
I0
sg114
I0
sS'global_release_data_flag'
p440
I0
sg130
I0
sS'maximum_number_of_pieces'
p441
I-1
sS'request_exact_extent'
p442
I0
ssg16
g134
sg18
I40
sssS'cellpicker'
p443
(dp444
g2
(lp445
((g4
g5
tI-1
tp446
a((g7
g5
tI-1
tp447
a((g73
g74
tI-1
tp448
a((g76
g77
tI-1
tp449
a((g79
g80
tI-1
tp450
a((g395
g396
tI-1
tp451
a((S'AbstractPropPicker'
p452
S'tvtk_classes.abstract_prop_picker'
p453
tI-1
tp454
a((g357
S'tvtk_classes.picker'
p455
tI-1
tp456
a((S'CellPicker'
p457
S'tvtk_classes.cell_picker'
p458
tI-1
tp459
asg12
g457
sg13
(dp460
g15
Nsg16
g45
sg18
I8
ssg16
g19
sg18
I43
sg20
g458
sg15
(dp461
g15
(dp462
g126
I0
sg405
I0
sg121
I0
sg404
I0
sg110
I0
sS'tolerance'
p463
F0.025000000000000001
ssg16
g134
sg18
I44
sssS'p_actor'
p464
(dp465
g2
(lp466
((g4
g5
tI-1
tp467
a((g7
g5
tI-1
tp468
a((g73
g74
tI-1
tp469
a((g76
g77
tI-1
tp470
a((g79
g80
tI-1
tp471
a((g187
g188
tI-1
tp472
a((g190
g191
tI-1
tp473
a((g62
g193
tI-1
tp474
asg12
g62
sg13
(dp475
g15
Nsg16
g45
sg18
I8
ssg16
g19
sg18
I45
sg20
g193
sg15
(dp476
g15
(dp477
g198
(dp478
g15
S'H4sIAFYGnEYC/7XOMQoCMRAF0P5fJGkMWVfBwguk2cK0gmyyEQQ3O8QJmNs7RK9g8YvhPz4Tc12p\nmbiVZNb65MdcytxwKylu+cWlRgYN0LE75OXb0x7aWbBXQYEvNMopyo3gn1y4UQIdoL26nxREixB6\n7Myrs8I0TW43oEfGgrNWiuvb2n9GHg7mAy0aBDD4AAAA\n'
p479
sg16
g119
sg18
I47
ssg201
(dp480
g15
S'H4sIAFYGnEYC/53OMQvCMBAF4P39kWQxpFbBQXDOksGsgjRpCoJtQ3oB8+89oqOTwxuO9/G4sJQ5\nVRXWHNVcnvQYch4q7jmGddkol0BIHWRoDsv46dMe0miQE16Arqnnk5XpQV85Uk0R6QDpxHQSYM2C\n6bExJ84C1lqz69DCY95ozcXtpfXvTPryf8l/evUGx/o6Le8AAAA=\n'
p481
sg16
g119
sg18
I49
ssg204
(dp482
g15
S'H4sIAFYGnEYC/53OsQoCMRAE0H5+JGkMOU/hCn8gTQrTCnLJRRC8XIgbMH/vEu0FiymWeQwbUl1z\nU2ErUa31Qfe5lLnhWmLY0pNKDYQ8QIbukJZPn/eQRoOc8AJ0ziOfrMwI+sqFWo7IB0gnbpMAaxZM\nj505cRKw1prdgB4e80ZrLi4vrf/P9NPww169AaZN3yn4AAAA\n'
p483
sg16
g119
sg18
I48
ssg110
I0
sg207
I1
sg208
I0
sg209
I0
sg210
I1
sg121
I0
sg126
I0
sg211
I0
sg212
(dp484
g15
S'H4sIAFYGnEYC/7XOMQoCMRAF0P5fJGkMWVfBwguk2cK0gmyyEQQ3O8QJmNs7RK9g8YvhPz4Tc12p\nmbiVZNb65MdcytxwKylu+cWlRgYN0LE75OXb0x7aWbBXQYEvNMopyo3gn1y4UQIdoL26nxREixB6\n7Myrs8I0TW43oEfGgrNWiuvb2n9GHg7mAy0aBDD4AAAA\n'
p485
sg16
g119
sg18
I50
ssg215
I0
ssg16
g134
sg18
I46
sssS'p_source'
p486
(dp487
g2
(lp488
((g4
g5
tI-1
tp489
a((g7
g5
tI-1
tp490
a((g73
g74
tI-1
tp491
a((g76
g77
tI-1
tp492
a((g79
g80
tI-1
tp493
a((g82
g83
tI-1
tp494
a((g245
g246
tI-1
tp495
a((S'Axes'
p496
S'tvtk_classes.axes'
p497
tI-1
tp498
asg12
g496
sg13
(dp499
g15
Nsg16
g45
sg18
I8
ssg16
g19
sg18
I51
sg20
g497
sg15
(dp500
g15
(dp501
g198
(dp502
g15
S'H4sIAFYGnEYC/7XOMQoCMRAF0P5fJGkMWVfBwguk2cK0gmyyEQQ3O8QJmNs7RK9g8YvhPz4Tc12p\nmbiVZNb65MdcytxwKylu+cWlRgYN0LE75OXb0x7aWbBXQYEvNMopyo3gn1y4UQIdoL26nxREixB6\n7Myrs8I0TW43oEfGgrNWiuvb2n9GHg7mAy0aBDD4AAAA\n'
p503
sg16
g119
sg18
I53
ssS'scale_factor'
p504
F1
sg256
I1
sg124
I0
sg259
I1
sg110
I0
sS'symmetric'
p505
I1
sg121
I0
sg113
I0
sg126
I0
sg114
I0
sg130
I0
sg115
F0
sS'symmetric_'
p506
I1
ssg16
g134
sg18
I52
sssS'pick_type'
p507
S'point_picker'
p508
sg463
F0.025000000000000001
sS'pointpicker'
p509
(dp510
g2
(lp511
((g4
g5
tI-1
tp512
a((g7
g5
tI-1
tp513
a((g73
g74
tI-1
tp514
a((g76
g77
tI-1
tp515
a((g79
g80
tI-1
tp516
a((g395
g396
tI-1
tp517
a((g452
g453
tI-1
tp518
a((g357
g455
tI-1
tp519
a((S'PointPicker'
p520
S'tvtk_classes.point_picker'
p521
tI-1
tp522
asg12
g520
sg13
(dp523
g15
Nsg16
g45
sg18
I8
ssg16
g19
sg18
I54
sg20
g521
sg15
(dp524
g15
(dp525
g126
I0
sg405
I0
sg121
I0
sg404
I0
sg110
I0
sg463
F0.025000000000000001
ssg16
g134
sg18
I55
ssssg16
g134
sg18
I33
sssS'foreground'
p526
(dp527
g15
Nsg16
g45
sg18
I19
ssS'stereo'
p528
I00
sS'_renderer'
p529
(dp530
g2
(lp531
((g4
g5
tI-1
tp532
a((g7
g5
tI-1
tp533
a((g73
g74
tI-1
tp534
a((g76
g77
tI-1
tp535
a((g79
g80
tI-1
tp536
a((S'Viewport'
p537
S'tvtk_classes.viewport'
p538
tI-1
tp539
a((S'Renderer'
p540
S'tvtk_classes.renderer'
p541
tI-1
tp542
asg12
g540
sg13
(dp543
g15
Nsg16
g45
sg18
I8
ssg16
g19
sg18
I78
sg20
g541
sg15
(dp544
g15
(dp545
S'layer'
p546
I0
sS'pixel_aspect'
p547
(dp548
g15
S'H4sIAFYGnEYC/33OMQvCMBAF4P39kWQxpK2Cg+CcJYNZBWnSFASbhngB8+89qqM4vOF4H48LqS65\nqbCWqJb6oPtYythwKzGs6UmlBkLuIMPmkKZPn3tIo0FOeAG65IFPVqYHfeVELUfkPaQT81GANQum\nB2YDnDgJWGvNrsMWHvNGay6uL61/Z9bnvyW/4tUbw9sFJ9IAAAA=\n'
p549
sg16
g119
sg18
I80
ssS'two_sided_lighting_'
p550
I1
sS'view_point'
p551
(dp552
g15
S'H4sIAFYGnEYC/y3OwQrCMAwG4HueQ+gujnabWEHYwVNBdnB4C8jWtSC4rdQOsrc3Tg8JCf9HiJ2W\nMay5naPLx+WVnl2M3QqP6Ow8vVNcbIKgILObg2n45aGAzEhIregFpFsoeWVlSkh/OaQ1OAgVZK3w\nWgBrFkwPG2vFWUDTNGavYCs+1hspOUDqCiTprwpJq7tB6j2St0iquvCikYYTktWyluwce73jVn0H\nJHes+aU+/wALIRYN2gAAAA==\n'
p553
sg16
g119
sg18
I81
ssS'interactive_'
p554
I1
sS'erase'
p555
I1
sS'aspect'
p556
(dp557
g15
S'H4sIAFYGnEYC/23NMQvCMBAF4P39kdTBkLSKCkJHyZLBLg4FadIWCrYN8QrNv/eojg7v4Hgfd35a\nxpCkn2Mnx+VFQxNjk/CMnZ+nN8XFE4JG5jeHqf32IUdmFKgSToDuoeCVlclBP9lSCh3CAVkl+rMA\naxZMj8wKVOIqYK01e40tfMwZpbh43Or14uq1P+0kT13Wq1L/06uS3zv5AZYkvWjGAAAA\n'
p558
sg16
g119
sg18
I82
ssg159
(dp559
g15
S'H4sIAFYGnEYC/53OMQvCMBAF4P39kWQxpFbBQXDOksGsgjRpCoJtQ3oB8+89oqOTwxuO9/G4sJQ5\nVRXWHNVcnvQYch4q7jmGddkol0BIHWRoDsv46dMe0miQE16Arqnnk5XpQV85Uk0R6QDpxHQSYM2C\n6bExJ84C1lqz69DCY95ozcXtpfXvTPryf8l/evUGx/o6Le8AAAA=\n'
p560
sg16
g119
sg18
I83
ssS'erase_'
p561
I1
sg110
I0
sS'near_clipping_plane_tolerance'
p562
F0.001
sS'world_point'
p563
(dp564
g15
S'H4sIAFYGnEYC/23OuwrCMBQG4P08h5AslsRe7KDYtUsHuwYkTVIQbBtiCunb+1MdHX44l++EmHmd\n/JaZJbhsWl/xqUPQGz2CM8v8jmE1kbwkbnZHs/3u/Yl4Kyj2bGAU7z5HC9UWFH/Sxs078gXxno01\nI2gI0BIsp55dGHVd1x4l7cFjQysEFlwlWU8q6UolY1Uazyo52RwCSqMihjWmbkAhVLL6WsLC1A6H\niK0alYT4n1Hc8OEh+wCutF3++AAAAA==\n'
p565
sg16
g119
sg18
I84
ssS'two_sided_lighting'
p566
I1
sS'allocated_render_time'
p567
F5000
sg121
I0
sS'background'
p568
(dp569
g15
Nsg16
g45
sg18
I56
ssS'viewport'
p570
(dp571
g15
S'H4sIAFYGnEYC/7XPMQvCMBAF4P39kWQxpLaCg+CcJYNZBWnSFASbhngB8+89qrObwxuO9/HgQqpL\nbiqsJaqlPug+ljI23EoMa3pSqYGQO8iwOaTp0+c9pNEgJ7wAXXLPJyszgL5yopYj8gDpxHwUYM2C\n6YFZDydOAtZas+uwhce80ZqL60vr/2TW558lv+LVG7bqK1ESAQAA\n'
p572
sg16
g119
sg18
I86
ssS'display_point'
p573
(dp574
g15
S'H4sIAFYGnEYC/y2OMQuDMBCF9/sdhbhUErU0Q6GuWSzUNVBMjFCoGmKEuPS399V2uHd3730cZ6d1\n9Ftu5+DycX3FZxdCt9EjODtPSwyrjeQFZXbnaOp/uS8oU5xiywyjePclVlCqpPgn+7h5R76irGWD\nZAQaBNDTjrXswqhpGnUUtBeOGcU5Ap3kSadB6GTkTSdbaA2L1/DcAuE6uR59gCveNVbudOrkAVJ9\nB+TnK94y+QcYRPKz3gAAAA==\n'
p575
sg16
g119
sg18
I85
ssS'automatic_light_creation_'
p576
I1
sS'backing_store_'
p577
I0
sg126
I0
sS'backing_store'
p578
I0
sS'light_follow_camera'
p579
I1
sS'automatic_light_creation'
p580
I1
sS'light_follow_camera_'
p581
I1
sS'interactive'
p582
I1
ssg16
g134
sg18
I79
sssS'anti_aliasing_frames'
p583
I8
sS'disable_render'
p584
I00
sS'parallel_projection'
p585
I00
sS'axes'
p586
(dp587
g2
(lp588
((g4
g5
tI-1
tp589
a((g7
g5
tI-1
tp590
a((g73
g74
tI-1
tp591
a((g76
g77
tI-1
tp592
a((g79
g80
tI-1
tp593
a((g187
g188
tI-1
tp594
a((g190
g191
tI-1
tp595
a((S'AxesActor'
p596
S'tvtk_classes.axes_actor'
p597
tI-1
tp598
asg12
g596
sg13
(dp599
g15
Nsg16
g45
sg18
I8
ssg16
g19
sg18
I59
sg20
g597
sg15
(dp600
g15
(dp601
g198
(dp602
g15
S'H4sIAFYGnEYC/7XOMQoCMRAF0P5fJGkMWVfBwguk2cK0gmyyEQQ3O8QJmNs7RK9g8YvhPz4Tc12p\nmbiVZNb65MdcytxwKylu+cWlRgYN0LE75OXb0x7aWbBXQYEvNMopyo3gn1y4UQIdoL26nxREixB6\n7Myrs8I0TW43oEfGgrNWiuvb2n9GHg7mAy0aBDD4AAAA\n'
p603
sg16
g119
sg18
I61
ssg204
(dp604
g15
S'H4sIAFYGnEYC/53OsQoCMRAE0H5+JGkMOU/hCn8gTQrTCnLJRRC8XIgbMH/vEu0FiymWeQwbUl1z\nU2ErUa31Qfe5lLnhWmLY0pNKDYQ8QIbukJZPn/eQRoOc8AJ0ziOfrMwI+sqFWo7IB0gnbpMAaxZM\nj505cRKw1prdgB4e80ZrLi4vrf/P9NPww169AaZN3yn4AAAA\n'
p605
sg16
g119
sg18
I62
ssS'normalized_tip_length'
p606
(dp607
g15
S'H4sIAFYGnEYC/53OMQvCMBAF4P39ketiaK2CBcE5SwazCpImFQTbHvEC9t97VDc3hzcc7+NxcSoj\nLybOeTBjecg95BwWXPMQ5+kpuUQBN6ji6jClT89bVLaGeOoJcuZWT1W2hXxlkoUH8A6Vp9uBoFqF\n0v3KPB0Jzjm7abBGx3pb11pcXl3QdL9J3en/Uv/szRs+d+FG7wAAAA==\n'
p608
sg16
g119
sg18
I63
ssg207
I1
sg209
I1
sS'sphere_resolution'
p609
I16
sg211
I1
sg126
I0
sg201
(dp610
g15
S'H4sIAFYGnEYC/53OMQvCMBAF4P39kWQxpFbBQXDOksGsgjRpCoJtQ3oB8+89oqOTwxuO9/G4sJQ5\nVRXWHNVcnvQYch4q7jmGddkol0BIHWRoDsv46dMe0miQE16Arqnnk5XpQV85Uk0R6QDpxHQSYM2C\n6bExJ84C1lqz69DCY95ozcXtpfXvTPryf8l/evUGx/o6Le8AAAA=\n'
p611
sg16
g119
sg18
I64
ssS'cylinder_radius'
p612
F0.050000000000000003
sS'cone_resolution'
p613
I16
sS'cylinder_resolution'
p614
I16
sS'axis_labels'
p615
I1
sS'total_length'
p616
(dp617
g15
S'H4sIAFYGnEYC/53OMQvCMBAF4P39kWQxpFbBQXDOksGsgjRpCoJtQ3oB8+89oqOTwxuO9/G4sJQ5\nVRXWHNVcnvQYch4q7jmGddkol0BIHWRoDsv46dMe0miQE16Arqnnk5XpQV85Uk0R6QDpxHQSYM2C\n6bExJ84C1lqz69DCY95ozcXtpfXvTPryf8l/evUGx/o6Le8AAAA=\n'
p618
sg16
g119
sg18
I65
ssg215
I1
sS'tip_type'
p619
S'cone'
p620
sS'x_axis_label_text'
p621
S'X'
sS'cone_radius'
p622
F0.40000000000000002
sS'z_axis_label_text'
p623
S'Z'
sg208
I1
sg210
I1
sg121
I0
sS'axis_labels_'
p624
I1
sS'y_axis_label_text'
p625
S'Y'
sS'shaft_type_'
p626
I0
sS'sphere_radius'
p627
F0.5
sS'normalized_shaft_length'
p628
(dp629
g15
S'H4sIAFYGnEYC/23NsQoCMQwG4P1/kXax9KyCg+DcpYNdBbn2KgjeXemlYN/eUB0NBBL+jyQudc5N\nxbUkNdcXPcdSxoZ7SXFdNio1EvIAGbvDMn3zvIe0GuRFEKBrNryysgb0kxO1nJAPkF48TgKsWTA9\ndubFWcA5Z3cDevOxYLXmwPS6vZO5/B/5Y1Afbh8AYbkAAAA=\n'
p630
sg16
g119
sg18
I66
ssS'shaft_type'
p631
S'cylinder'
p632
sS'normalized_label_position'
p633
(dp634
g15
S'H4sIAFYGnEYC/53OMQvCMBAF4P39kWQxpFbBQXDOksGsgjRpCoJtQ3oB8+89oqOTwxuO9/G4sJQ5\nVRXWHNVcnvQYch4q7jmGddkol0BIHWRoDsv46dMe0miQE16Arqnnk5XpQV85Uk0R6QDpxHQSYM2C\n6bExJ84C1lqz69DCY95ozcXtpfXvTPryf8l/evUGx/o6Le8AAAA=\n'
p635
sg16
g119
sg18
I67
ssg110
I0
sg212
(dp636
g15
S'H4sIAFYGnEYC/7XOMQoCMRAF0P5fJGkMWVfBwguk2cK0gmyyEQQ3O8QJmNs7RK9g8YvhPz4Tc12p\nmbiVZNb65MdcytxwKylu+cWlRgYN0LE75OXb0x7aWbBXQYEvNMopyo3gn1y4UQIdoL26nxREixB6\n7Myrs8I0TW43oEfGgrNWiuvb2n9GHg7mAy0aBDD4AAAA\n'
p637
sg16
g119
sg18
I68
sssg16
g134
sg18
I60
sssS'point_smoothing'
p638
I00
sS'line_smoothing'
p639
I00
sS'show_axes'
p640
I00
sS'magnification'
p641
I1
sS'camera'
p642
(dp643
g2
(lp644
((g4
g5
tI-1
tp645
a((g7
g5
tI-1
tp646
a((g73
g74
tI-1
tp647
a((g76
g77
tI-1
tp648
a((g79
g80
tI-1
tp649
a((S'Camera'
p650
S'tvtk_classes.camera'
p651
tI-1
tp652
a((S'OpenGLCamera'
p653
S'tvtk_classes.open_gl_camera'
p654
tI-1
tp655
asg12
g653
sg13
(dp656
g15
Nsg16
g45
sg18
I8
ssg16
g19
sg18
I69
sg20
g654
sg15
(dp657
g15
(dp658
S'distance'
p659
F83073.67861079381
sS'view_plane_normal'
p660
(dp661
g15
S'H4sIAFYGnEYC/y3OTQvCMAwG4Hv+SHtxdJ9OECbeehnoDl4K0q+B4LZSO8j+vWF6SEh4H0LsvE5h\ny+wSfTat7/TSMeoNntHbZf6kuNoEIQdudwez++WhAC4FpIEZBukeSlpJyRLSX7q0BQ+hAj6wsWVA\nmgTRemcDOzPo+14ectiLjhkpBAUXhdoqbN1DYd4cFbqq41eFtrkpPDlKKoVeKzQjUUHg1FJraxoK\n0q6jl0z2BUryBgHaAAAA\n'
p662
sg16
g119
sg18
I71
ssS'window_center'
p663
(dp664
g15
S'H4sIAFYGnEYC/6XOQQrCMBAF0P2/yGRjSFsFF14gmy7MVpAmjSDYNKQTMLd3qN7AxV8M//GZkOqS\nmw5riXqpL35OpUwN9xLDmjYuNTByBxV2hzR/+9xDWQN25Al8zYOcomwP/smZW47IRyhHjzNBtAih\nJ2EDHF0I4zjaQ4c9MuatMVLc3sb8E3nI6w+QLErH2AAAAA==\n'
p665
sg16
g119
sg18
I72
ssS'parallel_projection_'
p666
I0
sg212
(dp667
g15
S'H4sIAFYGnEYC/y3OPQuDMBAG4P3+SFwqiV9VsGDplMWhDl0CxZwRClVDGiHSP99DO7yQe+/hCM7r\nZLcYF2fiaX37V+9cv8HTGVzmj3crerACItwdzMOxtwlEkoPvmGbg7zalkZRMwf/l4DdrwGYQdWws\nGZAmQTTfWcdqBm3bypOAPXRMS85p8VDBaBXG80WFsqJHToVoVMBShSpTgSfXmzkQcgpS0m9BDbVi\nVGEoGvqVjn+fS3/K3QAAAA==\n'
p668
sg16
g119
sg18
I77
ssS'parallel_scale'
p669
F18000
sS'thickness'
p670
F88667.978879002927
sS'view_up'
p671
(dp672
g15
S'H4sIAFYGnEYC/y3OPQvCMBAG4P3+hkO6WJK2gkWxi0uWDnYNluSagtCPEBNIB/+7R3U4uPfu4Thc\n4uy2HFdv8zlO4aW91xv03uK6vIOPGMAJyHB3sAy/vSsgkxxCxwyD8HAlRVKyhPCXQ9icBVdB1rHx\nzIA0CaKnnXXsyqBtW3kUsBcdM5JzWqikdShUMnWv0qBVQkFhVKmuKPN7VMmKC7XYfFQa9e0wPWmE\nDX1i8i+2cA+60QAAAA==\n'
p673
sg16
g119
sg18
I73
ssS'use_horizontal_view_angle'
p674
I0
sS'eye_angle'
p675
F2
sS'focal_disk'
p676
F1
sg121
I0
sS'clipping_range'
p677
(dp678
g15
S'H4sIAFYGnEYC/y3OTQuDMAwG4Hv+x2gvE782FHbw2osHvQZGrS0MppYuQvz3C26HkIT3IcSt+xKP\nzG3JZ8v+ppdNyR7wTN5t64fS7ghiAdqdDtb5l8cStMmBRjUpoCFWsooyJdBfznRED7EGParQKBAt\nQuhNWAWjeijo+95cCzhLjk0mzyVAtg1ye0cupAeP7KzMJbKvO+S5HZCbVl/EBclDJx9M2RcahDA0\nyQAAAA==\n'
p679
sg16
g119
sg18
I76
ssg126
I0
sS'view_shear'
p680
(dp681
g15
S'H4sIAFYGnEYC/7XOsQoCMRAE0H5+JGkMOU/BQrBOk8K0glxyORC8XIgbMH/vEv0FiymWeQwbUl1z\nU2ErUa31SY+plKnhXmLY0otKDYQ8QIbukOZvn/eQRoOc8AJ0zSOfrMwI+smZWo7IB0gnlpMAaxZM\nj505cRaw1prdgB4e80ZrLm5vrf+TRV/4W68+7xE3gfUAAAA=\n'
p682
sg16
g119
sg18
I74
ssg110
I0
sS'view_angle'
p683
F30
sS'focal_point'
p684
(dp685
g15
S'H4sIAFYGnEYC/y3OvQrDIBQF4P2+RSezNJifFgsZsrpkaKaCUKIxUGiMWAXz9j2kHS54z/m4aFxa\n/V6aLdhyTe/4mkKYdnoGazb3iSGZSL6iwhyO3PzrfU2F5BRHphnFu2+wQsmG4l/OcfeWfEvFyBbB\nCBoC9HKwkXWMhmGQ54qOwTEtOUehciUeKi9Luql8u6ps2r47IdG1cipbjkT0KnNUi0FQg7V4TyAC\npcVwfEuXX+lxQXreAAAA\n'
p686
sg16
g119
sg18
I75
ssg585
I0
sS'use_horizontal_view_angle_'
p687
I0
ssg16
g134
sg18
I70
sssS'jpeg_quality'
p688
I95
sg568
(dp689
g15
(F0.10000000000000001
F0.20000000000000001
F0.40000000000000002
tp690
sg16
g17
sg18
I56
ssS'marker'
p691
(dp692
g2
(lp693
((g4
g5
tI-1
tp694
a((g7
g5
tI-1
tp695
a((g73
g74
tI-1
tp696
a((g76
g77
tI-1
tp697
a((g79
g80
tI-1
tp698
a((S'InteractorObserver'
p699
S'tvtk_classes.interactor_observer'
p700
tI-1
tp701
a((S'OrientationMarkerWidget'
p702
S'tvtk_classes.orientation_marker_widget'
p703
tI-1
tp704
asg12
g702
sg13
(dp705
g15
Nsg16
g45
sg18
I8
ssg16
g19
sg18
I57
sg20
g703
sg15
(dp706
g15
(dp707
S'key_press_activation_value'
p708
S'i'
sS'enabled'
p709
I0
sg126
I0
sg554
I1
sS'priority'
p710
F0.55000001192092896
sg121
I0
sS'key_press_activation_'
p711
I0
sS'enabled_'
p712
I0
sg110
I0
sS'key_press_activation'
p713
I0
sg582
I1
ssg16
g134
sg18
I58
sssS'off_screen_rendering'
p714
I00
sS'polygon_smoothing'
p715
I00
sS'light_manager'
p716
(dp717
g2
(lp718
((g4
g5
tI-1
tp719
a((S'LightManager'
p720
S'enthought.pyface.tvtk.light_manager'
p721
tI0
tp722
asg12
g720
sg13
(dp723
g15
Nsg16
g45
sg18
I1
ssg16
g19
sg18
I87
sg20
g721
sg15
(dp724
g15
(dp725
S'light_mode'
p726
S'raymond'
p727
sS'lights'
p728
(dp729
g15
(lp730
(dp731
g2
(lp732
((g4
g5
tI-1
tp733
a((S'CameraLight'
p734
g721
tI0
tp735
asg12
g734
sg13
(dp736
g15
Nsg16
g45
sg18
I1
ssg16
g19
sg18
I90
sg20
g721
sg15
(dp737
g15
(dp738
S'activate'
p739
I01
sS'elevation'
p740
F45
sS'color'
p741
(dp742
g15
Nsg16
g45
sg18
I19
ssS'source'
p743
(dp744
g2
(lp745
((g4
g5
tI-1
tp746
a((g7
g5
tI-1
tp747
a((g73
g74
tI-1
tp748
a((g76
g77
tI-1
tp749
a((g79
g80
tI-1
tp750
a((S'Light'
p751
S'tvtk_classes.light'
p752
tI-1
tp753
asg12
g751
sg13
(dp754
g15
Nsg16
g45
sg18
I8
ssg16
g19
sg18
I92
sg20
g752
sg15
(dp755
g15
(dp756
g166
(dp757
g15
Nsg16
g45
sg18
I19
ssS'attenuation_values'
p758
(dp759
g15
S'H4sIAFYGnEYC/43OMQvCMBAF4P39kWQxpFbBQXDOksGsgjRpCoJtQ7yA+fce0VHB4Q3H+3hcWMqc\nqgprjmoud7oNOQ8V1xzDujwol0BIHWRoDsv47tMW0miQE16Azqnnk5XpQR85Uk0RaQfpxHQQYM2C\n6b4xJ44C1lqz6dDCY95ozcXlqfX3TPr0u/wv/K1XLxMFpQX1AAAA\n'
p760
sg16
g119
sg18
I97
ssS'switch_'
p761
I1
sS'exponent'
p762
F1
sS'switch'
p763
I1
sg152
(dp764
g15
Nsg16
g45
sg18
I19
ssg168
(dp765
g15
(F0
F0
F0
tp766
sg16
g17
sg18
I94
ssg126
I0
sS'light_type_'
p767
I2
sS'positional'
p768
I0
sg121
I0
sS'intensity'
p769
F1
sS'light_type'
p770
S'camera_light'
p771
sg110
I0
sg212
(dp772
g15
S'H4sIAFYGnEYC/23OuwrDMAwF0F0/4iwNStMnLWT2kqFeDSXxAwp5GFcB+++rpt3a4Q7SPQiZaRlD\nLs0cXTkuAz26GLsM9+jMPD0pLoYgVFCY1cFkP33YQiERSIleAN1CzSMrWQN9paUcHIQdFEr4kwDW\nLJjuV6bEVUDbtnJTwRo+1ktELnTyjuN/Y32jk7EXnY7v8cysQ53cgdeI/+Ow4Q/78gVJEEmE6QAA\nAA==\n'
p773
sg16
g119
sg18
I95
ssS'positional_'
p774
I0
sS'cone_angle'
p775
F30
sg684
(dp776
g15
S'H4sIAFYGnEYC/7XOMQoCMRAF0P5fJGkMWVfBwguk2cK0gmyyEQQ3O8QJmNs7RK9g8YvhPz4Tc12p\nmbiVZNb65MdcytxwKylu+cWlRgYN0LE75OXb0x7aWbBXQYEvNMopyo3gn1y4UQIdoL26nxREixB6\n7Myrs8I0TW43oEfGgrNWiuvb2n9GHg7mAy0aBDD4AAAA\n'
p777
sg16
g119
sg18
I96
sssg16
g134
sg18
I93
sssg769
F1
sS'azimuth'
p778
F45
sS'glyph'
p779
(dp780
g2
(lp781
((g4
g5
tI-1
tp782
a((S'LightGlyph'
p783
g721
tI0
tp784
asg12
g783
sg13
(dp785
g15
Nsg16
g45
sg18
I1
ssg16
g19
sg18
I98
sg20
g721
sg15
(dp786
g15
(dp787
S'el'
p788
F45
sS'az'
p789
F45
sg51
(dp790
g2
(lp791
((g4
g5
tI-1
tp792
a((g7
g5
tI-1
tp793
a((g73
g74
tI-1
tp794
a((g76
g77
tI-1
tp795
a((g79
g80
tI-1
tp796
a((g187
g188
tI-1
tp797
a((g190
g191
tI-1
tp798
a((g62
g193
tI-1
tp799
a((S'Follower'
p800
S'tvtk_classes.follower'
p801
tI-1
tp802
asg12
g800
sg13
(dp803
g15
Nsg16
g45
sg18
I8
ssg16
g19
sg18
I100
sg20
g801
sg15
(dp804
g15
(dp805
g198
(dp806
g15
S'H4sIAFYGnEYC/7XOMQoCMRAF0P5fJGkMWVfBwguk2cK0gmyyEQQ3O8QJmNs7RK9g8YvhPz4Tc12p\nmbiVZNb65MdcytxwKylu+cWlRgYN0LE75OXb0x7aWbBXQYEvNMopyo3gn1y4UQIdoL26nxREixB6\n7Myrs8I0TW43oEfGgrNWiuvb2n9GHg7mAy0aBDD4AAAA\n'
p807
sg16
g119
sg18
I102
ssg201
(dp808
g15
S'H4sIAFYGnEYC/53OMQvCMBAF4P39kWQxpFbBQXDOksGsgjRpCoJtQ3oB8+89oqOTwxuO9/G4sJQ5\nVRXWHNVcnvQYch4q7jmGddkol0BIHWRoDsv46dMe0miQE16Arqnnk5XpQV85Uk0R6QDpxHQSYM2C\n6bExJ84C1lqz69DCY95ozcXtpfXvTPryf8l/evUGx/o6Le8AAAA=\n'
p809
sg16
g119
sg18
I104
ssg204
(dp810
g15
S'H4sIAFYGnEYC/12OwQqCQBRF9/dHZjbJmIkFEbYcAhe5HSodjYrUYXrC2Nf3sFYtDtzLPTye7cfO\nTZEdfBt145PulffVhLNv7dC/yI+W4GJIO3vom+/ulpBagUpRC9DRJVzZ0gnoZzY0uRZuBVmK61qA\nbTZYTWetFFuBoij0IsYMH6u1UjyYoBJG/bPLTag4bVIme8vTIb88biasuTcZb/HeBKv4nzr6AK9z\noUrXAAAA\n'
p811
sg16
g119
sg18
I103
ssg110
I0
sg207
I1
sg208
I1
sg209
I1
sg210
I1
sg121
I0
sg126
I0
sg211
I1
sg212
(dp812
g15
S'H4sIAFYGnEYC/7XOMQoCMRAF0P5fJGkMWVfBwguk2cK0gmyyEQQ3O8QJmNs7RK9g8YvhPz4Tc12p\nmbiVZNb65MdcytxwKylu+cWlRgYN0LE75OXb0x7aWbBXQYEvNMopyo3gn1y4UQIdoL26nxREixB6\n7Myrs8I0TW43oEfGgrNWiuvb2n9GHg7mAy0aBDD4AAAA\n'
p813
sg16
g119
sg18
I105
ssg215
I1
ssg16
g134
sg18
I101
ssssg16
g134
sg18
I99
ssssg16
g134
sg18
I91
ssa(dp814
g2
(lp815
((g4
g5
tI-1
tp816
a((g734
g721
tI0
tp817
asg12
g734
sg13
(dp818
g15
Nsg16
g45
sg18
I1
ssg16
g19
sg18
I106
sg20
g721
sg15
(dp819
g15
(dp820
g739
I01
sg740
F-30
sg741
(dp821
g15
Nsg16
g45
sg18
I19
ssg743
(dp822
g2
(lp823
((g4
g5
tI-1
tp824
a((g7
g5
tI-1
tp825
a((g73
g74
tI-1
tp826
a((g76
g77
tI-1
tp827
a((g79
g80
tI-1
tp828
a((g751
g752
tI-1
tp829
asg12
g751
sg13
(dp830
g15
Nsg16
g45
sg18
I8
ssg16
g19
sg18
I108
sg20
g752
sg15
(dp831
g15
(dp832
g166
(dp833
g15
Nsg16
g45
sg18
I19
ssg758
(dp834
g15
S'H4sIAFYGnEYC/43OMQvCMBAF4P39kWQxpFbBQXDOksGsgjRpCoJtQ7yA+fce0VHB4Q3H+3hcWMqc\nqgprjmoud7oNOQ8V1xzDujwol0BIHWRoDsv47tMW0miQE16Azqnnk5XpQR85Uk0RaQfpxHQQYM2C\n6b4xJ44C1lqz6dDCY95ozcXlqfX3TPr0u/wv/K1XLxMFpQX1AAAA\n'
p835
sg16
g119
sg18
I112
ssg761
I1
sg762
F1
sg763
I1
sg152
(dp836
g15
Nsg16
g45
sg18
I19
ssg168
(dp837
g15
Nsg16
g45
sg18
I94
ssg126
I0
sg767
I2
sg768
I0
sg121
I0
sg769
F0.59999999999999998
sg770
g771
sg110
I0
sg212
(dp838
g15
S'H4sIAFYGnEYC/23OvQrCQBAE4H5e5NIYLkYlhWB9IClMYxGQ3B8I5nKcG0h8etfETospdudjWRPG\nPs65GZLL+/FB9y6lbsYtOTOEJ6XREGKBzCwOwa593CJTEtQILUCXWPLISpWgr7Q0R4e4Q9YIXwmw\nZsF0v7BGHAXqulabAkv4mFZSctFOUv6Pq9pJ+3byhuN/Y/3ad/Z8/egXjwde6xM/qfM3a8mLhewA\nAAA=\n'
p839
sg16
g119
sg18
I110
ssg774
I0
sg775
F30
sg684
(dp840
g15
S'H4sIAFYGnEYC/7XOMQoCMRAF0P5fJGkMWVfBwguk2cK0gmyyEQQ3O8QJmNs7RK9g8YvhPz4Tc12p\nmbiVZNb65MdcytxwKylu+cWlRgYN0LE75OXb0x7aWbBXQYEvNMopyo3gn1y4UQIdoL26nxREixB6\n7Myrs8I0TW43oEfGgrNWiuvb2n9GHg7mAy0aBDD4AAAA\n'
p841
sg16
g119
sg18
I111
sssg16
g134
sg18
I109
sssg769
F0.59999999999999998
sg778
F-60
sg779
(dp842
g2
(lp843
((g4
g5
tI-1
tp844
a((g783
g721
tI0
tp845
asg12
g783
sg13
(dp846
g15
Nsg16
g45
sg18
I1
ssg16
g19
sg18
I113
sg20
g721
sg15
(dp847
g15
(dp848
g788
F-30
sg789
F-60
sg51
(dp849
g2
(lp850
((g4
g5
tI-1
tp851
a((g7
g5
tI-1
tp852
a((g73
g74
tI-1
tp853
a((g76
g77
tI-1
tp854
a((g79
g80
tI-1
tp855
a((g187
g188
tI-1
tp856
a((g190
g191
tI-1
tp857
a((g62
g193
tI-1
tp858
a((g800
g801
tI-1
tp859
asg12
g800
sg13
(dp860
g15
Nsg16
g45
sg18
I8
ssg16
g19
sg18
I115
sg20
g801
sg15
(dp861
g15
(dp862
g198
(dp863
g15
S'H4sIAFYGnEYC/7XOMQoCMRAF0P5fJGkMWVfBwguk2cK0gmyyEQQ3O8QJmNs7RK9g8YvhPz4Tc12p\nmbiVZNb65MdcytxwKylu+cWlRgYN0LE75OXb0x7aWbBXQYEvNMopyo3gn1y4UQIdoL26nxREixB6\n7Myrs8I0TW43oEfGgrNWiuvb2n9GHg7mAy0aBDD4AAAA\n'
p864
sg16
g119
sg18
I117
ssg201
(dp865
g15
S'H4sIAFYGnEYC/53OMQvCMBAF4P39kWQxpFbBQXDOksGsgjRpCoJtQ3oB8+89oqOTwxuO9/G4sJQ5\nVRXWHNVcnvQYch4q7jmGddkol0BIHWRoDsv46dMe0miQE16Arqnnk5XpQV85Uk0R6QDpxHQSYM2C\n6bExJ84C1lqz69DCY95ozcXtpfXvTPryf8l/evUGx/o6Le8AAAA=\n'
p866
sg16
g119
sg18
I119
ssg204
(dp867
g15
S'H4sIAFYGnEYC/y2OQQ6CMBBF93ORskDSCogaL9ANJrJtQtoBjIlAU0tSjId3LC5mkv/fy2RwWka7\nZji7PhuXp39o5/QKretxnl7eLejBCkgwejB1G7d7SCQH3zDDwN9sTpEsmYP/m51fbQ+2gKRhw5EB\n2WSQWkatYRcGdV3LnYA4dMxIzgm0KvAyfX9UGIpUBeQqiI6CSO8qaFTBVNetxnxD+iBoVSqc+PlH\n6CWTfQGCo1dj2gAAAA==\n'
p868
sg16
g119
sg18
I118
ssg110
I0
sg207
I1
sg208
I1
sg209
I1
sg210
I1
sg121
I0
sg126
I0
sg211
I1
sg212
(dp869
g15
S'H4sIAFYGnEYC/7XOMQoCMRAF0P5fJGkMWVfBwguk2cK0gmyyEQQ3O8QJmNs7RK9g8YvhPz4Tc12p\nmbiVZNb65MdcytxwKylu+cWlRgYN0LE75OXb0x7aWbBXQYEvNMopyo3gn1y4UQIdoL26nxREixB6\n7Myrs8I0TW43oEfGgrNWiuvb2n9GHg7mAy0aBDD4AAAA\n'
p870
sg16
g119
sg18
I120
ssg215
I1
ssg16
g134
sg18
I116
ssssg16
g134
sg18
I114
ssssg16
g134
sg18
I107
ssa(dp871
g2
(lp872
((g4
g5
tI-1
tp873
a((g734
g721
tI0
tp874
asg12
g734
sg13
(dp875
g15
Nsg16
g45
sg18
I1
ssg16
g19
sg18
I121
sg20
g721
sg15
(dp876
g15
(dp877
g739
I01
sg740
F-30
sg741
(dp878
g15
Nsg16
g45
sg18
I19
ssg743
(dp879
g2
(lp880
((g4
g5
tI-1
tp881
a((g7
g5
tI-1
tp882
a((g73
g74
tI-1
tp883
a((g76
g77
tI-1
tp884
a((g79
g80
tI-1
tp885
a((g751
g752
tI-1
tp886
asg12
g751
sg13
(dp887
g15
Nsg16
g45
sg18
I8
ssg16
g19
sg18
I123
sg20
g752
sg15
(dp888
g15
(dp889
g166
(dp890
g15
Nsg16
g45
sg18
I19
ssg758
(dp891
g15
S'H4sIAFYGnEYC/43OMQvCMBAF4P39kWQxpFbBQXDOksGsgjRpCoJtQ7yA+fce0VHB4Q3H+3hcWMqc\nqgprjmoud7oNOQ8V1xzDujwol0BIHWRoDsv47tMW0miQE16Azqnnk5XpQR85Uk0RaQfpxHQQYM2C\n6b4xJ44C1lqz6dDCY95ozcXlqfX3TPr0u/wv/K1XLxMFpQX1AAAA\n'
p892
sg16
g119
sg18
I127
ssg761
I1
sg762
F1
sg763
I1
sg152
(dp893
g15
Nsg16
g45
sg18
I19
ssg168
(dp894
g15
Nsg16
g45
sg18
I94
ssg126
I0
sg767
I2
sg768
I0
sg121
I0
sg769
F0.5
sg770
g771
sg110
I0
sg212
(dp895
g15
S'H4sIAFYGnEYC/23OPwvCMBCH4f33RdLFklqVDkLngHSwi0NBmj8FwbYhXqHx03tGNx3e4XIPR8y0\njD7mZg4uH5c73foQ+ohrcGaeHhQWQ/AFMpMcJvvZ+y0yJUGt0AJ09iWPrFQJ+kpL0Tv4HbJWDJUA\naxZM94m14ijQNI3aFEjxMa2k5EW3Svk/V9XdOhhu+M1ymuvt6fKmTx4P/Kxr/qHOX6ES/LrpAAAA\n'
p896
sg16
g119
sg18
I125
ssg774
I0
sg775
F30
sg684
(dp897
g15
S'H4sIAFYGnEYC/7XOMQoCMRAF0P5fJGkMWVfBwguk2cK0gmyyEQQ3O8QJmNs7RK9g8YvhPz4Tc12p\nmbiVZNb65MdcytxwKylu+cWlRgYN0LE75OXb0x7aWbBXQYEvNMopyo3gn1y4UQIdoL26nxREixB6\n7Myrs8I0TW43oEfGgrNWiuvb2n9GHg7mAy0aBDD4AAAA\n'
p898
sg16
g119
sg18
I126
sssg16
g134
sg18
I124
sssg769
F0.5
sg778
F60
sg779
(dp899
g2
(lp900
((g4
g5
tI-1
tp901
a((g783
g721
tI0
tp902
asg12
g783
sg13
(dp903
g15
Nsg16
g45
sg18
I1
ssg16
g19
sg18
I128
sg20
g721
sg15
(dp904
g15
(dp905
g788
F-30
sg789
F60
sg51
(dp906
g2
(lp907
((g4
g5
tI-1
tp908
a((g7
g5
tI-1
tp909
a((g73
g74
tI-1
tp910
a((g76
g77
tI-1
tp911
a((g79
g80
tI-1
tp912
a((g187
g188
tI-1
tp913
a((g190
g191
tI-1
tp914
a((g62
g193
tI-1
tp915
a((g800
g801
tI-1
tp916
asg12
g800
sg13
(dp917
g15
Nsg16
g45
sg18
I8
ssg16
g19
sg18
I130
sg20
g801
sg15
(dp918
g15
(dp919
g198
(dp920
g15
S'H4sIAFYGnEYC/7XOMQoCMRAF0P5fJGkMWVfBwguk2cK0gmyyEQQ3O8QJmNs7RK9g8YvhPz4Tc12p\nmbiVZNb65MdcytxwKylu+cWlRgYN0LE75OXb0x7aWbBXQYEvNMopyo3gn1y4UQIdoL26nxREixB6\n7Myrs8I0TW43oEfGgrNWiuvb2n9GHg7mAy0aBDD4AAAA\n'
p921
sg16
g119
sg18
I132
ssg201
(dp922
g15
S'H4sIAFYGnEYC/53OMQvCMBAF4P39kWQxpFbBQXDOksGsgjRpCoJtQ3oB8+89oqOTwxuO9/G4sJQ5\nVRXWHNVcnvQYch4q7jmGddkol0BIHWRoDsv46dMe0miQE16Arqnnk5XpQV85Uk0R6QDpxHQSYM2C\n6bExJ84C1lqz69DCY95ozcXtpfXvTPryf8l/evUGx/o6Le8AAAA=\n'
p923
sg16
g119
sg18
I134
ssg204
(dp924
g15
S'H4sIAFYGnEYC/y3OTQuDMAwG4Hv+SD04aafObezgtRcH81qQtn4wmFq6CnHsxy/oDgkk70OInZbR\nrYmdfZeMyys8tfd6hcZ3dp7ewS82gBMQ2c3B1O65O0IkOYSaGQbh4VIaSckUwl+2YXUduAyimvVn\nBqRJEM03VrMbg6qq5EHAVnTMSM4paBTyPP58FfZZrNByhaKlQcSDQm0VmuJe0j7d9/okqBUKL/xa\n0jMm+QGDRrI11AAAAA==\n'
p925
sg16
g119
sg18
I133
ssg110
I0
sg207
I1
sg208
I1
sg209
I1
sg210
I1
sg121
I0
sg126
I0
sg211
I1
sg212
(dp926
g15
S'H4sIAFYGnEYC/7XOMQoCMRAF0P5fJGkMWVfBwguk2cK0gmyyEQQ3O8QJmNs7RK9g8YvhPz4Tc12p\nmbiVZNb65MdcytxwKylu+cWlRgYN0LE75OXb0x7aWbBXQYEvNMopyo3gn1y4UQIdoL26nxREixB6\n7Myrs8I0TW43oEfGgrNWiuvb2n9GHg7mAy0aBDD4AAAA\n'
p927
sg16
g119
sg18
I135
ssg215
I1
ssg16
g134
sg18
I131
ssssg16
g134
sg18
I129
ssssg16
g134
sg18
I122
ssa(dp928
g2
(lp929
((g4
g5
tI-1
tp930
a((g734
g721
tI0
tp931
asg12
g734
sg13
(dp932
g15
Nsg16
g45
sg18
I1
ssg16
g19
sg18
I136
sg20
g721
sg15
(dp933
g15
(dp934
g739
I00
sg740
F0
sg741
(dp935
g15
Nsg16
g45
sg18
I19
ssg743
(dp936
g2
(lp937
((g4
g5
tI-1
tp938
a((g7
g5
tI-1
tp939
a((g73
g74
tI-1
tp940
a((g76
g77
tI-1
tp941
a((g79
g80
tI-1
tp942
a((g751
g752
tI-1
tp943
asg12
g751
sg13
(dp944
g15
Nsg16
g45
sg18
I8
ssg16
g19
sg18
I138
sg20
g752
sg15
(dp945
g15
(dp946
g166
(dp947
g15
Nsg16
g45
sg18
I19
ssg758
(dp948
g15
S'H4sIAFYGnEYC/43OMQvCMBAF4P39kWQxpFbBQXDOksGsgjRpCoJtQ7yA+fce0VHB4Q3H+3hcWMqc\nqgprjmoud7oNOQ8V1xzDujwol0BIHWRoDsv47tMW0miQE16Azqnnk5XpQR85Uk0RaQfpxHQQYM2C\n6b4xJ44C1lqz6dDCY95ozcXlqfX3TPr0u/wv/K1XLxMFpQX1AAAA\n'
p949
sg16
g119
sg18
I142
ssg761
I0
sg762
F1
sg763
I0
sg152
(dp950
g15
Nsg16
g45
sg18
I19
ssg168
(dp951
g15
Nsg16
g45
sg18
I94
ssg126
I0
sg767
I2
sg768
I0
sg121
I0
sg769
F1
sg770
g771
sg110
I0
sg212
(dp952
g15
S'H4sIAFYGnEYC/7XOsQoCMRAE0H5+JGkMOU/BQrBOk8K0glxyORC8XIgbMH/vEv0FiymWeQwbUl1z\nU2ErUa31SY+plKnhXmLY0otKDYQ8QIbukOZvn/eQRoOc8AJ0zSOfrMwI+smZWo7IB0gnlpMAaxZM\nj505cRaw1prdgB4e80ZrLm5vrf+TRV/4W68+7xE3gfUAAAA=\n'
p953
sg16
g119
sg18
I140
ssg774
I0
sg775
F30
sg684
(dp954
g15
S'H4sIAFYGnEYC/7XOMQoCMRAF0P5fJGkMWVfBwguk2cK0gmyyEQQ3O8QJmNs7RK9g8YvhPz4Tc12p\nmbiVZNb65MdcytxwKylu+cWlRgYN0LE75OXb0x7aWbBXQYEvNMopyo3gn1y4UQIdoL26nxREixB6\n7Myrs8I0TW43oEfGgrNWiuvb2n9GHg7mAy0aBDD4AAAA\n'
p955
sg16
g119
sg18
I141
sssg16
g134
sg18
I139
sssg769
F1
sg778
F0
sg779
(dp956
g2
(lp957
((g4
g5
tI-1
tp958
a((g783
g721
tI0
tp959
asg12
g783
sg13
(dp960
g15
Nsg16
g45
sg18
I1
ssg16
g19
sg18
I143
sg20
g721
sg15
(dp961
g15
(dp962
g788
F0
sg789
F0
sg51
(dp963
g2
(lp964
((g4
g5
tI-1
tp965
a((g7
g5
tI-1
tp966
a((g73
g74
tI-1
tp967
a((g76
g77
tI-1
tp968
a((g79
g80
tI-1
tp969
a((g187
g188
tI-1
tp970
a((g190
g191
tI-1
tp971
a((g62
g193
tI-1
tp972
a((g800
g801
tI-1
tp973
asg12
g800
sg13
(dp974
g15
Nsg16
g45
sg18
I8
ssg16
g19
sg18
I145
sg20
g801
sg15
(dp975
g15
(dp976
g198
(dp977
g15
S'H4sIAFYGnEYC/7XOMQoCMRAF0P5fJGkMWVfBwguk2cK0gmyyEQQ3O8QJmNs7RK9g8YvhPz4Tc12p\nmbiVZNb65MdcytxwKylu+cWlRgYN0LE75OXb0x7aWbBXQYEvNMopyo3gn1y4UQIdoL26nxREixB6\n7Myrs8I0TW43oEfGgrNWiuvb2n9GHg7mAy0aBDD4AAAA\n'
p978
sg16
g119
sg18
I147
ssg201
(dp979
g15
S'H4sIAFYGnEYC/53OMQvCMBAF4P39kWQxpFbBQXDOksGsgjRpCoJtQ3oB8+89oqOTwxuO9/G4sJQ5\nVRXWHNVcnvQYch4q7jmGddkol0BIHWRoDsv46dMe0miQE16Arqnnk5XpQV85Uk0R6QDpxHQSYM2C\n6bExJ84C1lqz69DCY95ozcXtpfXvTPryf8l/evUGx/o6Le8AAAA=\n'
p980
sg16
g119
sg18
I149
ssg204
(dp981
g15
S'H4sIAFYGnEYC/53OsQoCMRAE0H5+JGkMOU/hCn8gTQrTCnLJRRC8XIgbMH/vEu0FiymWeQwbUl1z\nU2ErUa31Qfe5lLnhWmLY0pNKDYQ8QIbukJZPn/eQRoOc8AJ0ziOfrMwI+sqFWo7IB0gnbpMAaxZM\nj505cRKw1prdgB4e80ZrLi4vrf/P9NPww169AaZN3yn4AAAA\n'
p982
sg16
g119
sg18
I148
ssg110
I0
sg207
I1
sg208
I0
sg209
I1
sg210
I1
sg121
I0
sg126
I0
sg211
I0
sg212
(dp983
g15
S'H4sIAFYGnEYC/7XOMQoCMRAF0P5fJGkMWVfBwguk2cK0gmyyEQQ3O8QJmNs7RK9g8YvhPz4Tc12p\nmbiVZNb65MdcytxwKylu+cWlRgYN0LE75OXb0x7aWbBXQYEvNMopyo3gn1y4UQIdoL26nxREixB6\n7Myrs8I0TW43oEfGgrNWiuvb2n9GHg7mAy0aBDD4AAAA\n'
p984
sg16
g119
sg18
I150
ssg215
I1
ssg16
g134
sg18
I146
ssssg16
g134
sg18
I144
ssssg16
g134
sg18
I137
ssasg16
g267
sg18
I89
ssS'number_of_lights'
p985
I4
ssg16
g134
sg18
I88
sssS'jpeg_progressive'
p986
I01
sS'_def_pos'
p987
I1
ssg16
g134
sg18
I31
sssS'children'
p988
(dp989
g15
(lp990
(dp991
g2
(lp992
((g4
g5
tI-1
tp993
a((g27
g5
tI-1
tp994
a((g29
g30
tI-1
tp995
a((g32
g33
tI0
tp996
a((g35
g36
tI0
tp997
a((S'Source'
p998
S'enthought.mayavi.core.source'
p999
tI0
tp1000
a((S'FileDataSource'
p1001
S'enthought.mayavi.core.file_data_source'
p1002
tI0
tp1003
a((S'VTKFileReader'
p1004
S'enthought.mayavi.sources.vtk_file_reader'
p1005
tI0
tp1006
asg12
g1004
sg13
(dp1007
g15
Nsg16
g45
sg18
I1
ssg16
g19
sg18
I152
sg20
g1005
sg15
(dp1008
g15
(dp1009
g50
S''
sS'file_path'
p1010
(dp1011
g2
(lp1012
((S'FilePath'
p1013
S'enthought.persistence.file_path'
p1014
tI-1
tp1015
asg12
g1013
sg13
(dp1016
g15
Nsg16
g45
sg18
I1
ssg16
g19
sg18
I262
sg20
g1014
sg15
(dp1017
g15
(dp1018
S'rel_pth'
p1019
S'bottom-layer.vtk'
p1020
sS'abs_pth'
p1021
S'/home/luis/cigma-0.9b1/doc/manual/figures/bottom-layer.vtk'
p1022
ssg16
g134
sg18
I263
sssg48
S''
sS'_timestep'
p1023
I0
sS'reader'
p1024
(dp1025
g2
(lp1026
((g4
g5
tI-1
tp1027
a((g7
g5
tI-1
tp1028
a((g73
g74
tI-1
tp1029
a((g76
g77
tI-1
tp1030
a((g79
g80
tI-1
tp1031
a((g82
g83
tI-1
tp1032
a((S'DataReader'
p1033
S'tvtk_classes.data_reader'
p1034
tI-1
tp1035
a((S'DataSetReader'
p1036
S'tvtk_classes.data_set_reader'
p1037
tI-1
tp1038
asg12
g1036
sg13
(dp1039
g15
Nsg16
g45
sg18
I8
ssg16
g19
sg18
I260
sg20
g1037
sg15
(dp1040
g15
(dp1041
S'read_all_tensors_'
p1042
I0
sS'file_name'
p1043
S'/home/luis/cigma-0.9b1/doc/manual/figures/bottom-layer.vtk'
p1044
sS'read_all_vectors_'
p1045
I0
sS'read_all_vectors'
p1046
I0
sg126
I0
sS'read_all_color_scalars_'
p1047
I0
sS'read_all_t_coords'
p1048
I0
sS'read_from_input_string'
p1049
I0
sS'read_all_normals'
p1050
I0
sg113
I0
sS'read_all_scalars_'
p1051
I0
sg114
I0
sg115
F1
sg121
I0
sS'read_all_fields_'
p1052
I0
sg110
I0
sS'read_all_color_scalars'
p1053
I0
sS'read_all_fields'
p1054
I0
sS'read_from_input_string_'
p1055
I0
sS'read_all_tensors'
p1056
I0
sg124
I0
sS'read_all_normals_'
p1057
I0
sS'read_all_scalars'
p1058
I0
sS'read_all_t_coords_'
p1059
I0
sg130
I0
ssg16
g134
sg18
I261
sssS'_min_timestep'
p1060
I0
sg988
(dp1061
g15
(lp1062
(dp1063
g2
(lp1064
((g4
g5
tI-1
tp1065
a((g27
g5
tI-1
tp1066
a((g29
g30
tI-1
tp1067
a((g32
g33
tI0
tp1068
a((S'ModuleManager'
p1069
S'enthought.mayavi.core.module_manager'
p1070
tI0
tp1071
asg12
g1069
sg13
(dp1072
g15
Nsg16
g45
sg18
I1
ssg16
g19
sg18
I155
sg20
g1070
sg15
(dp1073
g15
(dp1074
g50
S''
sS'lut_data_mode'
p1075
S'auto'
p1076
sg988
(dp1077
g15
(lp1078
(dp1079
g2
(lp1080
((g4
g5
tI-1
tp1081
a((g27
g5
tI-1
tp1082
a((g29
g30
tI-1
tp1083
a((g32
g33
tI0
tp1084
a((g35
g36
tI0
tp1085
a((g38
g39
tI0
tp1086
a((g41
g42
tI0
tp1087
asg12
g41
sg13
(dp1088
g15
Nsg16
g45
sg18
I1
ssg16
g19
sg18
I158
sg20
g42
sg15
(dp1089
g15
(dp1090
g48
S''
sg49
I00
sg50
S''
sg51
(dp1091
g2
(lp1092
((g4
g5
tI-1
tp1093
a((g27
g5
tI-1
tp1094
a((g29
g30
tI-1
tp1095
a((g32
g33
tI0
tp1096
a((g35
g36
tI0
tp1097
a((g59
g60
tI0
tp1098
a((g62
g63
tI0
tp1099
asg12
g62
sg13
(dp1100
g15
Nsg16
g45
sg18
I1
ssg16
g19
sg18
I160
sg20
g63
sg15
(dp1101
g15
(dp1102
g68
(dp1103
g2
(lp1104
((g4
g5
tI-1
tp1105
a((g7
g5
tI-1
tp1106
a((g73
g74
tI-1
tp1107
a((g76
g77
tI-1
tp1108
a((g79
g80
tI-1
tp1109
a((g82
g83
tI-1
tp1110
a((g85
g86
tI-1
tp1111
a((g88
g89
tI-1
tp1112
a((g91
g92
tI-1
tp1113
a((g94
g95
tI-1
tp1114
asg12
g94
sg13
(dp1115
g15
Nsg16
g45
sg18
I8
ssg16
g19
sg18
I162
sg20
g95
sg15
(dp1116
g15
(dp1117
g101
I0
sg102
I0
sg103
g104
sg105
I0
sg106
I0
sg107
F0.01
sg108
g104
sg109
I0
sg110
I0
sg111
I0
sg112
I1
sg113
I0
sg114
I0
sg115
F1
sg116
(dp1118
g15
S'H4sIAFYGnEYC/53OsQrCMBQF0P3+SLIY0lbBQXDOksGsgjRpCoJNQ/oC5u99VL/A4Q6Pe7i8kOqS\nmwpriWqpL3qOpYwNjxLDmjYqNRByBxl2hzR9+9xDGg1ywgvQLQ98sjI96CcnajkiHyGdmM8CrFkw\nPTEb4MRFwFprDh328Jg3WnNxf2v9X2Z95W+8+gDYoI1C1QAAAA==\n'
p1119
sg16
g119
sg18
I164
ssg120
I1
sg121
I0
sg122
I0
sg123
I1
sg124
I0
sg125
I1
sg126
I0
sg127
I0
sg128
g129
sg130
I0
sg131
I0
sg132
g104
sg133
F0
ssg16
g134
sg18
I163
sssg48
S''
sg135
(dp1120
g2
(lp1121
((g4
g5
tI-1
tp1122
a((g7
g5
tI-1
tp1123
a((g73
g74
tI-1
tp1124
a((g76
g77
tI-1
tp1125
a((g79
g80
tI-1
tp1126
a((g143
g144
tI-1
tp1127
a((g146
g147
tI-1
tp1128
asg12
g146
sg13
(dp1129
g15
Nsg16
g45
sg18
I8
ssg16
g19
sg18
I171
sg20
g147
sg15
(dp1130
g15
(dp1131
g152
(dp1132
g15
Nsg16
g45
sg18
I19
ssg154
I0
sg155
F1
sg156
(dp1133
g15
Nsg16
g45
sg18
I19
ssg159
F0
sg160
I0
sg161
g162
sg163
F0.38679999999999998
sg164
I0
sg165
F1
sg166
(dp1134
g15
Nsg16
g45
sg18
I19
ssg168
(dp1135
g15
Nsg16
g45
sg18
I19
ssg121
I0
sg170
I0
sg171
F1
sg172
I0
sg126
I0
sg173
F0
sg174
I0
sg175
I65535
sg110
I0
sg176
g177
sg178
I1
sg179
F2
ssg16
g134
sg18
I172
sssg50
S''
sg51
(dp1136
g2
(lp1137
((g4
g5
tI-1
tp1138
a((g7
g5
tI-1
tp1139
a((g73
g74
tI-1
tp1140
a((g76
g77
tI-1
tp1141
a((g79
g80
tI-1
tp1142
a((g187
g188
tI-1
tp1143
a((g190
g191
tI-1
tp1144
a((g62
g193
tI-1
tp1145
asg12
g62
sg13
(dp1146
g15
Nsg16
g45
sg18
I8
ssg16
g19
sg18
I165
sg20
g193
sg15
(dp1147
g15
(dp1148
g198
(dp1149
g15
S'H4sIAFYGnEYC/7XOMQoCMRAF0P5fJGkMWVfBwguk2cK0gmyyEQQ3O8QJmNs7RK9g8YvhPz4Tc12p\nmbiVZNb65MdcytxwKylu+cWlRgYN0LE75OXb0x7aWbBXQYEvNMopyo3gn1y4UQIdoL26nxREixB6\n7Myrs8I0TW43oEfGgrNWiuvb2n9GHg7mAy0aBDD4AAAA\n'
p1150
sg16
g119
sg18
I167
ssg201
(dp1151
g15
S'H4sIAFYGnEYC/53OMQvCMBAF4P39kWQxpFbBQXDOksGsgjRpCoJtQ3oB8+89oqOTwxuO9/G4sJQ5\nVRXWHNVcnvQYch4q7jmGddkol0BIHWRoDsv46dMe0miQE16Arqnnk5XpQV85Uk0R6QDpxHQSYM2C\n6bExJ84C1lqz69DCY95ozcXtpfXvTPryf8l/evUGx/o6Le8AAAA=\n'
p1152
sg16
g119
sg18
I169
ssg204
(dp1153
g15
S'H4sIAFYGnEYC/53OsQoCMRAE0H5+JGkMOU/hCn8gTQrTCnLJRRC8XIgbMH/vEu0FiymWeQwbUl1z\nU2ErUa31Qfe5lLnhWmLY0pNKDYQ8QIbukJZPn/eQRoOc8AJ0ziOfrMwI+sqFWo7IB0gnbpMAaxZM\nj505cRKw1prdgB4e80ZrLi4vrf/P9NPww169AaZN3yn4AAAA\n'
p1154
sg16
g119
sg18
I168
ssg110
I0
sg207
I1
sg208
I1
sg209
I1
sg210
I1
sg121
I0
sg126
I0
sg211
I1
sg212
(dp1155
g15
S'H4sIAFYGnEYC/7XOMQoCMRAF0P5fJGkMWVfBwguk2cK0gmyyEQQ3O8QJmNs7RK9g8YvhPz4Tc12p\nmbiVZNb65MdcytxwKylu+cWlRgYN0LE75OXb0x7aWbBXQYEvNMopyo3gn1y4UQIdoL26nxREixB6\n7Myrs8I0TW43oEfGgrNWiuvb2n9GHg7mAy0aBDD4AAAA\n'
p1156
sg16
g119
sg18
I170
ssg215
I1
ssg16
g134
sg18
I166
ssssg16
g134
sg18
I161
sssg216
(dp1157
g2
(lp1158
((g4
g5
tI-1
tp1159
a((g27
g5
tI-1
tp1160
a((g29
g30
tI-1
tp1161
a((g32
g33
tI0
tp1162
a((g35
g36
tI0
tp1163
a((g59
g60
tI0
tp1164
a((g225
g226
tI0
tp1165
asg12
g225
sg13
(dp1166
g15
Nsg16
g45
sg18
I1
ssg16
g19
sg18
I173
sg20
g226
sg15
(dp1167
g15
(dp1168
g50
S''
sg231
I01
sg232
(dp1169
g15
Nsg16
g45
sg18
I1
ssg234
I00
sg235
F0
sg48
S''
sg236
(dp1170
g2
(lp1171
((g4
g5
tI-1
tp1172
a((g7
g5
tI-1
tp1173
a((g73
g74
tI-1
tp1174
a((g76
g77
tI-1
tp1175
a((g79
g80
tI-1
tp1176
a((g82
g83
tI-1
tp1177
a((g245
g246
tI-1
tp1178
a((g248
g249
tI-1
tp1179
asg12
g248
sg13
(dp1180
g15
Nsg16
g45
sg18
I8
ssg16
g19
sg18
I175
sg20
g249
sg15
(dp1181
g15
(dp1182
g254
I0
sg121
I0
sg255
I0
sg256
I1
sg257
I0
sg124
I0
sg258
I1
sg259
I1
sg260
I1
sg261
I0
sg262
I0
sg113
I0
sg126
I0
sg114
I0
sg130
I0
sg115
F0
sg263
I1
sg110
I0
ssg16
g134
sg18
I176
sssg264
(dp1183
g15
(lp1184
sg16
g267
sg18
I177
ssg268
(dp1185
g2
(lp1186
((g4
g5
tI-1
tp1187
a((g7
g5
tI-1
tp1188
a((g73
g74
tI-1
tp1189
a((g76
g77
tI-1
tp1190
a((g79
g80
tI-1
tp1191
a((g82
g83
tI-1
tp1192
a((g245
g246
tI-1
tp1193
a((g278
g279
tI-1
tp1194
asg12
g278
sg13
(dp1195
g15
Nsg16
g45
sg18
I8
ssg16
g19
sg18
I178
sg20
g279
sg15
(dp1196
g15
(dp1197
g126
I0
sg284
I1
sg124
I0
sg285
I1
sg103
g286
sg287
I0
sg110
I0
sg121
I0
sg113
I0
sg288
I1
sg114
I0
sg130
I0
sg115
F0
sg263
I1
sg289
I0
ssg16
g134
sg18
I179
sssg290
I01
sg263
I10
sg291
F0
ssg16
g134
sg18
I174
ssssg16
g134
sg18
I159
ssa(dp1198
g2
(lp1199
((g4
g5
tI-1
tp1200
a((g27
g5
tI-1
tp1201
a((g29
g30
tI-1
tp1202
a((g32
g33
tI0
tp1203
a((g35
g36
tI0
tp1204
a((g38
g39
tI0
tp1205
a((S'OrientationAxes'
p1206
S'enthought.mayavi.modules.orientation_axes'
p1207
tI0
tp1208
asg12
g1206
sg13
(dp1209
g15
Nsg16
g45
sg18
I1
ssg16
g19
sg18
I180
sg20
g1207
sg15
(dp1210
g15
(dp1211
S'_text_property'
p1212
(dp1213
g2
(lp1214
((g4
g5
tI-1
tp1215
a((g7
g5
tI-1
tp1216
a((g73
g74
tI-1
tp1217
a((g76
g77
tI-1
tp1218
a((g79
g80
tI-1
tp1219
a((S'TextProperty'
p1220
S'tvtk_classes.text_property'
p1221
tI-1
tp1222
asg12
g1220
sg13
(dp1223
g15
Nsg16
g45
sg18
I8
ssg16
g19
sg18
I182
sg20
g1221
sg15
(dp1224
g15
(dp1225
g163
F1
sS'justification'
p1226
S'left'
p1227
sS'font_size'
p1228
I12
sg204
F0
sS'line_offset'
p1229
F0
sS'italic_'
p1230
I0
sS'vertical_justification'
p1231
S'centered'
p1232
sS'shadow_'
p1233
I0
sg126
I0
sS'line_spacing'
p1234
F1.1000000000000001
sg741
(dp1235
g15
Nsg16
g45
sg18
I19
ssS'italic'
p1236
I0
sS'shadow_offset'
p1237
(dp1238
g15
S'H4sIAFYGnEYC/03NsQrDIBDG8f17EV0qmqRbX8DFoa6FEo2BQJOIPaG+fY+00A7/4bgfd3Gra24q\n7iWptT5oGUsZG+4lxX17UqmRkA1kPBy26bPPHaTVIC+CAF1zzyMr24G+cqKWE/IA6cUyCLBmwfTM\nrIcXFwHnnD0ZHPGxYLXmxe2lDad/zfN//DCoN80p7hW4AAAA\n'
p1239
sg16
g119
sg18
I184
ssg110
I0
sS'bold_'
p1240
I1
sS'shadow'
p1241
I0
sS'vertical_justification_'
p1242
I1
sS'font_family'
p1243
S'arial'
p1244
sg121
I0
sS'bold'
p1245
I1
ssg16
g134
sg18
I183
sssg691
(dp1246
g2
(lp1247
((g4
g5
tI-1
tp1248
a((g7
g5
tI-1
tp1249
a((g73
g74
tI-1
tp1250
a((g76
g77
tI-1
tp1251
a((g79
g80
tI-1
tp1252
a((g699
g700
tI-1
tp1253
a((g702
g703
tI-1
tp1254
asg12
g702
sg13
(dp1255
g15
Nsg16
g45
sg18
I8
ssg16
g19
sg18
I195
sg20
g703
sg15
(dp1256
g15
(dp1257
g708
S'i'
sg709
I1
sg126
I0
sg554
I1
sg710
F0.55000001192092896
sg121
I0
sg711
I0
sg712
I1
sg110
I0
sg713
I0
sg582
I1
ssg16
g134
sg18
I196
sssg48
S''
sg586
(dp1258
g2
(lp1259
((g4
g5
tI-1
tp1260
a((g7
g5
tI-1
tp1261
a((g73
g74
tI-1
tp1262
a((g76
g77
tI-1
tp1263
a((g79
g80
tI-1
tp1264
a((g187
g188
tI-1
tp1265
a((g190
g191
tI-1
tp1266
a((g596
g597
tI-1
tp1267
asg12
g596
sg13
(dp1268
g15
Nsg16
g45
sg18
I8
ssg16
g19
sg18
I185
sg20
g597
sg15
(dp1269
g15
(dp1270
g198
(dp1271
g15
S'H4sIAFYGnEYC/7XOMQoCMRAF0P5fJGkMWVfBwguk2cK0gmyyEQQ3O8QJmNs7RK9g8YvhPz4Tc12p\nmbiVZNb65MdcytxwKylu+cWlRgYN0LE75OXb0x7aWbBXQYEvNMopyo3gn1y4UQIdoL26nxREixB6\n7Myrs8I0TW43oEfGgrNWiuvb2n9GHg7mAy0aBDD4AAAA\n'
p1272
sg16
g119
sg18
I187
ssg204
(dp1273
g15
S'H4sIAFYGnEYC/53OsQoCMRAE0H5+JGkMOU/hCn8gTQrTCnLJRRC8XIgbMH/vEu0FiymWeQwbUl1z\nU2ErUa31Qfe5lLnhWmLY0pNKDYQ8QIbukJZPn/eQRoOc8AJ0ziOfrMwI+sqFWo7IB0gnbpMAaxZM\nj505cRKw1prdgB4e80ZrLi4vrf/P9NPww169AaZN3yn4AAAA\n'
p1274
sg16
g119
sg18
I188
ssg606
(dp1275
g15
S'H4sIAFYGnEYC/53OMQvCMBAF4P39ketiaK2CBcE5SwazCpImFQTbHvEC9t97VDc3hzcc7+NxcSoj\nLybOeTBjecg95BwWXPMQ5+kpuUQBN6ji6jClT89bVLaGeOoJcuZWT1W2hXxlkoUH8A6Vp9uBoFqF\n0v3KPB0Jzjm7abBGx3pb11pcXl3QdL9J3en/Uv/szRs+d+FG7wAAAA==\n'
p1276
sg16
g119
sg18
I189
ssg207
I1
sg209
I1
sg126
I0
sg211
I1
sg201
(dp1277
g15
S'H4sIAFYGnEYC/53OMQvCMBAF4P39kWQxpFbBQXDOksGsgjRpCoJtQ3oB8+89oqOTwxuO9/G4sJQ5\nVRXWHNVcnvQYch4q7jmGddkol0BIHWRoDsv46dMe0miQE16Arqnnk5XpQV85Uk0R6QDpxHQSYM2C\n6bExJ84C1lqz69DCY95ozcXtpfXvTPryf8l/evUGx/o6Le8AAAA=\n'
p1278
sg16
g119
sg18
I191
ssg612
F0.050000000000000003
sg613
I16
sg614
I16
sg615
I1
sg616
(dp1279
g15
S'H4sIAFYGnEYC/53OMQvCMBAF4P39kWQxpFbBQXDOksGsgjRpCoJtQ3oB8+89oqOTwxuO9/G4sJQ5\nVRXWHNVcnvQYch4q7jmGddkol0BIHWRoDsv46dMe0miQE16Arqnnk5XpQV85Uk0R6QDpxHQSYM2C\n6bExJ84C1lqz69DCY95ozcXtpfXvTPryf8l/evUGx/o6Le8AAAA=\n'
p1280
sg16
g119
sg18
I192
ssg215
I1
sg619
g620
sg621
S'X'
sg622
F0.40000000000000002
sg623
S'Z'
sg208
I1
sg210
I1
sg121
I0
sg624
I1
sg625
S'Y'
sg626
I0
sg627
F0.5
sg628
(dp1281
g15
S'H4sIAFYGnEYC/23NsQoCMQwG4P1/kXax9KyCg+DcpYNdBbn2KgjeXemlYN/eUB0NBBL+jyQudc5N\nxbUkNdcXPcdSxoZ7SXFdNio1EvIAGbvDMn3zvIe0GuRFEKBrNryysgb0kxO1nJAPkF48TgKsWTA9\ndubFWcA5Z3cDevOxYLXmwPS6vZO5/B/5Y1Afbh8AYbkAAAA=\n'
p1282
sg16
g119
sg18
I190
ssg631
g632
sg633
(dp1283
g15
S'H4sIAFYGnEYC/53OMQvCMBAF4P39kWQxpFbBQXDOksGsgjRpCoJtQ3oB8+89oqOTwxuO9/G4sJQ5\nVRXWHNVcnvQYch4q7jmGddkol0BIHWRoDsv46dMe0miQE16Arqnnk5XpQV85Uk0R6QDpxHQSYM2C\n6bExJ84C1lqz69DCY95ozcXtpfXvTPryf8l/evUGx/o6Le8AAAA=\n'
p1284
sg16
g119
sg18
I193
ssg110
I0
sg212
(dp1285
g15
S'H4sIAFYGnEYC/7XOMQoCMRAF0P5fJGkMWVfBwguk2cK0gmyyEQQ3O8QJmNs7RK9g8YvhPz4Tc12p\nmbiVZNb65MdcytxwKylu+cWlRgYN0LE75OXb0x7aWbBXQYEvNMopyo3gn1y4UQIdoL26nxREixB6\n7Myrs8I0TW43oEfGgrNWiuvb2n9GHg7mAy0aBDD4AAAA\n'
p1286
sg16
g119
sg18
I194
ssg609
I16
ssg16
g134
sg18
I186
sssg50
S''
ssg16
g134
sg18
I181
ssa(dp1287
g2
(lp1288
((g4
g5
tI-1
tp1289
a((g27
g5
tI-1
tp1290
a((g29
g30
tI-1
tp1291
a((g32
g33
tI0
tp1292
a((g35
g36
tI0
tp1293
a((g38
g39
tI0
tp1294
a((S'Outline'
p1295
S'enthought.mayavi.modules.outline'
p1296
tI0
tp1297
asg12
g1295
sg13
(dp1298
g15
Nsg16
g45
sg18
I1
ssg16
g19
sg18
I197
sg20
g1296
sg15
(dp1299
g15
(dp1300
S'outline_filter'
p1301
(dp1302
g2
(lp1303
((g4
g5
tI-1
tp1304
a((g7
g5
tI-1
tp1305
a((g73
g74
tI-1
tp1306
a((g76
g77
tI-1
tp1307
a((g79
g80
tI-1
tp1308
a((g82
g83
tI-1
tp1309
a((g245
g246
tI-1
tp1310
a((S'OutlineFilter'
p1311
S'tvtk_classes.outline_filter'
p1312
tI-1
tp1313
asg12
g1311
sg13
(dp1314
g15
Nsg16
g45
sg18
I8
ssg16
g19
sg18
I212
sg20
g1312
sg15
(dp1315
g15
(dp1316
g124
I0
sg130
I0
sg126
I0
sg121
I0
sg113
I0
sg114
I0
sg110
I0
sg115
F1
ssg16
g134
sg18
I213
sssg48
S''
sg50
S''
sg51
(dp1317
g2
(lp1318
((g4
g5
tI-1
tp1319
a((g27
g5
tI-1
tp1320
a((g29
g30
tI-1
tp1321
a((g32
g33
tI0
tp1322
a((g35
g36
tI0
tp1323
a((g59
g60
tI0
tp1324
a((g62
g63
tI0
tp1325
asg12
g62
sg13
(dp1326
g15
Nsg16
g45
sg18
I1
ssg16
g19
sg18
I199
sg20
g63
sg15
(dp1327
g15
(dp1328
g68
(dp1329
g2
(lp1330
((g4
g5
tI-1
tp1331
a((g7
g5
tI-1
tp1332
a((g73
g74
tI-1
tp1333
a((g76
g77
tI-1
tp1334
a((g79
g80
tI-1
tp1335
a((g82
g83
tI-1
tp1336
a((g85
g86
tI-1
tp1337
a((g88
g89
tI-1
tp1338
a((g91
g92
tI-1
tp1339
a((g375
g376
tI-1
tp1340
asg12
g375
sg13
(dp1341
g15
Nsg16
g45
sg18
I8
ssg16
g19
sg18
I201
sg20
g376
sg15
(dp1342
g15
(dp1343
g101
I0
sg102
I0
sg103
g104
sg105
I0
sg126
I0
sg107
F0.01
sg381
I0
sg108
g104
sg109
I0
sg110
I0
sg111
I0
sg112
I1
sg113
I0
sg114
I0
sg115
F1
sg116
(dp1344
g15
S'H4sIAFYGnEYC/53OsQrCMBQF0P3+SLIY0lbBQXDOksGsgjRpCoJNQ/oC5u99VL/A4Q6Pe7i8kOqS\nmwpriWqpL3qOpYwNjxLDmjYqNRByBxl2hzR9+9xDGg1ywgvQLQ98sjI96CcnajkiHyGdmM8CrFkw\nPTEb4MRFwFprDh328Jg3WnNxf2v9X2Z95W+8+gDYoI1C1QAAAA==\n'
p1345
sg16
g119
sg18
I203
ssg120
I1
sg121
I0
sg122
I0
sg123
I1
sg124
I0
sg125
I1
sg106
I0
sg131
I0
sg127
I0
sg384
I1
sg132
g104
sg130
I0
sg385
I0
sg386
I1
sg128
g129
sg133
F0
ssg16
g134
sg18
I202
sssg48
S''
sg135
(dp1346
g2
(lp1347
((g4
g5
tI-1
tp1348
a((g7
g5
tI-1
tp1349
a((g73
g74
tI-1
tp1350
a((g76
g77
tI-1
tp1351
a((g79
g80
tI-1
tp1352
a((g143
g144
tI-1
tp1353
a((g146
g147
tI-1
tp1354
asg12
g146
sg13
(dp1355
g15
Nsg16
g45
sg18
I8
ssg16
g19
sg18
I210
sg20
g147
sg15
(dp1356
g15
(dp1357
g152
(dp1358
g15
Nsg16
g45
sg18
I19
ssg154
I0
sg155
F1
sg156
(dp1359
g15
Nsg16
g45
sg18
I19
ssg159
F0
sg160
I0
sg161
g162
sg163
F1
sg164
I0
sg165
F1
sg166
(dp1360
g15
Nsg16
g45
sg18
I19
ssg168
(dp1361
g15
Nsg16
g45
sg18
I19
ssg121
I0
sg170
I0
sg171
F1
sg172
I0
sg126
I0
sg173
F0
sg174
I0
sg175
I65535
sg110
I0
sg176
g177
sg178
I1
sg179
F1
ssg16
g134
sg18
I211
sssg50
S''
sg51
(dp1362
g2
(lp1363
((g4
g5
tI-1
tp1364
a((g7
g5
tI-1
tp1365
a((g73
g74
tI-1
tp1366
a((g76
g77
tI-1
tp1367
a((g79
g80
tI-1
tp1368
a((g187
g188
tI-1
tp1369
a((g190
g191
tI-1
tp1370
a((g62
g193
tI-1
tp1371
asg12
g62
sg13
(dp1372
g15
Nsg16
g45
sg18
I8
ssg16
g19
sg18
I204
sg20
g193
sg15
(dp1373
g15
(dp1374
g198
(dp1375
g15
S'H4sIAFYGnEYC/7XOMQoCMRAF0P5fJGkMWVfBwguk2cK0gmyyEQQ3O8QJmNs7RK9g8YvhPz4Tc12p\nmbiVZNb65MdcytxwKylu+cWlRgYN0LE75OXb0x7aWbBXQYEvNMopyo3gn1y4UQIdoL26nxREixB6\n7Myrs8I0TW43oEfGgrNWiuvb2n9GHg7mAy0aBDD4AAAA\n'
p1376
sg16
g119
sg18
I206
ssg201
(dp1377
g15
S'H4sIAFYGnEYC/53OMQvCMBAF4P39kWQxpFbBQXDOksGsgjRpCoJtQ3oB8+89oqOTwxuO9/G4sJQ5\nVRXWHNVcnvQYch4q7jmGddkol0BIHWRoDsv46dMe0miQE16Arqnnk5XpQV85Uk0R6QDpxHQSYM2C\n6bExJ84C1lqz69DCY95ozcXtpfXvTPryf8l/evUGx/o6Le8AAAA=\n'
p1378
sg16
g119
sg18
I208
ssg204
(dp1379
g15
S'H4sIAFYGnEYC/53OsQoCMRAE0H5+JGkMOU/hCn8gTQrTCnLJRRC8XIgbMH/vEu0FiymWeQwbUl1z\nU2ErUa31Qfe5lLnhWmLY0pNKDYQ8QIbukJZPn/eQRoOc8AJ0ziOfrMwI+sqFWo7IB0gnbpMAaxZM\nj505cRKw1prdgB4e80ZrLi4vrf/P9NPww169AaZN3yn4AAAA\n'
p1380
sg16
g119
sg18
I207
ssg110
I0
sg207
I1
sg208
I1
sg209
I1
sg210
I1
sg121
I0
sg126
I0
sg211
I1
sg212
(dp1381
g15
S'H4sIAFYGnEYC/7XOMQoCMRAF0P5fJGkMWVfBwguk2cK0gmyyEQQ3O8QJmNs7RK9g8YvhPz4Tc12p\nmbiVZNb65MdcytxwKylu+cWlRgYN0LE75OXb0x7aWbBXQYEvNMopyo3gn1y4UQIdoL26nxREixB6\n7Myrs8I0TW43oEfGgrNWiuvb2n9GHg7mAy0aBDD4AAAA\n'
p1382
sg16
g119
sg18
I209
ssg215
I1
ssg16
g134
sg18
I205
ssssg16
g134
sg18
I200
ssssg16
g134
sg18
I198
ssasg16
g267
sg18
I157
ssg48
S''
sS'scalar_lut_manager'
p1383
(dp1384
g2
(lp1385
((g4
g5
tI-1
tp1386
a((g27
g5
tI-1
tp1387
a((g29
g30
tI-1
tp1388
a((g32
g33
tI0
tp1389
a((S'LUTManager'
p1390
S'enthought.mayavi.core.lut_manager'
p1391
tI0
tp1392
asg12
g1390
sg13
(dp1393
g15
Nsg16
g45
sg18
I1
ssg16
g19
sg18
I214
sg20
g1391
sg15
(dp1394
g15
(dp1395
S'default_data_range'
p1396
(dp1397
g15
S'H4sIAFYGnEYC/53OsQrCMBQF0P3+SLIY0lbBQXDOksGsgjRpCoJNQ/oC5u99VL/A4Q6Pe7i8kOqS\nmwpriWqpL3qOpYwNjxLDmjYqNRByBxl2hzR9+9xDGg1ywgvQLQ98sjI96CcnajkiHyGdmM8CrFkw\nPTEb4MRFwFprDh328Jg3WnNxf2v9X2Z95W+8+gDYoI1C1QAAAA==\n'
p1398
sg16
g119
sg18
I221
ssS'use_default_name'
p1399
I01
sS'lut'
p1400
(dp1401
g2
(lp1402
((g4
g5
tI-1
tp1403
a((g7
g5
tI-1
tp1404
a((g73
g74
tI-1
tp1405
a((g76
g77
tI-1
tp1406
a((g79
g80
tI-1
tp1407
a((S'ScalarsToColors'
p1408
S'tvtk_classes.scalars_to_colors'
p1409
tI-1
tp1410
a((S'LookupTable'
p1411
S'tvtk_classes.lookup_table'
p1412
tI-1
tp1413
asg12
g1411
sg13
(dp1414
g15
Nsg16
g45
sg18
I8
ssg16
g19
sg18
I222
sg20
g1412
sg15
(dp1415
g15
(dp1416
S'ramp_'
p1417
I2
sg201
S'linear'
p1418
sS'saturation_range'
p1419
(dp1420
g15
S'H4sIAFYGnEYC/33OMQvCMBAF4P39kWQxpK2Cg+CcJYNZBWnSFASbhngB8+89qqM4vOF4H48LqS65\nqbCWqJb6oPtYythwKzGs6UmlBkLuIMPmkKZPn3tIo0FOeAG65IFPVqYHfeVELUfkPaQT81GANQum\nB2YDnDgJWGvNrsMWHvNGay6uL61/Z9bnvyW/4tUbw9sFJ9IAAAA=\n'
p1421
sg16
g119
sg18
I224
ssS'table_range'
p1422
(dp1423
g15
S'H4sIAFYGnEYC/53OsQrCMBQF0P3+SLIY0lbBQXDOksGsgjRpCoJNQ/oC5u99VL/A4Q6Pe7i8kOqS\nmwpriWqpL3qOpYwNjxLDmjYqNRByBxl2hzR9+9xDGg1ywgvQLQ98sjI96CcnajkiHyGdmM8CrFkw\nPTEb4MRFwFprDh328Jg3WnNxf2v9X2Z95W+8+gDYoI1C1QAAAA==\n'
p1424
sg16
g119
sg18
I226
ssS'hue_range'
p1425
(dp1426
g15
S'H4sIAFYGnEYC/33OMQvCMBAF4P39kXSxpK3FCopzEDpY3ALSpBEKNg3xCum/96jODm94vI/jrF+m\nsOZ2ji6flheNfYz9ikd0dvZvioslhAKZ3Rz88N1DiUxJUCeMAN1CxZWVKkE/OdAaHMIeWSeejQBr\nFkxrZhU6cRJo21btCmzhY0ZJycNVJ9voJA9nnY7mrpOrL1zlv/ATJv8A/YiyW8wAAAA=\n'
p1427
sg16
g119
sg18
I225
ssS'number_of_table_values'
p1428
I256
sS'ramp'
p1429
S'sqrt'
p1430
sg126
I0
sS'number_of_colors'
p1431
I256
sS'alpha_range'
p1432
(dp1433
g15
S'H4sIAFYGnEYC/33OMQvCMBAF4P39kWQxpK2Cg+CcJYNZBWnSFASbhngB8+89qqM4vOF4H48LqS65\nqbCWqJb6oPtYythwKzGs6UmlBkLuIMPmkKZPn3tIo0FOeAG65IFPVqYHfeVELUfkPaQT81GANQum\nB2YDnDgJWGvNrsMWHvNGay6uL61/Z9bnvyW/4tUbw9sFJ9IAAAA=\n'
p1434
sg16
g119
sg18
I227
ssS'vector_component'
p1435
I0
sS'value_range'
p1436
(dp1437
g15
S'H4sIAFYGnEYC/33OMQvCMBAF4P39kWQxpK2Cg+CcJYNZBWnSFASbhngB8+89qqM4vOF4H48LqS65\nqbCWqJb6oPtYythwKzGs6UmlBkLuIMPmkKZPn3tIo0FOeAG65IFPVqYHfeVELUfkPaQT81GANQum\nB2YDnDgJWGvNrsMWHvNGay6uL61/Z9bnvyW/4tUbw9sFJ9IAAAA=\n'
p1438
sg16
g119
sg18
I228
ssg110
I0
sS'alpha'
p1439
F1
sS'vector_mode'
p1440
S'component'
p1441
sg121
I0
ssg16
g134
sg18
I223
sssS'_label_text_property'
p1442
(dp1443
g2
(lp1444
((g4
g5
tI-1
tp1445
a((g7
g5
tI-1
tp1446
a((g73
g74
tI-1
tp1447
a((g76
g77
tI-1
tp1448
a((g79
g80
tI-1
tp1449
a((g1220
g1221
tI-1
tp1450
asg12
g1220
sg13
(dp1451
g15
Nsg16
g45
sg18
I8
ssg16
g19
sg18
I216
sg20
g1221
sg15
(dp1452
g15
(dp1453
g163
F1
sg1226
g1227
sg1228
I12
sg204
F0
sg1229
F0
sg1230
I1
sg1231
S'bottom'
p1454
sg1233
I0
sg126
I0
sg1234
F1.1000000000000001
sg741
(dp1455
g15
Nsg16
g45
sg18
I19
ssg1236
I1
sg1237
(dp1456
g15
S'H4sIAFYGnEYC/03NsQrDIBDG8f17EV0qmqRbX8DFoa6FEo2BQJOIPaG+fY+00A7/4bgfd3Gra24q\n7iWptT5oGUsZG+4lxX17UqmRkA1kPBy26bPPHaTVIC+CAF1zzyMr24G+cqKWE/IA6cUyCLBmwfTM\nrIcXFwHnnD0ZHPGxYLXmxe2lDad/zfN//DCoN80p7hW4AAAA\n'
p1457
sg16
g119
sg18
I218
ssg110
I0
sg1240
I1
sg1241
I0
sg1243
g1244
sg121
I0
sg1245
I1
ssg16
g134
sg18
I217
sssS'_title_text_property'
p1458
(dp1459
g2
(lp1460
((g4
g5
tI-1
tp1461
a((g7
g5
tI-1
tp1462
a((g73
g74
tI-1
tp1463
a((g76
g77
tI-1
tp1464
a((g79
g80
tI-1
tp1465
a((g1220
g1221
tI-1
tp1466
asg12
g1220
sg13
(dp1467
g15
Nsg16
g45
sg18
I8
ssg16
g19
sg18
I229
sg20
g1221
sg15
(dp1468
g15
(dp1469
g163
F1
sg1226
g1227
sg1228
I12
sg204
F0
sg1229
F0
sg1230
I1
sg1231
g1454
sg1233
I0
sg126
I0
sg1234
F1.1000000000000001
sg741
(dp1470
g15
Nsg16
g45
sg18
I19
ssg1236
I1
sg1237
(dp1471
g15
S'H4sIAFYGnEYC/03NsQrDIBDG8f17EV0qmqRbX8DFoa6FEo2BQJOIPaG+fY+00A7/4bgfd3Gra24q\n7iWptT5oGUsZG+4lxX17UqmRkA1kPBy26bPPHaTVIC+CAF1zzyMr24G+cqKWE/IA6cUyCLBmwfTM\nrIcXFwHnnD0ZHPGxYLXmxe2lDad/zfN//DCoN80p7hW4AAAA\n'
p1472
sg16
g119
sg18
I231
ssg110
I0
sg1240
I1
sg1241
I0
sg1243
g1244
sg121
I0
sg1245
I1
ssg16
g134
sg18
I230
sssS'scalar_bar_widget'
p1473
(dp1474
g2
(lp1475
((g4
g5
tI-1
tp1476
a((g7
g5
tI-1
tp1477
a((g73
g74
tI-1
tp1478
a((g76
g77
tI-1
tp1479
a((g79
g80
tI-1
tp1480
a((g699
g700
tI-1
tp1481
a((S'ScalarBarWidget'
p1482
S'tvtk_classes.scalar_bar_widget'
p1483
tI-1
tp1484
asg12
g1482
sg13
(dp1485
g15
Nsg16
g45
sg18
I8
ssg16
g19
sg18
I219
sg20
g1483
sg15
(dp1486
g15
(dp1487
g708
S'i'
sg709
I0
sg126
I0
sg710
F0.55000001192092896
sg121
I0
sg711
I0
sg712
I0
sg110
I0
sg713
I0
ssg16
g134
sg18
I220
sssg1043
S''
sS'data_name'
p1488
S'No scalars'
p1489
sS'data_range'
p1490
(dp1491
g15
Nsg16
g45
sg18
I221
ssg50
S''
sg1431
I256
sS'default_data_name'
p1492
g1489
sg48
S''
sS'use_default_range'
p1493
I01
sS'number_of_labels'
p1494
I8
sS'show_scalar_bar'
p1495
I00
sS'scalar_bar'
p1496
(dp1497
g2
(lp1498
((g4
g5
tI-1
tp1499
a((g7
g5
tI-1
tp1500
a((g73
g74
tI-1
tp1501
a((g76
g77
tI-1
tp1502
a((g79
g80
tI-1
tp1503
a((g187
g188
tI-1
tp1504
a((S'Actor2D'
p1505
S'tvtk_classes.actor2d'
p1506
tI-1
tp1507
a((S'ScalarBarActor'
p1508
S'tvtk_classes.scalar_bar_actor'
p1509
tI-1
tp1510
asg12
g1508
sg13
(dp1511
g15
Nsg16
g45
sg18
I8
ssg16
g19
sg18
I232
sg20
g1509
sg15
(dp1512
g15
(dp1513
g126
I0
sg215
I1
sg204
S'horizontal'
p1514
sS'width'
p1515
F0.80000000000000004
sS'label_format'
p1516
S'%-#6.3g'
p1517
sg1494
I8
sg207
I1
sg208
I1
sg209
I1
sg210
I1
sg121
I0
sS'maximum_number_of_colors'
p1518
I256
sS'orientation_'
p1519
I0
sS'position2'
p1520
(dp1521
g15
S'H4sIAFYGnEYC/2XOMQuDMBAF4P39kWSpaGxAoeCcxaGugaIxQqFqSC8Q/30P263DGx7v4zi3pTUc\nhdujL9b0oucY43jgEb3btzfF5AihgnSnwzZ/96AgTQkaxCRA91BzZWUU6CdnOoJHuEIOYmkEWLNg\nqpnVGMRNoO97c6lwho9Npix5sLkdOe1/fNvZ7GqbFy2ttblZuCqO7viLqfgAbt3QTs0AAAA=\n'
p1522
sg16
g119
sg18
I235
ssg211
I1
sg212
(dp1523
g15
S'H4sIAFYGnEYC/2XOMQuDMBAF4P39kbhUjFpQKDiWLA51DZQkplCoGtITYvvne9huHd5wvI/HuXmd\nwpa7Jfp8Wh90NzGaDdfo3TI/Ka6OECQytzvM47cPJTJVgAZhBegSKj5ZqRL0kyNtwSPUyAZxawRY\ns2B6ZFZhECeBvu/VQWIPj1lVFFzo1BpO+x/bdm+dZK2T8WedvHzp1NQdf2DzD7ndMtDJAAAA\n'
p1524
sg16
g119
sg18
I234
ssS'height'
p1525
F0.17000000000000001
sg110
I0
sS'layer_number'
p1526
I0
ssg16
g134
sg18
I233
sssS'_orig_data_range'
p1527
(dp1528
g15
S'H4sIAFYGnEYC/53OsQrCMBQF0P3+SLIY0lbBQXDOksGsgjRpCoJNQ/oC5u99VL/A4Q6Pe7i8kOqS\nmwpriWqpL3qOpYwNjxLDmjYqNRByBxl2hzR9+9xDGg1ywgvQLQ98sjI96CcnajkiHyGdmM8CrFkw\nPTEb4MRFwFprDh328Jg3WnNxf2v9X2Z95W+8+gDYoI1C1QAAAA==\n'
p1529
sg16
g119
sg18
I236
ssg1241
I00
sS'lut_mode'
p1530
S'blue-red'
p1531
sS'reverse_lut'
p1532
I00
ssg16
g134
sg18
I215
sssS'vector_lut_manager'
p1533
(dp1534
g2
(lp1535
((g4
g5
tI-1
tp1536
a((g27
g5
tI-1
tp1537
a((g29
g30
tI-1
tp1538
a((g32
g33
tI0
tp1539
a((g1390
g1391
tI0
tp1540
asg12
g1390
sg13
(dp1541
g15
Nsg16
g45
sg18
I1
ssg16
g19
sg18
I237
sg20
g1391
sg15
(dp1542
g15
(dp1543
g1396
(dp1544
g15
S'H4sIAFYGnEYC/53OsQrCMBQF0P3+SLIY0lbBQXDOksGsgjRpCoJNQ/oC5u99VL/A4Q6Pe7i8kOqS\nmwpriWqpL3qOpYwNjxLDmjYqNRByBxl2hzR9+9xDGg1ywgvQLQ98sjI96CcnajkiHyGdmM8CrFkw\nPTEb4MRFwFprDh328Jg3WnNxf2v9X2Z95W+8+gDYoI1C1QAAAA==\n'
p1545
sg16
g119
sg18
I244
ssg1399
I01
sg1400
(dp1546
g2
(lp1547
((g4
g5
tI-1
tp1548
a((g7
g5
tI-1
tp1549
a((g73
g74
tI-1
tp1550
a((g76
g77
tI-1
tp1551
a((g79
g80
tI-1
tp1552
a((g1408
g1409
tI-1
tp1553
a((g1411
g1412
tI-1
tp1554
asg12
g1411
sg13
(dp1555
g15
Nsg16
g45
sg18
I8
ssg16
g19
sg18
I245
sg20
g1412
sg15
(dp1556
g15
(dp1557
g1417
I2
sg201
g1418
sg1419
(dp1558
g15
S'H4sIAFYGnEYC/33OMQvCMBAF4P39kWQxpK2Cg+CcJYNZBWnSFASbhngB8+89qqM4vOF4H48LqS65\nqbCWqJb6oPtYythwKzGs6UmlBkLuIMPmkKZPn3tIo0FOeAG65IFPVqYHfeVELUfkPaQT81GANQum\nB2YDnDgJWGvNrsMWHvNGay6uL61/Z9bnvyW/4tUbw9sFJ9IAAAA=\n'
p1559
sg16
g119
sg18
I247
ssg1422
(dp1560
g15
S'H4sIAFYGnEYC/53OsQrCMBQF0P3+SLIY0lbBQXDOksGsgjRpCoJNQ/oC5u99VL/A4Q6Pe7i8kOqS\nmwpriWqpL3qOpYwNjxLDmjYqNRByBxl2hzR9+9xDGg1ywgvQLQ98sjI96CcnajkiHyGdmM8CrFkw\nPTEb4MRFwFprDh328Jg3WnNxf2v9X2Z95W+8+gDYoI1C1QAAAA==\n'
p1561
sg16
g119
sg18
I249
ssg1425
(dp1562
g15
S'H4sIAFYGnEYC/33OMQvCMBAF4P39kXSxpK3FCopzEDpY3ALSpBEKNg3xCum/96jODm94vI/jrF+m\nsOZ2ji6flheNfYz9ikd0dvZvioslhAKZ3Rz88N1DiUxJUCeMAN1CxZWVKkE/OdAaHMIeWSeejQBr\nFkxrZhU6cRJo21btCmzhY0ZJycNVJ9voJA9nnY7mrpOrL1zlv/ATJv8A/YiyW8wAAAA=\n'
p1563
sg16
g119
sg18
I248
ssg1428
I256
sg1429
g1430
sg126
I0
sg1431
I256
sg1432
(dp1564
g15
S'H4sIAFYGnEYC/33OMQvCMBAF4P39kWQxpK2Cg+CcJYNZBWnSFASbhngB8+89qqM4vOF4H48LqS65\nqbCWqJb6oPtYythwKzGs6UmlBkLuIMPmkKZPn3tIo0FOeAG65IFPVqYHfeVELUfkPaQT81GANQum\nB2YDnDgJWGvNrsMWHvNGay6uL61/Z9bnvyW/4tUbw9sFJ9IAAAA=\n'
p1565
sg16
g119
sg18
I250
ssg1435
I0
sg1436
(dp1566
g15
S'H4sIAFYGnEYC/33OMQvCMBAF4P39kWQxpK2Cg+CcJYNZBWnSFASbhngB8+89qqM4vOF4H48LqS65\nqbCWqJb6oPtYythwKzGs6UmlBkLuIMPmkKZPn3tIo0FOeAG65IFPVqYHfeVELUfkPaQT81GANQum\nB2YDnDgJWGvNrsMWHvNGay6uL61/Z9bnvyW/4tUbw9sFJ9IAAAA=\n'
p1567
sg16
g119
sg18
I251
ssg110
I0
sg1439
F1
sg1440
g1441
sg121
I0
ssg16
g134
sg18
I246
sssg1442
(dp1568
g2
(lp1569
((g4
g5
tI-1
tp1570
a((g7
g5
tI-1
tp1571
a((g73
g74
tI-1
tp1572
a((g76
g77
tI-1
tp1573
a((g79
g80
tI-1
tp1574
a((g1220
g1221
tI-1
tp1575
asg12
g1220
sg13
(dp1576
g15
Nsg16
g45
sg18
I8
ssg16
g19
sg18
I239
sg20
g1221
sg15
(dp1577
g15
(dp1578
g163
F1
sg1226
g1227
sg1228
I12
sg204
F0
sg1229
F0
sg1230
I1
sg1231
g1454
sg1233
I0
sg126
I0
sg1234
F1.1000000000000001
sg741
(dp1579
g15
Nsg16
g45
sg18
I19
ssg1236
I1
sg1237
(dp1580
g15
S'H4sIAFYGnEYC/03NsQrDIBDG8f17EV0qmqRbX8DFoa6FEo2BQJOIPaG+fY+00A7/4bgfd3Gra24q\n7iWptT5oGUsZG+4lxX17UqmRkA1kPBy26bPPHaTVIC+CAF1zzyMr24G+cqKWE/IA6cUyCLBmwfTM\nrIcXFwHnnD0ZHPGxYLXmxe2lDad/zfN//DCoN80p7hW4AAAA\n'
p1581
sg16
g119
sg18
I241
ssg110
I0
sg1240
I1
sg1241
I0
sg1243
g1244
sg121
I0
sg1245
I1
ssg16
g134
sg18
I240
sssg1458
(dp1582
g2
(lp1583
((g4
g5
tI-1
tp1584
a((g7
g5
tI-1
tp1585
a((g73
g74
tI-1
tp1586
a((g76
g77
tI-1
tp1587
a((g79
g80
tI-1
tp1588
a((g1220
g1221
tI-1
tp1589
asg12
g1220
sg13
(dp1590
g15
Nsg16
g45
sg18
I8
ssg16
g19
sg18
I252
sg20
g1221
sg15
(dp1591
g15
(dp1592
g163
F1
sg1226
g1227
sg1228
I12
sg204
F0
sg1229
F0
sg1230
I1
sg1231
g1454
sg1233
I0
sg126
I0
sg1234
F1.1000000000000001
sg741
(dp1593
g15
Nsg16
g45
sg18
I19
ssg1236
I1
sg1237
(dp1594
g15
S'H4sIAFYGnEYC/03NsQrDIBDG8f17EV0qmqRbX8DFoa6FEo2BQJOIPaG+fY+00A7/4bgfd3Gra24q\n7iWptT5oGUsZG+4lxX17UqmRkA1kPBy26bPPHaTVIC+CAF1zzyMr24G+cqKWE/IA6cUyCLBmwfTM\nrIcXFwHnnD0ZHPGxYLXmxe2lDad/zfN//DCoN80p7hW4AAAA\n'
p1595
sg16
g119
sg18
I254
ssg110
I0
sg1240
I1
sg1241
I0
sg1243
g1244
sg121
I0
sg1245
I1
ssg16
g134
sg18
I253
sssg1473
(dp1596
g2
(lp1597
((g4
g5
tI-1
tp1598
a((g7
g5
tI-1
tp1599
a((g73
g74
tI-1
tp1600
a((g76
g77
tI-1
tp1601
a((g79
g80
tI-1
tp1602
a((g699
g700
tI-1
tp1603
a((g1482
g1483
tI-1
tp1604
asg12
g1482
sg13
(dp1605
g15
Nsg16
g45
sg18
I8
ssg16
g19
sg18
I242
sg20
g1483
sg15
(dp1606
g15
(dp1607
g708
S'i'
sg709
I0
sg126
I0
sg710
F0.55000001192092896
sg121
I0
sg711
I0
sg712
I0
sg110
I0
sg713
I0
ssg16
g134
sg18
I243
sssg1043
S''
sg1488
S'No vectors'
p1608
sg1490
(dp1609
g15
Nsg16
g45
sg18
I244
ssg50
S''
sg1431
I256
sg1492
g1608
sg48
S''
sg1493
I01
sg1494
I8
sg1495
I00
sg1496
(dp1610
g2
(lp1611
((g4
g5
tI-1
tp1612
a((g7
g5
tI-1
tp1613
a((g73
g74
tI-1
tp1614
a((g76
g77
tI-1
tp1615
a((g79
g80
tI-1
tp1616
a((g187
g188
tI-1
tp1617
a((g1505
g1506
tI-1
tp1618
a((g1508
g1509
tI-1
tp1619
asg12
g1508
sg13
(dp1620
g15
Nsg16
g45
sg18
I8
ssg16
g19
sg18
I255
sg20
g1509
sg15
(dp1621
g15
(dp1622
g126
I0
sg215
I1
sg204
g1514
sg1515
F0.80000000000000004
sg1516
S'%-#6.3g'
p1623
sg1494
I8
sg207
I1
sg208
I1
sg209
I1
sg210
I1
sg121
I0
sg1518
I256
sg1519
I0
sg1520
(dp1624
g15
S'H4sIAFYGnEYC/2XOMQuDMBAF4P39kWSpaGxAoeCcxaGugaIxQqFqSC8Q/30P263DGx7v4zi3pTUc\nhdujL9b0oucY43jgEb3btzfF5AihgnSnwzZ/96AgTQkaxCRA91BzZWUU6CdnOoJHuEIOYmkEWLNg\nqpnVGMRNoO97c6lwho9Npix5sLkdOe1/fNvZ7GqbFy2ttblZuCqO7viLqfgAbt3QTs0AAAA=\n'
p1625
sg16
g119
sg18
I258
ssg211
I1
sg212
(dp1626
g15
S'H4sIAFYGnEYC/2XOMQuDMBAF4P39kbhUjFpQKDiWLA51DZQkplCoGtITYvvne9huHd5wvI/HuXmd\nwpa7Jfp8Wh90NzGaDdfo3TI/Ka6OECQytzvM47cPJTJVgAZhBegSKj5ZqRL0kyNtwSPUyAZxawRY\ns2B6ZFZhECeBvu/VQWIPj1lVFFzo1BpO+x/bdm+dZK2T8WedvHzp1NQdf2DzD7ndMtDJAAAA\n'
p1627
sg16
g119
sg18
I257
ssg1525
F0.17000000000000001
sg110
I0
sg1526
I0
ssg16
g134
sg18
I256
sssg1527
(dp1628
g15
S'H4sIAFYGnEYC/53OsQrCMBQF0P3+SLIY0lbBQXDOksGsgjRpCoJNQ/oC5u99VL/A4Q6Pe7i8kOqS\nmwpriWqpL3qOpYwNjxLDmjYqNRByBxl2hzR9+9xDGg1ywgvQLQ98sjI96CcnajkiHyGdmM8CrFkw\nPTEb4MRFwFprDh328Jg3WnNxf2v9X2Z95W+8+gDYoI1C1QAAAA==\n'
p1629
sg16
g119
sg18
I259
ssg1241
I00
sg1530
g1531
sg1532
I00
ssg16
g134
sg18
I238
ssssg16
g134
sg18
I156
ssasg16
g267
sg18
I154
ssS'_max_timestep'
p1630
I0
ssg16
g134
sg18
I153
ssa(dp1631
g2
(lp1632
((g4
g5
tI-1
tp1633
a((g27
g5
tI-1
tp1634
a((g29
g30
tI-1
tp1635
a((g32
g33
tI0
tp1636
a((g35
g36
tI0
tp1637
a((g998
g999
tI0
tp1638
a((g1001
g1002
tI0
tp1639
a((g1004
g1005
tI0
tp1640
asg12
g1004
sg13
(dp1641
g15
Nsg16
g45
sg18
I1
ssg16
g19
sg18
I264
sg20
g1005
sg15
(dp1642
g15
(dp1643
g50
S''
sg1010
(dp1644
g2
(lp1645
((g1013
g1014
tI-1
tp1646
asg12
g1013
sg13
(dp1647
g15
Nsg16
g45
sg18
I1
ssg16
g19
sg18
I357
sg20
g1014
sg15
(dp1648
g15
(dp1649
g1019
S'top-layer.vtk'
p1650
sg1021
S'/home/luis/cigma-0.9b1/doc/manual/figures/top-layer.vtk'
p1651
ssg16
g134
sg18
I358
sssg48
S''
sg1023
I0
sg1024
(dp1652
g2
(lp1653
((g4
g5
tI-1
tp1654
a((g7
g5
tI-1
tp1655
a((g73
g74
tI-1
tp1656
a((g76
g77
tI-1
tp1657
a((g79
g80
tI-1
tp1658
a((g82
g83
tI-1
tp1659
a((g1033
g1034
tI-1
tp1660
a((g1036
g1037
tI-1
tp1661
asg12
g1036
sg13
(dp1662
g15
Nsg16
g45
sg18
I8
ssg16
g19
sg18
I355
sg20
g1037
sg15
(dp1663
g15
(dp1664
g1042
I0
sg1043
S'/home/luis/cigma-0.9b1/doc/manual/figures/top-layer.vtk'
p1665
sg1045
I0
sg1046
I0
sg126
I0
sg1047
I0
sg1048
I0
sg1049
I0
sg1050
I0
sg113
I0
sg1051
I0
sg114
I0
sg115
F1
sg121
I0
sg1052
I0
sg110
I0
sg1053
I0
sg1054
I0
sg1055
I0
sg1056
I0
sg124
I0
sg1057
I0
sg1058
I0
sg1059
I0
sg130
I0
ssg16
g134
sg18
I356
sssg1060
I0
sg988
(dp1666
g15
(lp1667
(dp1668
g2
(lp1669
((g4
g5
tI-1
tp1670
a((g27
g5
tI-1
tp1671
a((g29
g30
tI-1
tp1672
a((g32
g33
tI0
tp1673
a((g1069
g1070
tI0
tp1674
asg12
g1069
sg13
(dp1675
g15
Nsg16
g45
sg18
I1
ssg16
g19
sg18
I267
sg20
g1070
sg15
(dp1676
g15
(dp1677
g50
S''
sg1075
g1076
sg988
(dp1678
g15
(lp1679
(dp1680
g2
(lp1681
((g4
g5
tI-1
tp1682
a((g27
g5
tI-1
tp1683
a((g29
g30
tI-1
tp1684
a((g32
g33
tI0
tp1685
a((g35
g36
tI0
tp1686
a((g38
g39
tI0
tp1687
a((g41
g42
tI0
tp1688
asg12
g41
sg13
(dp1689
g15
Nsg16
g45
sg18
I1
ssg16
g19
sg18
I270
sg20
g42
sg15
(dp1690
g15
(dp1691
g48
S''
sg49
I00
sg50
S''
sg51
(dp1692
g2
(lp1693
((g4
g5
tI-1
tp1694
a((g27
g5
tI-1
tp1695
a((g29
g30
tI-1
tp1696
a((g32
g33
tI0
tp1697
a((g35
g36
tI0
tp1698
a((g59
g60
tI0
tp1699
a((g62
g63
tI0
tp1700
asg12
g62
sg13
(dp1701
g15
Nsg16
g45
sg18
I1
ssg16
g19
sg18
I272
sg20
g63
sg15
(dp1702
g15
(dp1703
g68
(dp1704
g2
(lp1705
((g4
g5
tI-1
tp1706
a((g7
g5
tI-1
tp1707
a((g73
g74
tI-1
tp1708
a((g76
g77
tI-1
tp1709
a((g79
g80
tI-1
tp1710
a((g82
g83
tI-1
tp1711
a((g85
g86
tI-1
tp1712
a((g88
g89
tI-1
tp1713
a((g91
g92
tI-1
tp1714
a((g94
g95
tI-1
tp1715
asg12
g94
sg13
(dp1716
g15
Nsg16
g45
sg18
I8
ssg16
g19
sg18
I274
sg20
g95
sg15
(dp1717
g15
(dp1718
g101
I0
sg102
I0
sg103
g104
sg105
I0
sg106
I0
sg107
F0.01
sg108
g104
sg109
I0
sg110
I0
sg111
I0
sg112
I1
sg113
I0
sg114
I0
sg115
F1
sg116
(dp1719
g15
S'H4sIAFYGnEYC/53OsQrCMBQF0P3+SLIY0lbBQXDOksGsgjRpCoJNQ/oC5u99VL/A4Q6Pe7i8kOqS\nmwpriWqpL3qOpYwNjxLDmjYqNRByBxl2hzR9+9xDGg1ywgvQLQ98sjI96CcnajkiHyGdmM8CrFkw\nPTEb4MRFwFprDh328Jg3WnNxf2v9X2Z95W+8+gDYoI1C1QAAAA==\n'
p1720
sg16
g119
sg18
I276
ssg120
I1
sg121
I0
sg122
I0
sg123
I1
sg124
I0
sg125
I1
sg126
I0
sg127
I0
sg128
g129
sg130
I0
sg131
I0
sg132
g104
sg133
F0
ssg16
g134
sg18
I275
sssg48
S''
sg135
(dp1721
g2
(lp1722
((g4
g5
tI-1
tp1723
a((g7
g5
tI-1
tp1724
a((g73
g74
tI-1
tp1725
a((g76
g77
tI-1
tp1726
a((g79
g80
tI-1
tp1727
a((g143
g144
tI-1
tp1728
a((g146
g147
tI-1
tp1729
asg12
g146
sg13
(dp1730
g15
Nsg16
g45
sg18
I8
ssg16
g19
sg18
I283
sg20
g147
sg15
(dp1731
g15
(dp1732
g152
(dp1733
g15
Nsg16
g45
sg18
I19
ssg154
I0
sg155
F1
sg156
(dp1734
g15
Nsg16
g45
sg18
I19
ssg159
F0
sg160
I0
sg161
g162
sg163
F0.1893
sg164
I0
sg165
F1
sg166
(dp1735
g15
Nsg16
g45
sg18
I19
ssg168
(dp1736
g15
Nsg16
g45
sg18
I19
ssg121
I0
sg170
I0
sg171
F1
sg172
I0
sg126
I0
sg173
F0
sg174
I0
sg175
I65535
sg110
I0
sg176
g177
sg178
I1
sg179
F2
ssg16
g134
sg18
I284
sssg50
S''
sg51
(dp1737
g2
(lp1738
((g4
g5
tI-1
tp1739
a((g7
g5
tI-1
tp1740
a((g73
g74
tI-1
tp1741
a((g76
g77
tI-1
tp1742
a((g79
g80
tI-1
tp1743
a((g187
g188
tI-1
tp1744
a((g190
g191
tI-1
tp1745
a((g62
g193
tI-1
tp1746
asg12
g62
sg13
(dp1747
g15
Nsg16
g45
sg18
I8
ssg16
g19
sg18
I277
sg20
g193
sg15
(dp1748
g15
(dp1749
g198
(dp1750
g15
S'H4sIAFYGnEYC/7XOMQoCMRAF0P5fJGkMWVfBwguk2cK0gmyyEQQ3O8QJmNs7RK9g8YvhPz4Tc12p\nmbiVZNb65MdcytxwKylu+cWlRgYN0LE75OXb0x7aWbBXQYEvNMopyo3gn1y4UQIdoL26nxREixB6\n7Myrs8I0TW43oEfGgrNWiuvb2n9GHg7mAy0aBDD4AAAA\n'
p1751
sg16
g119
sg18
I279
ssg201
(dp1752
g15
S'H4sIAFYGnEYC/53OMQvCMBAF4P39kWQxpFbBQXDOksGsgjRpCoJtQ3oB8+89oqOTwxuO9/G4sJQ5\nVRXWHNVcnvQYch4q7jmGddkol0BIHWRoDsv46dMe0miQE16Arqnnk5XpQV85Uk0R6QDpxHQSYM2C\n6bExJ84C1lqz69DCY95ozcXtpfXvTPryf8l/evUGx/o6Le8AAAA=\n'
p1753
sg16
g119
sg18
I281
ssg204
(dp1754
g15
S'H4sIAFYGnEYC/53OsQoCMRAE0H5+JGkMOU/hCn8gTQrTCnLJRRC8XIgbMH/vEu0FiymWeQwbUl1z\nU2ErUa31Qfe5lLnhWmLY0pNKDYQ8QIbukJZPn/eQRoOc8AJ0ziOfrMwI+sqFWo7IB0gnbpMAaxZM\nj505cRKw1prdgB4e80ZrLi4vrf/P9NPww169AaZN3yn4AAAA\n'
p1755
sg16
g119
sg18
I280
ssg110
I0
sg207
I1
sg208
I1
sg209
I1
sg210
I1
sg121
I0
sg126
I0
sg211
I1
sg212
(dp1756
g15
S'H4sIAFYGnEYC/7XOMQoCMRAF0P5fJGkMWVfBwguk2cK0gmyyEQQ3O8QJmNs7RK9g8YvhPz4Tc12p\nmbiVZNb65MdcytxwKylu+cWlRgYN0LE75OXb0x7aWbBXQYEvNMopyo3gn1y4UQIdoL26nxREixB6\n7Myrs8I0TW43oEfGgrNWiuvb2n9GHg7mAy0aBDD4AAAA\n'
p1757
sg16
g119
sg18
I282
ssg215
I1
ssg16
g134
sg18
I278
ssssg16
g134
sg18
I273
sssg216
(dp1758
g2
(lp1759
((g4
g5
tI-1
tp1760
a((g27
g5
tI-1
tp1761
a((g29
g30
tI-1
tp1762
a((g32
g33
tI0
tp1763
a((g35
g36
tI0
tp1764
a((g59
g60
tI0
tp1765
a((g225
g226
tI0
tp1766
asg12
g225
sg13
(dp1767
g15
Nsg16
g45
sg18
I1
ssg16
g19
sg18
I285
sg20
g226
sg15
(dp1768
g15
(dp1769
g50
S''
sg231
I01
sg232
(dp1770
g15
Nsg16
g45
sg18
I1
ssg234
I00
sg235
F0
sg48
S''
sg236
(dp1771
g2
(lp1772
((g4
g5
tI-1
tp1773
a((g7
g5
tI-1
tp1774
a((g73
g74
tI-1
tp1775
a((g76
g77
tI-1
tp1776
a((g79
g80
tI-1
tp1777
a((g82
g83
tI-1
tp1778
a((g245
g246
tI-1
tp1779
a((g248
g249
tI-1
tp1780
asg12
g248
sg13
(dp1781
g15
Nsg16
g45
sg18
I8
ssg16
g19
sg18
I287
sg20
g249
sg15
(dp1782
g15
(dp1783
g254
I0
sg121
I0
sg255
I0
sg256
I1
sg257
I0
sg124
I0
sg258
I1
sg259
I1
sg260
I1
sg261
I0
sg262
I0
sg113
I0
sg126
I0
sg114
I0
sg130
I0
sg115
F0
sg263
I1
sg110
I0
ssg16
g134
sg18
I288
sssg264
(dp1784
g15
(lp1785
sg16
g267
sg18
I289
ssg268
(dp1786
g2
(lp1787
((g4
g5
tI-1
tp1788
a((g7
g5
tI-1
tp1789
a((g73
g74
tI-1
tp1790
a((g76
g77
tI-1
tp1791
a((g79
g80
tI-1
tp1792
a((g82
g83
tI-1
tp1793
a((g245
g246
tI-1
tp1794
a((g278
g279
tI-1
tp1795
asg12
g278
sg13
(dp1796
g15
Nsg16
g45
sg18
I8
ssg16
g19
sg18
I290
sg20
g279
sg15
(dp1797
g15
(dp1798
g126
I0
sg284
I1
sg124
I0
sg285
I1
sg103
g286
sg287
I0
sg110
I0
sg121
I0
sg113
I0
sg288
I1
sg114
I0
sg130
I0
sg115
F0
sg263
I1
sg289
I0
ssg16
g134
sg18
I291
sssg290
I01
sg263
I10
sg291
F0
ssg16
g134
sg18
I286
ssssg16
g134
sg18
I271
ssa(dp1799
g2
(lp1800
((g4
g5
tI-1
tp1801
a((g27
g5
tI-1
tp1802
a((g29
g30
tI-1
tp1803
a((g32
g33
tI0
tp1804
a((g35
g36
tI0
tp1805
a((g38
g39
tI0
tp1806
a((g1295
g1296
tI0
tp1807
asg12
g1295
sg13
(dp1808
g15
Nsg16
g45
sg18
I1
ssg16
g19
sg18
I292
sg20
g1296
sg15
(dp1809
g15
(dp1810
g1301
(dp1811
g2
(lp1812
((g4
g5
tI-1
tp1813
a((g7
g5
tI-1
tp1814
a((g73
g74
tI-1
tp1815
a((g76
g77
tI-1
tp1816
a((g79
g80
tI-1
tp1817
a((g82
g83
tI-1
tp1818
a((g245
g246
tI-1
tp1819
a((g1311
g1312
tI-1
tp1820
asg12
g1311
sg13
(dp1821
g15
Nsg16
g45
sg18
I8
ssg16
g19
sg18
I307
sg20
g1312
sg15
(dp1822
g15
(dp1823
g124
I0
sg130
I0
sg126
I0
sg121
I0
sg113
I0
sg114
I0
sg110
I0
sg115
F1
ssg16
g134
sg18
I308
sssg48
S''
sg50
S''
sg51
(dp1824
g2
(lp1825
((g4
g5
tI-1
tp1826
a((g27
g5
tI-1
tp1827
a((g29
g30
tI-1
tp1828
a((g32
g33
tI0
tp1829
a((g35
g36
tI0
tp1830
a((g59
g60
tI0
tp1831
a((g62
g63
tI0
tp1832
asg12
g62
sg13
(dp1833
g15
Nsg16
g45
sg18
I1
ssg16
g19
sg18
I294
sg20
g63
sg15
(dp1834
g15
(dp1835
g68
(dp1836
g2
(lp1837
((g4
g5
tI-1
tp1838
a((g7
g5
tI-1
tp1839
a((g73
g74
tI-1
tp1840
a((g76
g77
tI-1
tp1841
a((g79
g80
tI-1
tp1842
a((g82
g83
tI-1
tp1843
a((g85
g86
tI-1
tp1844
a((g88
g89
tI-1
tp1845
a((g91
g92
tI-1
tp1846
a((g375
g376
tI-1
tp1847
asg12
g375
sg13
(dp1848
g15
Nsg16
g45
sg18
I8
ssg16
g19
sg18
I296
sg20
g376
sg15
(dp1849
g15
(dp1850
g101
I0
sg102
I0
sg103
g104
sg105
I0
sg126
I0
sg107
F0.01
sg381
I0
sg108
g104
sg109
I0
sg110
I0
sg111
I0
sg112
I1
sg113
I0
sg114
I0
sg115
F1
sg116
(dp1851
g15
S'H4sIAFYGnEYC/53OsQrCMBQF0P3+SLIY0lbBQXDOksGsgjRpCoJNQ/oC5u99VL/A4Q6Pe7i8kOqS\nmwpriWqpL3qOpYwNjxLDmjYqNRByBxl2hzR9+9xDGg1ywgvQLQ98sjI96CcnajkiHyGdmM8CrFkw\nPTEb4MRFwFprDh328Jg3WnNxf2v9X2Z95W+8+gDYoI1C1QAAAA==\n'
p1852
sg16
g119
sg18
I298
ssg120
I1
sg121
I0
sg122
I0
sg123
I1
sg124
I0
sg125
I1
sg106
I0
sg131
I0
sg127
I0
sg384
I1
sg132
g104
sg130
I0
sg385
I0
sg386
I1
sg128
g129
sg133
F0
ssg16
g134
sg18
I297
sssg48
S''
sg135
(dp1853
g2
(lp1854
((g4
g5
tI-1
tp1855
a((g7
g5
tI-1
tp1856
a((g73
g74
tI-1
tp1857
a((g76
g77
tI-1
tp1858
a((g79
g80
tI-1
tp1859
a((g143
g144
tI-1
tp1860
a((g146
g147
tI-1
tp1861
asg12
g146
sg13
(dp1862
g15
Nsg16
g45
sg18
I8
ssg16
g19
sg18
I305
sg20
g147
sg15
(dp1863
g15
(dp1864
g152
(dp1865
g15
Nsg16
g45
sg18
I19
ssg154
I0
sg155
F1
sg156
(dp1866
g15
Nsg16
g45
sg18
I19
ssg159
F0
sg160
I0
sg161
g162
sg163
F1
sg164
I0
sg165
F1
sg166
(dp1867
g15
Nsg16
g45
sg18
I19
ssg168
(dp1868
g15
Nsg16
g45
sg18
I19
ssg121
I0
sg170
I0
sg171
F1
sg172
I0
sg126
I0
sg173
F0
sg174
I0
sg175
I65535
sg110
I0
sg176
g177
sg178
I1
sg179
F1
ssg16
g134
sg18
I306
sssg50
S''
sg51
(dp1869
g2
(lp1870
((g4
g5
tI-1
tp1871
a((g7
g5
tI-1
tp1872
a((g73
g74
tI-1
tp1873
a((g76
g77
tI-1
tp1874
a((g79
g80
tI-1
tp1875
a((g187
g188
tI-1
tp1876
a((g190
g191
tI-1
tp1877
a((g62
g193
tI-1
tp1878
asg12
g62
sg13
(dp1879
g15
Nsg16
g45
sg18
I8
ssg16
g19
sg18
I299
sg20
g193
sg15
(dp1880
g15
(dp1881
g198
(dp1882
g15
S'H4sIAFcGnEYC/7XOMQoCMRAF0P5fJGkMWVfBwguk2cK0gmyyEQQ3O8QJmNs7RK9g8YvhPz4Tc12p\nmbiVZNb65MdcytxwKylu+cWlRgYN0LE75OXb0x7aWbBXQYEvNMopyo3gn1y4UQIdoL26nxREixB6\n7Myrs8I0TW43oEfGgrNWiuvb2n9GHg7mAy0aBDD4AAAA\n'
p1883
sg16
g119
sg18
I301
ssg201
(dp1884
g15
S'H4sIAFcGnEYC/53OMQvCMBAF4P39kWQxpFbBQXDOksGsgjRpCoJtQ3oB8+89oqOTwxuO9/G4sJQ5\nVRXWHNVcnvQYch4q7jmGddkol0BIHWRoDsv46dMe0miQE16Arqnnk5XpQV85Uk0R6QDpxHQSYM2C\n6bExJ84C1lqz69DCY95ozcXtpfXvTPryf8l/evUGx/o6Le8AAAA=\n'
p1885
sg16
g119
sg18
I303
ssg204
(dp1886
g15
S'H4sIAFcGnEYC/53OsQoCMRAE0H5+JGkMOU/hCn8gTQrTCnLJRRC8XIgbMH/vEu0FiymWeQwbUl1z\nU2ErUa31Qfe5lLnhWmLY0pNKDYQ8QIbukJZPn/eQRoOc8AJ0ziOfrMwI+sqFWo7IB0gnbpMAaxZM\nj505cRKw1prdgB4e80ZrLi4vrf/P9NPww169AaZN3yn4AAAA\n'
p1887
sg16
g119
sg18
I302
ssg110
I0
sg207
I1
sg208
I1
sg209
I1
sg210
I1
sg121
I0
sg126
I0
sg211
I1
sg212
(dp1888
g15
S'H4sIAFcGnEYC/7XOMQoCMRAF0P5fJGkMWVfBwguk2cK0gmyyEQQ3O8QJmNs7RK9g8YvhPz4Tc12p\nmbiVZNb65MdcytxwKylu+cWlRgYN0LE75OXb0x7aWbBXQYEvNMopyo3gn1y4UQIdoL26nxREixB6\n7Myrs8I0TW43oEfGgrNWiuvb2n9GHg7mAy0aBDD4AAAA\n'
p1889
sg16
g119
sg18
I304
ssg215
I1
ssg16
g134
sg18
I300
ssssg16
g134
sg18
I295
ssssg16
g134
sg18
I293
ssasg16
g267
sg18
I269
ssg48
S''
sg1383
(dp1890
g2
(lp1891
((g4
g5
tI-1
tp1892
a((g27
g5
tI-1
tp1893
a((g29
g30
tI-1
tp1894
a((g32
g33
tI0
tp1895
a((g1390
g1391
tI0
tp1896
asg12
g1390
sg13
(dp1897
g15
Nsg16
g45
sg18
I1
ssg16
g19
sg18
I309
sg20
g1391
sg15
(dp1898
g15
(dp1899
g1396
(dp1900
g15
S'H4sIAFcGnEYC/53OsQrCMBQF0P3+SLIY0lbBQXDOksGsgjRpCoJNQ/oC5u99VL/A4Q6Pe7i8kOqS\nmwpriWqpL3qOpYwNjxLDmjYqNRByBxl2hzR9+9xDGg1ywgvQLQ98sjI96CcnajkiHyGdmM8CrFkw\nPTEb4MRFwFprDh328Jg3WnNxf2v9X2Z95W+8+gDYoI1C1QAAAA==\n'
p1901
sg16
g119
sg18
I316
ssg1399
I01
sg1400
(dp1902
g2
(lp1903
((g4
g5
tI-1
tp1904
a((g7
g5
tI-1
tp1905
a((g73
g74
tI-1
tp1906
a((g76
g77
tI-1
tp1907
a((g79
g80
tI-1
tp1908
a((g1408
g1409
tI-1
tp1909
a((g1411
g1412
tI-1
tp1910
asg12
g1411
sg13
(dp1911
g15
Nsg16
g45
sg18
I8
ssg16
g19
sg18
I317
sg20
g1412
sg15
(dp1912
g15
(dp1913
g1417
I2
sg201
g1418
sg1419
(dp1914
g15
S'H4sIAFcGnEYC/33OMQvCMBAF4P39kWQxpK2Cg+CcJYNZBWnSFASbhngB8+89qqM4vOF4H48LqS65\nqbCWqJb6oPtYythwKzGs6UmlBkLuIMPmkKZPn3tIo0FOeAG65IFPVqYHfeVELUfkPaQT81GANQum\nB2YDnDgJWGvNrsMWHvNGay6uL61/Z9bnvyW/4tUbw9sFJ9IAAAA=\n'
p1915
sg16
g119
sg18
I319
ssg1422
(dp1916
g15
S'H4sIAFcGnEYC/53OsQrCMBQF0P3+SLIY0lbBQXDOksGsgjRpCoJNQ/oC5u99VL/A4Q6Pe7i8kOqS\nmwpriWqpL3qOpYwNjxLDmjYqNRByBxl2hzR9+9xDGg1ywgvQLQ98sjI96CcnajkiHyGdmM8CrFkw\nPTEb4MRFwFprDh328Jg3WnNxf2v9X2Z95W+8+gDYoI1C1QAAAA==\n'
p1917
sg16
g119
sg18
I321
ssg1425
(dp1918
g15
S'H4sIAFcGnEYC/33OMQvCMBAF4P39kXSxpK3FCopzEDpY3ALSpBEKNg3xCum/96jODm94vI/jrF+m\nsOZ2ji6flheNfYz9ikd0dvZvioslhAKZ3Rz88N1DiUxJUCeMAN1CxZWVKkE/OdAaHMIeWSeejQBr\nFkxrZhU6cRJo21btCmzhY0ZJycNVJ9voJA9nnY7mrpOrL1zlv/ATJv8A/YiyW8wAAAA=\n'
p1919
sg16
g119
sg18
I320
ssg1428
I256
sg1429
g1430
sg126
I0
sg1431
I256
sg1432
(dp1920
g15
S'H4sIAFcGnEYC/33OMQvCMBAF4P39kWQxpK2Cg+CcJYNZBWnSFASbhngB8+89qqM4vOF4H48LqS65\nqbCWqJb6oPtYythwKzGs6UmlBkLuIMPmkKZPn3tIo0FOeAG65IFPVqYHfeVELUfkPaQT81GANQum\nB2YDnDgJWGvNrsMWHvNGay6uL61/Z9bnvyW/4tUbw9sFJ9IAAAA=\n'
p1921
sg16
g119
sg18
I322
ssg1435
I0
sg1436
(dp1922
g15
S'H4sIAFcGnEYC/33OMQvCMBAF4P39kWQxpK2Cg+CcJYNZBWnSFASbhngB8+89qqM4vOF4H48LqS65\nqbCWqJb6oPtYythwKzGs6UmlBkLuIMPmkKZPn3tIo0FOeAG65IFPVqYHfeVELUfkPaQT81GANQum\nB2YDnDgJWGvNrsMWHvNGay6uL61/Z9bnvyW/4tUbw9sFJ9IAAAA=\n'
p1923
sg16
g119
sg18
I323
ssg110
I0
sg1439
F1
sg1440
g1441
sg121
I0
ssg16
g134
sg18
I318
sssg1442
(dp1924
g2
(lp1925
((g4
g5
tI-1
tp1926
a((g7
g5
tI-1
tp1927
a((g73
g74
tI-1
tp1928
a((g76
g77
tI-1
tp1929
a((g79
g80
tI-1
tp1930
a((g1220
g1221
tI-1
tp1931
asg12
g1220
sg13
(dp1932
g15
Nsg16
g45
sg18
I8
ssg16
g19
sg18
I311
sg20
g1221
sg15
(dp1933
g15
(dp1934
g163
F1
sg1226
g1227
sg1228
I12
sg204
F0
sg1229
F0
sg1230
I1
sg1231
g1454
sg1233
I0
sg126
I0
sg1234
F1.1000000000000001
sg741
(dp1935
g15
Nsg16
g45
sg18
I19
ssg1236
I1
sg1237
(dp1936
g15
S'H4sIAFcGnEYC/03NsQrDIBDG8f17EV0qmqRbX8DFoa6FEo2BQJOIPaG+fY+00A7/4bgfd3Gra24q\n7iWptT5oGUsZG+4lxX17UqmRkA1kPBy26bPPHaTVIC+CAF1zzyMr24G+cqKWE/IA6cUyCLBmwfTM\nrIcXFwHnnD0ZHPGxYLXmxe2lDad/zfN//DCoN80p7hW4AAAA\n'
p1937
sg16
g119
sg18
I313
ssg110
I0
sg1240
I1
sg1241
I0
sg1243
g1244
sg121
I0
sg1245
I1
ssg16
g134
sg18
I312
sssg1458
(dp1938
g2
(lp1939
((g4
g5
tI-1
tp1940
a((g7
g5
tI-1
tp1941
a((g73
g74
tI-1
tp1942
a((g76
g77
tI-1
tp1943
a((g79
g80
tI-1
tp1944
a((g1220
g1221
tI-1
tp1945
asg12
g1220
sg13
(dp1946
g15
Nsg16
g45
sg18
I8
ssg16
g19
sg18
I324
sg20
g1221
sg15
(dp1947
g15
(dp1948
g163
F1
sg1226
g1227
sg1228
I12
sg204
F0
sg1229
F0
sg1230
I1
sg1231
g1454
sg1233
I0
sg126
I0
sg1234
F1.1000000000000001
sg741
(dp1949
g15
Nsg16
g45
sg18
I19
ssg1236
I1
sg1237
(dp1950
g15
S'H4sIAFcGnEYC/03NsQrDIBDG8f17EV0qmqRbX8DFoa6FEo2BQJOIPaG+fY+00A7/4bgfd3Gra24q\n7iWptT5oGUsZG+4lxX17UqmRkA1kPBy26bPPHaTVIC+CAF1zzyMr24G+cqKWE/IA6cUyCLBmwfTM\nrIcXFwHnnD0ZHPGxYLXmxe2lDad/zfN//DCoN80p7hW4AAAA\n'
p1951
sg16
g119
sg18
I326
ssg110
I0
sg1240
I1
sg1241
I0
sg1243
g1244
sg121
I0
sg1245
I1
ssg16
g134
sg18
I325
sssg1473
(dp1952
g2
(lp1953
((g4
g5
tI-1
tp1954
a((g7
g5
tI-1
tp1955
a((g73
g74
tI-1
tp1956
a((g76
g77
tI-1
tp1957
a((g79
g80
tI-1
tp1958
a((g699
g700
tI-1
tp1959
a((g1482
g1483
tI-1
tp1960
asg12
g1482
sg13
(dp1961
g15
Nsg16
g45
sg18
I8
ssg16
g19
sg18
I314
sg20
g1483
sg15
(dp1962
g15
(dp1963
g708
S'i'
sg709
I0
sg126
I0
sg710
F0.55000001192092896
sg121
I0
sg711
I0
sg712
I0
sg110
I0
sg713
I0
ssg16
g134
sg18
I315
sssg1043
S''
sg1488
g1489
sg1490
(dp1964
g15
Nsg16
g45
sg18
I316
ssg50
S''
sg1431
I256
sg1492
g1489
sg48
S''
sg1493
I01
sg1494
I8
sg1495
I00
sg1496
(dp1965
g2
(lp1966
((g4
g5
tI-1
tp1967
a((g7
g5
tI-1
tp1968
a((g73
g74
tI-1
tp1969
a((g76
g77
tI-1
tp1970
a((g79
g80
tI-1
tp1971
a((g187
g188
tI-1
tp1972
a((g1505
g1506
tI-1
tp1973
a((g1508
g1509
tI-1
tp1974
asg12
g1508
sg13
(dp1975
g15
Nsg16
g45
sg18
I8
ssg16
g19
sg18
I327
sg20
g1509
sg15
(dp1976
g15
(dp1977
g126
I0
sg215
I1
sg204
g1514
sg1515
F0.80000000000000004
sg1516
S'%-#6.3g'
p1978
sg1494
I8
sg207
I1
sg208
I1
sg209
I1
sg210
I1
sg121
I0
sg1518
I256
sg1519
I0
sg1520
(dp1979
g15
S'H4sIAFcGnEYC/2XOMQuDMBAF4P39kWSpaGxAoeCcxaGugaIxQqFqSC8Q/30P263DGx7v4zi3pTUc\nhdujL9b0oucY43jgEb3btzfF5AihgnSnwzZ/96AgTQkaxCRA91BzZWUU6CdnOoJHuEIOYmkEWLNg\nqpnVGMRNoO97c6lwho9Npix5sLkdOe1/fNvZ7GqbFy2ttblZuCqO7viLqfgAbt3QTs0AAAA=\n'
p1980
sg16
g119
sg18
I330
ssg211
I1
sg212
(dp1981
g15
S'H4sIAFcGnEYC/2XOMQuDMBAF4P39kbhUjFpQKDiWLA51DZQkplCoGtITYvvne9huHd5wvI/HuXmd\nwpa7Jfp8Wh90NzGaDdfo3TI/Ka6OECQytzvM47cPJTJVgAZhBegSKj5ZqRL0kyNtwSPUyAZxawRY\ns2B6ZFZhECeBvu/VQWIPj1lVFFzo1BpO+x/bdm+dZK2T8WedvHzp1NQdf2DzD7ndMtDJAAAA\n'
p1982
sg16
g119
sg18
I329
ssg1525
F0.17000000000000001
sg110
I0
sg1526
I0
ssg16
g134
sg18
I328
sssg1527
(dp1983
g15
S'H4sIAFcGnEYC/53OsQrCMBQF0P3+SLIY0lbBQXDOksGsgjRpCoJNQ/oC5u99VL/A4Q6Pe7i8kOqS\nmwpriWqpL3qOpYwNjxLDmjYqNRByBxl2hzR9+9xDGg1ywgvQLQ98sjI96CcnajkiHyGdmM8CrFkw\nPTEb4MRFwFprDh328Jg3WnNxf2v9X2Z95W+8+gDYoI1C1QAAAA==\n'
p1984
sg16
g119
sg18
I331
ssg1241
I00
sg1530
g1531
sg1532
I00
ssg16
g134
sg18
I310
sssg1533
(dp1985
g2
(lp1986
((g4
g5
tI-1
tp1987
a((g27
g5
tI-1
tp1988
a((g29
g30
tI-1
tp1989
a((g32
g33
tI0
tp1990
a((g1390
g1391
tI0
tp1991
asg12
g1390
sg13
(dp1992
g15
Nsg16
g45
sg18
I1
ssg16
g19
sg18
I332
sg20
g1391
sg15
(dp1993
g15
(dp1994
g1396
(dp1995
g15
S'H4sIAFcGnEYC/53OsQrCMBQF0P3+SLIY0lbBQXDOksGsgjRpCoJNQ/oC5u99VL/A4Q6Pe7i8kOqS\nmwpriWqpL3qOpYwNjxLDmjYqNRByBxl2hzR9+9xDGg1ywgvQLQ98sjI96CcnajkiHyGdmM8CrFkw\nPTEb4MRFwFprDh328Jg3WnNxf2v9X2Z95W+8+gDYoI1C1QAAAA==\n'
p1996
sg16
g119
sg18
I339
ssg1399
I01
sg1400
(dp1997
g2
(lp1998
((g4
g5
tI-1
tp1999
a((g7
g5
tI-1
tp2000
a((g73
g74
tI-1
tp2001
a((g76
g77
tI-1
tp2002
a((g79
g80
tI-1
tp2003
a((g1408
g1409
tI-1
tp2004
a((g1411
g1412
tI-1
tp2005
asg12
g1411
sg13
(dp2006
g15
Nsg16
g45
sg18
I8
ssg16
g19
sg18
I340
sg20
g1412
sg15
(dp2007
g15
(dp2008
g1417
I2
sg201
g1418
sg1419
(dp2009
g15
S'H4sIAFcGnEYC/33OMQvCMBAF4P39kWQxpK2Cg+CcJYNZBWnSFASbhngB8+89qqM4vOF4H48LqS65\nqbCWqJb6oPtYythwKzGs6UmlBkLuIMPmkKZPn3tIo0FOeAG65IFPVqYHfeVELUfkPaQT81GANQum\nB2YDnDgJWGvNrsMWHvNGay6uL61/Z9bnvyW/4tUbw9sFJ9IAAAA=\n'
p2010
sg16
g119
sg18
I342
ssg1422
(dp2011
g15
S'H4sIAFcGnEYC/53OsQrCMBQF0P3+SLIY0lbBQXDOksGsgjRpCoJNQ/oC5u99VL/A4Q6Pe7i8kOqS\nmwpriWqpL3qOpYwNjxLDmjYqNRByBxl2hzR9+9xDGg1ywgvQLQ98sjI96CcnajkiHyGdmM8CrFkw\nPTEb4MRFwFprDh328Jg3WnNxf2v9X2Z95W+8+gDYoI1C1QAAAA==\n'
p2012
sg16
g119
sg18
I344
ssg1425
(dp2013
g15
S'H4sIAFcGnEYC/33OMQvCMBAF4P39kXSxpK3FCopzEDpY3ALSpBEKNg3xCum/96jODm94vI/jrF+m\nsOZ2ji6flheNfYz9ikd0dvZvioslhAKZ3Rz88N1DiUxJUCeMAN1CxZWVKkE/OdAaHMIeWSeejQBr\nFkxrZhU6cRJo21btCmzhY0ZJycNVJ9voJA9nnY7mrpOrL1zlv/ATJv8A/YiyW8wAAAA=\n'
p2014
sg16
g119
sg18
I343
ssg1428
I256
sg1429
g1430
sg126
I0
sg1431
I256
sg1432
(dp2015
g15
S'H4sIAFcGnEYC/33OMQvCMBAF4P39kWQxpK2Cg+CcJYNZBWnSFASbhngB8+89qqM4vOF4H48LqS65\nqbCWqJb6oPtYythwKzGs6UmlBkLuIMPmkKZPn3tIo0FOeAG65IFPVqYHfeVELUfkPaQT81GANQum\nB2YDnDgJWGvNrsMWHvNGay6uL61/Z9bnvyW/4tUbw9sFJ9IAAAA=\n'
p2016
sg16
g119
sg18
I345
ssg1435
I0
sg1436
(dp2017
g15
S'H4sIAFcGnEYC/33OMQvCMBAF4P39kWQxpK2Cg+CcJYNZBWnSFASbhngB8+89qqM4vOF4H48LqS65\nqbCWqJb6oPtYythwKzGs6UmlBkLuIMPmkKZPn3tIo0FOeAG65IFPVqYHfeVELUfkPaQT81GANQum\nB2YDnDgJWGvNrsMWHvNGay6uL61/Z9bnvyW/4tUbw9sFJ9IAAAA=\n'
p2018
sg16
g119
sg18
I346
ssg110
I0
sg1439
F1
sg1440
g1441
sg121
I0
ssg16
g134
sg18
I341
sssg1442
(dp2019
g2
(lp2020
((g4
g5
tI-1
tp2021
a((g7
g5
tI-1
tp2022
a((g73
g74
tI-1
tp2023
a((g76
g77
tI-1
tp2024
a((g79
g80
tI-1
tp2025
a((g1220
g1221
tI-1
tp2026
asg12
g1220
sg13
(dp2027
g15
Nsg16
g45
sg18
I8
ssg16
g19
sg18
I334
sg20
g1221
sg15
(dp2028
g15
(dp2029
g163
F1
sg1226
g1227
sg1228
I12
sg204
F0
sg1229
F0
sg1230
I1
sg1231
g1454
sg1233
I0
sg126
I0
sg1234
F1.1000000000000001
sg741
(dp2030
g15
Nsg16
g45
sg18
I19
ssg1236
I1
sg1237
(dp2031
g15
S'H4sIAFcGnEYC/03NsQrDIBDG8f17EV0qmqRbX8DFoa6FEo2BQJOIPaG+fY+00A7/4bgfd3Gra24q\n7iWptT5oGUsZG+4lxX17UqmRkA1kPBy26bPPHaTVIC+CAF1zzyMr24G+cqKWE/IA6cUyCLBmwfTM\nrIcXFwHnnD0ZHPGxYLXmxe2lDad/zfN//DCoN80p7hW4AAAA\n'
p2032
sg16
g119
sg18
I336
ssg110
I0
sg1240
I1
sg1241
I0
sg1243
g1244
sg121
I0
sg1245
I1
ssg16
g134
sg18
I335
sssg1458
(dp2033
g2
(lp2034
((g4
g5
tI-1
tp2035
a((g7
g5
tI-1
tp2036
a((g73
g74
tI-1
tp2037
a((g76
g77
tI-1
tp2038
a((g79
g80
tI-1
tp2039
a((g1220
g1221
tI-1
tp2040
asg12
g1220
sg13
(dp2041
g15
Nsg16
g45
sg18
I8
ssg16
g19
sg18
I347
sg20
g1221
sg15
(dp2042
g15
(dp2043
g163
F1
sg1226
g1227
sg1228
I12
sg204
F0
sg1229
F0
sg1230
I1
sg1231
g1454
sg1233
I0
sg126
I0
sg1234
F1.1000000000000001
sg741
(dp2044
g15
Nsg16
g45
sg18
I19
ssg1236
I1
sg1237
(dp2045
g15
S'H4sIAFcGnEYC/03NsQrDIBDG8f17EV0qmqRbX8DFoa6FEo2BQJOIPaG+fY+00A7/4bgfd3Gra24q\n7iWptT5oGUsZG+4lxX17UqmRkA1kPBy26bPPHaTVIC+CAF1zzyMr24G+cqKWE/IA6cUyCLBmwfTM\nrIcXFwHnnD0ZHPGxYLXmxe2lDad/zfN//DCoN80p7hW4AAAA\n'
p2046
sg16
g119
sg18
I349
ssg110
I0
sg1240
I1
sg1241
I0
sg1243
g1244
sg121
I0
sg1245
I1
ssg16
g134
sg18
I348
sssg1473
(dp2047
g2
(lp2048
((g4
g5
tI-1
tp2049
a((g7
g5
tI-1
tp2050
a((g73
g74
tI-1
tp2051
a((g76
g77
tI-1
tp2052
a((g79
g80
tI-1
tp2053
a((g699
g700
tI-1
tp2054
a((g1482
g1483
tI-1
tp2055
asg12
g1482
sg13
(dp2056
g15
Nsg16
g45
sg18
I8
ssg16
g19
sg18
I337
sg20
g1483
sg15
(dp2057
g15
(dp2058
g708
S'i'
sg709
I0
sg126
I0
sg710
F0.55000001192092896
sg121
I0
sg711
I0
sg712
I0
sg110
I0
sg713
I0
ssg16
g134
sg18
I338
sssg1043
S''
sg1488
g1608
sg1490
(dp2059
g15
Nsg16
g45
sg18
I339
ssg50
S''
sg1431
I256
sg1492
g1608
sg48
S''
sg1493
I01
sg1494
I8
sg1495
I00
sg1496
(dp2060
g2
(lp2061
((g4
g5
tI-1
tp2062
a((g7
g5
tI-1
tp2063
a((g73
g74
tI-1
tp2064
a((g76
g77
tI-1
tp2065
a((g79
g80
tI-1
tp2066
a((g187
g188
tI-1
tp2067
a((g1505
g1506
tI-1
tp2068
a((g1508
g1509
tI-1
tp2069
asg12
g1508
sg13
(dp2070
g15
Nsg16
g45
sg18
I8
ssg16
g19
sg18
I350
sg20
g1509
sg15
(dp2071
g15
(dp2072
g126
I0
sg215
I1
sg204
g1514
sg1515
F0.80000000000000004
sg1516
S'%-#6.3g'
p2073
sg1494
I8
sg207
I1
sg208
I1
sg209
I1
sg210
I1
sg121
I0
sg1518
I256
sg1519
I0
sg1520
(dp2074
g15
S'H4sIAFcGnEYC/2XOMQuDMBAF4P39kWSpaGxAoeCcxaGugaIxQqFqSC8Q/30P263DGx7v4zi3pTUc\nhdujL9b0oucY43jgEb3btzfF5AihgnSnwzZ/96AgTQkaxCRA91BzZWUU6CdnOoJHuEIOYmkEWLNg\nqpnVGMRNoO97c6lwho9Npix5sLkdOe1/fNvZ7GqbFy2ttblZuCqO7viLqfgAbt3QTs0AAAA=\n'
p2075
sg16
g119
sg18
I353
ssg211
I1
sg212
(dp2076
g15
S'H4sIAFcGnEYC/2XOMQuDMBAF4P39kbhUjFpQKDiWLA51DZQkplCoGtITYvvne9huHd5wvI/HuXmd\nwpa7Jfp8Wh90NzGaDdfo3TI/Ka6OECQytzvM47cPJTJVgAZhBegSKj5ZqRL0kyNtwSPUyAZxawRY\ns2B6ZFZhECeBvu/VQWIPj1lVFFzo1BpO+x/bdm+dZK2T8WedvHzp1NQdf2DzD7ndMtDJAAAA\n'
p2077
sg16
g119
sg18
I352
ssg1525
F0.17000000000000001
sg110
I0
sg1526
I0
ssg16
g134
sg18
I351
sssg1527
(dp2078
g15
S'H4sIAFcGnEYC/53OsQrCMBQF0P3+SLIY0lbBQXDOksGsgjRpCoJNQ/oC5u99VL/A4Q6Pe7i8kOqS\nmwpriWqpL3qOpYwNjxLDmjYqNRByBxl2hzR9+9xDGg1ywgvQLQ98sjI96CcnajkiHyGdmM8CrFkw\nPTEb4MRFwFprDh328Jg3WnNxf2v9X2Z95W+8+gDYoI1C1QAAAA==\n'
p2079
sg16
g119
sg18
I354
ssg1241
I00
sg1530
g1531
sg1532
I00
ssg16
g134
sg18
I333
ssssg16
g134
sg18
I268
ssasg16
g267
sg18
I266
ssg1630
I0
ssg16
g134
sg18
I265
ssa(dp2080
g2
(lp2081
((g4
g5
tI-1
tp2082
a((g27
g5
tI-1
tp2083
a((g29
g30
tI-1
tp2084
a((g32
g33
tI0
tp2085
a((g35
g36
tI0
tp2086
a((g998
g999
tI0
tp2087
a((g1001
g1002
tI0
tp2088
a((g1004
g1005
tI0
tp2089
asg12
g1004
sg13
(dp2090
g15
Nsg16
g45
sg18
I1
ssg16
g19
sg18
I359
sg20
g1005
sg15
(dp2091
g15
(dp2092
g50
S''
sg1010
(dp2093
g2
(lp2094
((g1013
g1014
tI-1
tp2095
asg12
g1013
sg13
(dp2096
g15
Nsg16
g45
sg18
I1
ssg16
g19
sg18
I413
sg20
g1014
sg15
(dp2097
g15
(dp2098
g1019
S'reverse-slip-fault.vtk'
p2099
sg1021
S'/home/luis/cigma-0.9b1/doc/manual/figures/reverse-slip-fault.vtk'
p2100
ssg16
g134
sg18
I414
sssg48
S''
sg1023
I0
sg1024
(dp2101
g2
(lp2102
((g4
g5
tI-1
tp2103
a((g7
g5
tI-1
tp2104
a((g73
g74
tI-1
tp2105
a((g76
g77
tI-1
tp2106
a((g79
g80
tI-1
tp2107
a((g82
g83
tI-1
tp2108
a((g1033
g1034
tI-1
tp2109
a((g1036
g1037
tI-1
tp2110
asg12
g1036
sg13
(dp2111
g15
Nsg16
g45
sg18
I8
ssg16
g19
sg18
I411
sg20
g1037
sg15
(dp2112
g15
(dp2113
g1042
I0
sg1043
S'/home/luis/cigma-0.9b1/doc/manual/figures/reverse-slip-fault.vtk'
p2114
sg1045
I0
sg1046
I0
sg126
I0
sg1047
I0
sg1048
I0
sg1049
I0
sg1050
I0
sg113
I0
sg1051
I0
sg114
I0
sg115
F1
sg121
I0
sg1052
I0
sg110
I0
sg1053
I0
sg1054
I0
sg1055
I0
sg1056
I0
sg124
I0
sg1057
I0
sg1058
I0
sg1059
I0
sg130
I0
ssg16
g134
sg18
I412
sssg1060
I0
sg988
(dp2115
g15
(lp2116
(dp2117
g2
(lp2118
((g4
g5
tI-1
tp2119
a((g27
g5
tI-1
tp2120
a((g29
g30
tI-1
tp2121
a((g32
g33
tI0
tp2122
a((g1069
g1070
tI0
tp2123
asg12
g1069
sg13
(dp2124
g15
Nsg16
g45
sg18
I1
ssg16
g19
sg18
I362
sg20
g1070
sg15
(dp2125
g15
(dp2126
g50
S''
sg1075
g1076
sg988
(dp2127
g15
(lp2128
(dp2129
g15
Nsg16
g45
sg18
I3
sasg16
g267
sg18
I364
ssg48
S''
sg1383
(dp2130
g2
(lp2131
((g4
g5
tI-1
tp2132
a((g27
g5
tI-1
tp2133
a((g29
g30
tI-1
tp2134
a((g32
g33
tI0
tp2135
a((g1390
g1391
tI0
tp2136
asg12
g1390
sg13
(dp2137
g15
Nsg16
g45
sg18
I1
ssg16
g19
sg18
I365
sg20
g1391
sg15
(dp2138
g15
(dp2139
g1396
(dp2140
g15
S'H4sIAFcGnEYC/53OsQrCMBQF0P3+SLIY0lbBQXDOksGsgjRpCoJNQ/oC5u99VL/A4Q6Pe7i8kOqS\nmwpriWqpL3qOpYwNjxLDmjYqNRByBxl2hzR9+9xDGg1ywgvQLQ98sjI96CcnajkiHyGdmM8CrFkw\nPTEb4MRFwFprDh328Jg3WnNxf2v9X2Z95W+8+gDYoI1C1QAAAA==\n'
p2141
sg16
g119
sg18
I372
ssg1399
I01
sg1400
(dp2142
g2
(lp2143
((g4
g5
tI-1
tp2144
a((g7
g5
tI-1
tp2145
a((g73
g74
tI-1
tp2146
a((g76
g77
tI-1
tp2147
a((g79
g80
tI-1
tp2148
a((g1408
g1409
tI-1
tp2149
a((g1411
g1412
tI-1
tp2150
asg12
g1411
sg13
(dp2151
g15
Nsg16
g45
sg18
I8
ssg16
g19
sg18
I373
sg20
g1412
sg15
(dp2152
g15
(dp2153
g1417
I2
sg201
g1418
sg1419
(dp2154
g15
S'H4sIAFcGnEYC/33OMQvCMBAF4P39kWQxpK2Cg+CcJYNZBWnSFASbhngB8+89qqM4vOF4H48LqS65\nqbCWqJb6oPtYythwKzGs6UmlBkLuIMPmkKZPn3tIo0FOeAG65IFPVqYHfeVELUfkPaQT81GANQum\nB2YDnDgJWGvNrsMWHvNGay6uL61/Z9bnvyW/4tUbw9sFJ9IAAAA=\n'
p2155
sg16
g119
sg18
I375
ssg1422
(dp2156
g15
S'H4sIAFcGnEYC/53OsQrCMBQF0P3+SLIY0lbBQXDOksGsgjRpCoJNQ/oC5u99VL/A4Q6Pe7i8kOqS\nmwpriWqpL3qOpYwNjxLDmjYqNRByBxl2hzR9+9xDGg1ywgvQLQ98sjI96CcnajkiHyGdmM8CrFkw\nPTEb4MRFwFprDh328Jg3WnNxf2v9X2Z95W+8+gDYoI1C1QAAAA==\n'
p2157
sg16
g119
sg18
I377
ssg1425
(dp2158
g15
S'H4sIAFcGnEYC/33OMQvCMBAF4P39kXSxpK3FCopzEDpY3ALSpBEKNg3xCum/96jODm94vI/jrF+m\nsOZ2ji6flheNfYz9ikd0dvZvioslhAKZ3Rz88N1DiUxJUCeMAN1CxZWVKkE/OdAaHMIeWSeejQBr\nFkxrZhU6cRJo21btCmzhY0ZJycNVJ9voJA9nnY7mrpOrL1zlv/ATJv8A/YiyW8wAAAA=\n'
p2159
sg16
g119
sg18
I376
ssg1428
I256
sg1429
g1430
sg126
I0
sg1431
I256
sg1432
(dp2160
g15
S'H4sIAFcGnEYC/33OMQvCMBAF4P39kWQxpK2Cg+CcJYNZBWnSFASbhngB8+89qqM4vOF4H48LqS65\nqbCWqJb6oPtYythwKzGs6UmlBkLuIMPmkKZPn3tIo0FOeAG65IFPVqYHfeVELUfkPaQT81GANQum\nB2YDnDgJWGvNrsMWHvNGay6uL61/Z9bnvyW/4tUbw9sFJ9IAAAA=\n'
p2161
sg16
g119
sg18
I378
ssg1435
I0
sg1436
(dp2162
g15
S'H4sIAFcGnEYC/33OMQvCMBAF4P39kWQxpK2Cg+CcJYNZBWnSFASbhngB8+89qqM4vOF4H48LqS65\nqbCWqJb6oPtYythwKzGs6UmlBkLuIMPmkKZPn3tIo0FOeAG65IFPVqYHfeVELUfkPaQT81GANQum\nB2YDnDgJWGvNrsMWHvNGay6uL61/Z9bnvyW/4tUbw9sFJ9IAAAA=\n'
p2163
sg16
g119
sg18
I379
ssg110
I0
sg1439
F1
sg1440
g1441
sg121
I0
ssg16
g134
sg18
I374
sssg1442
(dp2164
g2
(lp2165
((g4
g5
tI-1
tp2166
a((g7
g5
tI-1
tp2167
a((g73
g74
tI-1
tp2168
a((g76
g77
tI-1
tp2169
a((g79
g80
tI-1
tp2170
a((g1220
g1221
tI-1
tp2171
asg12
g1220
sg13
(dp2172
g15
Nsg16
g45
sg18
I8
ssg16
g19
sg18
I367
sg20
g1221
sg15
(dp2173
g15
(dp2174
g163
F1
sg1226
g1227
sg1228
I12
sg204
F0
sg1229
F0
sg1230
I1
sg1231
g1454
sg1233
I0
sg126
I0
sg1234
F1.1000000000000001
sg741
(dp2175
g15
Nsg16
g45
sg18
I19
ssg1236
I1
sg1237
(dp2176
g15
S'H4sIAFcGnEYC/03NsQrDIBDG8f17EV0qmqRbX8DFoa6FEo2BQJOIPaG+fY+00A7/4bgfd3Gra24q\n7iWptT5oGUsZG+4lxX17UqmRkA1kPBy26bPPHaTVIC+CAF1zzyMr24G+cqKWE/IA6cUyCLBmwfTM\nrIcXFwHnnD0ZHPGxYLXmxe2lDad/zfN//DCoN80p7hW4AAAA\n'
p2177
sg16
g119
sg18
I369
ssg110
I0
sg1240
I1
sg1241
I0
sg1243
g1244
sg121
I0
sg1245
I1
ssg16
g134
sg18
I368
sssg1458
(dp2178
g2
(lp2179
((g4
g5
tI-1
tp2180
a((g7
g5
tI-1
tp2181
a((g73
g74
tI-1
tp2182
a((g76
g77
tI-1
tp2183
a((g79
g80
tI-1
tp2184
a((g1220
g1221
tI-1
tp2185
asg12
g1220
sg13
(dp2186
g15
Nsg16
g45
sg18
I8
ssg16
g19
sg18
I380
sg20
g1221
sg15
(dp2187
g15
(dp2188
g163
F1
sg1226
g1227
sg1228
I12
sg204
F0
sg1229
F0
sg1230
I1
sg1231
g1454
sg1233
I0
sg126
I0
sg1234
F1.1000000000000001
sg741
(dp2189
g15
Nsg16
g45
sg18
I19
ssg1236
I1
sg1237
(dp2190
g15
S'H4sIAFcGnEYC/03NsQrDIBDG8f17EV0qmqRbX8DFoa6FEo2BQJOIPaG+fY+00A7/4bgfd3Gra24q\n7iWptT5oGUsZG+4lxX17UqmRkA1kPBy26bPPHaTVIC+CAF1zzyMr24G+cqKWE/IA6cUyCLBmwfTM\nrIcXFwHnnD0ZHPGxYLXmxe2lDad/zfN//DCoN80p7hW4AAAA\n'
p2191
sg16
g119
sg18
I382
ssg110
I0
sg1240
I1
sg1241
I0
sg1243
g1244
sg121
I0
sg1245
I1
ssg16
g134
sg18
I381
sssg1473
(dp2192
g2
(lp2193
((g4
g5
tI-1
tp2194
a((g7
g5
tI-1
tp2195
a((g73
g74
tI-1
tp2196
a((g76
g77
tI-1
tp2197
a((g79
g80
tI-1
tp2198
a((g699
g700
tI-1
tp2199
a((g1482
g1483
tI-1
tp2200
asg12
g1482
sg13
(dp2201
g15
Nsg16
g45
sg18
I8
ssg16
g19
sg18
I370
sg20
g1483
sg15
(dp2202
g15
(dp2203
g708
S'i'
sg709
I0
sg126
I0
sg710
F0.55000001192092896
sg121
I0
sg711
I0
sg712
I0
sg110
I0
sg713
I0
ssg16
g134
sg18
I371
sssg1043
S''
sg1488
g1489
sg1490
(dp2204
g15
Nsg16
g45
sg18
I372
ssg50
S''
sg1431
I256
sg1492
g1489
sg48
S''
sg1493
I01
sg1494
I8
sg1495
I00
sg1496
(dp2205
g2
(lp2206
((g4
g5
tI-1
tp2207
a((g7
g5
tI-1
tp2208
a((g73
g74
tI-1
tp2209
a((g76
g77
tI-1
tp2210
a((g79
g80
tI-1
tp2211
a((g187
g188
tI-1
tp2212
a((g1505
g1506
tI-1
tp2213
a((g1508
g1509
tI-1
tp2214
asg12
g1508
sg13
(dp2215
g15
Nsg16
g45
sg18
I8
ssg16
g19
sg18
I383
sg20
g1509
sg15
(dp2216
g15
(dp2217
g126
I0
sg215
I1
sg204
g1514
sg1515
F0.80000000000000004
sg1516
S'%-#6.3g'
p2218
sg1494
I8
sg207
I1
sg208
I1
sg209
I1
sg210
I1
sg121
I0
sg1518
I256
sg1519
I0
sg1520
(dp2219
g15
S'H4sIAFcGnEYC/2XOMQuDMBAF4P39kWSpaGxAoeCcxaGugaIxQqFqSC8Q/30P263DGx7v4zi3pTUc\nhdujL9b0oucY43jgEb3btzfF5AihgnSnwzZ/96AgTQkaxCRA91BzZWUU6CdnOoJHuEIOYmkEWLNg\nqpnVGMRNoO97c6lwho9Npix5sLkdOe1/fNvZ7GqbFy2ttblZuCqO7viLqfgAbt3QTs0AAAA=\n'
p2220
sg16
g119
sg18
I386
ssg211
I1
sg212
(dp2221
g15
S'H4sIAFcGnEYC/2XOMQuDMBAF4P39kbhUjFpQKDiWLA51DZQkplCoGtITYvvne9huHd5wvI/HuXmd\nwpa7Jfp8Wh90NzGaDdfo3TI/Ka6OECQytzvM47cPJTJVgAZhBegSKj5ZqRL0kyNtwSPUyAZxawRY\ns2B6ZFZhECeBvu/VQWIPj1lVFFzo1BpO+x/bdm+dZK2T8WedvHzp1NQdf2DzD7ndMtDJAAAA\n'
p2222
sg16
g119
sg18
I385
ssg1525
F0.17000000000000001
sg110
I0
sg1526
I0
ssg16
g134
sg18
I384
sssg1527
(dp2223
g15
S'H4sIAFcGnEYC/53OsQrCMBQF0P3+SLIY0lbBQXDOksGsgjRpCoJNQ/oC5u99VL/A4Q6Pe7i8kOqS\nmwpriWqpL3qOpYwNjxLDmjYqNRByBxl2hzR9+9xDGg1ywgvQLQ98sjI96CcnajkiHyGdmM8CrFkw\nPTEb4MRFwFprDh328Jg3WnNxf2v9X2Z95W+8+gDYoI1C1QAAAA==\n'
p2224
sg16
g119
sg18
I387
ssg1241
I00
sg1530
g1531
sg1532
I00
ssg16
g134
sg18
I366
sssg1533
(dp2225
g2
(lp2226
((g4
g5
tI-1
tp2227
a((g27
g5
tI-1
tp2228
a((g29
g30
tI-1
tp2229
a((g32
g33
tI0
tp2230
a((g1390
g1391
tI0
tp2231
asg12
g1390
sg13
(dp2232
g15
Nsg16
g45
sg18
I1
ssg16
g19
sg18
I388
sg20
g1391
sg15
(dp2233
g15
(dp2234
g1396
(dp2235
g15
S'H4sIAFcGnEYC/53OsQrCMBQF0P3+SLIY0lbBQXDOksGsgjRpCoJNQ/oC5u99VL/A4Q6Pe7i8kOqS\nmwpriWqpL3qOpYwNjxLDmjYqNRByBxl2hzR9+9xDGg1ywgvQLQ98sjI96CcnajkiHyGdmM8CrFkw\nPTEb4MRFwFprDh328Jg3WnNxf2v9X2Z95W+8+gDYoI1C1QAAAA==\n'
p2236
sg16
g119
sg18
I395
ssg1399
I01
sg1400
(dp2237
g2
(lp2238
((g4
g5
tI-1
tp2239
a((g7
g5
tI-1
tp2240
a((g73
g74
tI-1
tp2241
a((g76
g77
tI-1
tp2242
a((g79
g80
tI-1
tp2243
a((g1408
g1409
tI-1
tp2244
a((g1411
g1412
tI-1
tp2245
asg12
g1411
sg13
(dp2246
g15
Nsg16
g45
sg18
I8
ssg16
g19
sg18
I396
sg20
g1412
sg15
(dp2247
g15
(dp2248
g1417
I2
sg201
g1418
sg1419
(dp2249
g15
S'H4sIAFcGnEYC/33OMQvCMBAF4P39kWQxpK2Cg+CcJYNZBWnSFASbhngB8+89qqM4vOF4H48LqS65\nqbCWqJb6oPtYythwKzGs6UmlBkLuIMPmkKZPn3tIo0FOeAG65IFPVqYHfeVELUfkPaQT81GANQum\nB2YDnDgJWGvNrsMWHvNGay6uL61/Z9bnvyW/4tUbw9sFJ9IAAAA=\n'
p2250
sg16
g119
sg18
I398
ssg1422
(dp2251
g15
S'H4sIAFcGnEYC/53OsQrCMBQF0P3+SLIY0lbBQXDOksGsgjRpCoJNQ/oC5u99VL/A4Q6Pe7i8kOqS\nmwpriWqpL3qOpYwNjxLDmjYqNRByBxl2hzR9+9xDGg1ywgvQLQ98sjI96CcnajkiHyGdmM8CrFkw\nPTEb4MRFwFprDh328Jg3WnNxf2v9X2Z95W+8+gDYoI1C1QAAAA==\n'
p2252
sg16
g119
sg18
I400
ssg1425
(dp2253
g15
S'H4sIAFcGnEYC/33OMQvCMBAF4P39kXSxpK3FCopzEDpY3ALSpBEKNg3xCum/96jODm94vI/jrF+m\nsOZ2ji6flheNfYz9ikd0dvZvioslhAKZ3Rz88N1DiUxJUCeMAN1CxZWVKkE/OdAaHMIeWSeejQBr\nFkxrZhU6cRJo21btCmzhY0ZJycNVJ9voJA9nnY7mrpOrL1zlv/ATJv8A/YiyW8wAAAA=\n'
p2254
sg16
g119
sg18
I399
ssg1428
I256
sg1429
g1430
sg126
I0
sg1431
I256
sg1432
(dp2255
g15
S'H4sIAFcGnEYC/33OMQvCMBAF4P39kWQxpK2Cg+CcJYNZBWnSFASbhngB8+89qqM4vOF4H48LqS65\nqbCWqJb6oPtYythwKzGs6UmlBkLuIMPmkKZPn3tIo0FOeAG65IFPVqYHfeVELUfkPaQT81GANQum\nB2YDnDgJWGvNrsMWHvNGay6uL61/Z9bnvyW/4tUbw9sFJ9IAAAA=\n'
p2256
sg16
g119
sg18
I401
ssg1435
I0
sg1436
(dp2257
g15
S'H4sIAFcGnEYC/33OMQvCMBAF4P39kWQxpK2Cg+CcJYNZBWnSFASbhngB8+89qqM4vOF4H48LqS65\nqbCWqJb6oPtYythwKzGs6UmlBkLuIMPmkKZPn3tIo0FOeAG65IFPVqYHfeVELUfkPaQT81GANQum\nB2YDnDgJWGvNrsMWHvNGay6uL61/Z9bnvyW/4tUbw9sFJ9IAAAA=\n'
p2258
sg16
g119
sg18
I402
ssg110
I0
sg1439
F1
sg1440
g1441
sg121
I0
ssg16
g134
sg18
I397
sssg1442
(dp2259
g2
(lp2260
((g4
g5
tI-1
tp2261
a((g7
g5
tI-1
tp2262
a((g73
g74
tI-1
tp2263
a((g76
g77
tI-1
tp2264
a((g79
g80
tI-1
tp2265
a((g1220
g1221
tI-1
tp2266
asg12
g1220
sg13
(dp2267
g15
Nsg16
g45
sg18
I8
ssg16
g19
sg18
I390
sg20
g1221
sg15
(dp2268
g15
(dp2269
g163
F1
sg1226
g1227
sg1228
I12
sg204
F0
sg1229
F0
sg1230
I1
sg1231
g1454
sg1233
I0
sg126
I0
sg1234
F1.1000000000000001
sg741
(dp2270
g15
Nsg16
g45
sg18
I19
ssg1236
I1
sg1237
(dp2271
g15
S'H4sIAFcGnEYC/03NsQrDIBDG8f17EV0qmqRbX8DFoa6FEo2BQJOIPaG+fY+00A7/4bgfd3Gra24q\n7iWptT5oGUsZG+4lxX17UqmRkA1kPBy26bPPHaTVIC+CAF1zzyMr24G+cqKWE/IA6cUyCLBmwfTM\nrIcXFwHnnD0ZHPGxYLXmxe2lDad/zfN//DCoN80p7hW4AAAA\n'
p2272
sg16
g119
sg18
I392
ssg110
I0
sg1240
I1
sg1241
I0
sg1243
g1244
sg121
I0
sg1245
I1
ssg16
g134
sg18
I391
sssg1458
(dp2273
g2
(lp2274
((g4
g5
tI-1
tp2275
a((g7
g5
tI-1
tp2276
a((g73
g74
tI-1
tp2277
a((g76
g77
tI-1
tp2278
a((g79
g80
tI-1
tp2279
a((g1220
g1221
tI-1
tp2280
asg12
g1220
sg13
(dp2281
g15
Nsg16
g45
sg18
I8
ssg16
g19
sg18
I403
sg20
g1221
sg15
(dp2282
g15
(dp2283
g163
F1
sg1226
g1227
sg1228
I12
sg204
F0
sg1229
F0
sg1230
I1
sg1231
g1454
sg1233
I0
sg126
I0
sg1234
F1.1000000000000001
sg741
(dp2284
g15
Nsg16
g45
sg18
I19
ssg1236
I1
sg1237
(dp2285
g15
S'H4sIAFcGnEYC/03NsQrDIBDG8f17EV0qmqRbX8DFoa6FEo2BQJOIPaG+fY+00A7/4bgfd3Gra24q\n7iWptT5oGUsZG+4lxX17UqmRkA1kPBy26bPPHaTVIC+CAF1zzyMr24G+cqKWE/IA6cUyCLBmwfTM\nrIcXFwHnnD0ZHPGxYLXmxe2lDad/zfN//DCoN80p7hW4AAAA\n'
p2286
sg16
g119
sg18
I405
ssg110
I0
sg1240
I1
sg1241
I0
sg1243
g1244
sg121
I0
sg1245
I1
ssg16
g134
sg18
I404
sssg1473
(dp2287
g2
(lp2288
((g4
g5
tI-1
tp2289
a((g7
g5
tI-1
tp2290
a((g73
g74
tI-1
tp2291
a((g76
g77
tI-1
tp2292
a((g79
g80
tI-1
tp2293
a((g699
g700
tI-1
tp2294
a((g1482
g1483
tI-1
tp2295
asg12
g1482
sg13
(dp2296
g15
Nsg16
g45
sg18
I8
ssg16
g19
sg18
I393
sg20
g1483
sg15
(dp2297
g15
(dp2298
g708
S'i'
sg709
I0
sg126
I0
sg710
F0.55000001192092896
sg121
I0
sg711
I0
sg712
I0
sg110
I0
sg713
I0
ssg16
g134
sg18
I394
sssg1043
S''
sg1488
g1608
sg1490
(dp2299
g15
Nsg16
g45
sg18
I395
ssg50
S''
sg1431
I256
sg1492
g1608
sg48
S''
sg1493
I01
sg1494
I8
sg1495
I00
sg1496
(dp2300
g2
(lp2301
((g4
g5
tI-1
tp2302
a((g7
g5
tI-1
tp2303
a((g73
g74
tI-1
tp2304
a((g76
g77
tI-1
tp2305
a((g79
g80
tI-1
tp2306
a((g187
g188
tI-1
tp2307
a((g1505
g1506
tI-1
tp2308
a((g1508
g1509
tI-1
tp2309
asg12
g1508
sg13
(dp2310
g15
Nsg16
g45
sg18
I8
ssg16
g19
sg18
I406
sg20
g1509
sg15
(dp2311
g15
(dp2312
g126
I0
sg215
I1
sg204
g1514
sg1515
F0.80000000000000004
sg1516
S'%-#6.3g'
p2313
sg1494
I8
sg207
I1
sg208
I1
sg209
I1
sg210
I1
sg121
I0
sg1518
I256
sg1519
I0
sg1520
(dp2314
g15
S'H4sIAFcGnEYC/2XOMQuDMBAF4P39kWSpaGxAoeCcxaGugaIxQqFqSC8Q/30P263DGx7v4zi3pTUc\nhdujL9b0oucY43jgEb3btzfF5AihgnSnwzZ/96AgTQkaxCRA91BzZWUU6CdnOoJHuEIOYmkEWLNg\nqpnVGMRNoO97c6lwho9Npix5sLkdOe1/fNvZ7GqbFy2ttblZuCqO7viLqfgAbt3QTs0AAAA=\n'
p2315
sg16
g119
sg18
I409
ssg211
I1
sg212
(dp2316
g15
S'H4sIAFcGnEYC/2XOMQuDMBAF4P39kbhUjFpQKDiWLA51DZQkplCoGtITYvvne9huHd5wvI/HuXmd\nwpa7Jfp8Wh90NzGaDdfo3TI/Ka6OECQytzvM47cPJTJVgAZhBegSKj5ZqRL0kyNtwSPUyAZxawRY\ns2B6ZFZhECeBvu/VQWIPj1lVFFzo1BpO+x/bdm+dZK2T8WedvHzp1NQdf2DzD7ndMtDJAAAA\n'
p2317
sg16
g119
sg18
I408
ssg1525
F0.17000000000000001
sg110
I0
sg1526
I0
ssg16
g134
sg18
I407
sssg1527
(dp2318
g15
S'H4sIAFcGnEYC/53OsQrCMBQF0P3+SLIY0lbBQXDOksGsgjRpCoJNQ/oC5u99VL/A4Q6Pe7i8kOqS\nmwpriWqpL3qOpYwNjxLDmjYqNRByBxl2hzR9+9xDGg1ywgvQLQ98sjI96CcnajkiHyGdmM8CrFkw\nPTEb4MRFwFprDh328Jg3WnNxf2v9X2Z95W+8+gDYoI1C1QAAAA==\n'
p2319
sg16
g119
sg18
I410
ssg1241
I00
sg1530
g1531
sg1532
I00
ssg16
g134
sg18
I389
ssssg16
g134
sg18
I363
ssasg16
g267
sg18
I361
ssg1630
I0
ssg16
g134
sg18
I360
ssa(dp2320
g2
(lp2321
((g4
g5
tI-1
tp2322
a((g27
g5
tI-1
tp2323
a((g29
g30
tI-1
tp2324
a((g32
g33
tI0
tp2325
a((g35
g36
tI0
tp2326
a((g998
g999
tI0
tp2327
a((g1001
g1002
tI0
tp2328
a((g1004
g1005
tI0
tp2329
asg12
g1004
sg13
(dp2330
g15
Nsg16
g45
sg18
I1
ssg16
g19
sg18
I415
sg20
g1005
sg15
(dp2331
g15
(dp2332
g50
S''
sg1010
(dp2333
g2
(lp2334
((g1013
g1014
tI-1
tp2335
asg12
g1013
sg13
(dp2336
g15
Nsg16
g45
sg18
I1
ssg16
g19
sg18
I491
sg20
g1014
sg15
(dp2337
g15
(dp2338
g1019
S'strike-slip-fault.vtk'
p2339
sg1021
S'/home/luis/cigma-0.9b1/doc/manual/figures/strike-slip-fault.vtk'
p2340
ssg16
g134
sg18
I492
sssg48
S''
sg1023
I0
sg1024
(dp2341
g2
(lp2342
((g4
g5
tI-1
tp2343
a((g7
g5
tI-1
tp2344
a((g73
g74
tI-1
tp2345
a((g76
g77
tI-1
tp2346
a((g79
g80
tI-1
tp2347
a((g82
g83
tI-1
tp2348
a((g1033
g1034
tI-1
tp2349
a((g1036
g1037
tI-1
tp2350
asg12
g1036
sg13
(dp2351
g15
Nsg16
g45
sg18
I8
ssg16
g19
sg18
I489
sg20
g1037
sg15
(dp2352
g15
(dp2353
g1042
I0
sg1043
S'/home/luis/cigma-0.9b1/doc/manual/figures/strike-slip-fault.vtk'
p2354
sg1045
I0
sg1046
I0
sg126
I0
sg1047
I0
sg1048
I0
sg1049
I0
sg1050
I0
sg113
I0
sg1051
I0
sg114
I0
sg115
F1
sg121
I0
sg1052
I0
sg110
I0
sg1053
I0
sg1054
I0
sg1055
I0
sg1056
I0
sg124
I0
sg1057
I0
sg1058
I0
sg1059
I0
sg130
I0
ssg16
g134
sg18
I490
sssg1060
I0
sg988
(dp2355
g15
(lp2356
(dp2357
g2
(lp2358
((g4
g5
tI-1
tp2359
a((g27
g5
tI-1
tp2360
a((g29
g30
tI-1
tp2361
a((g32
g33
tI0
tp2362
a((g1069
g1070
tI0
tp2363
asg12
g1069
sg13
(dp2364
g15
Nsg16
g45
sg18
I1
ssg16
g19
sg18
I418
sg20
g1070
sg15
(dp2365
g15
(dp2366
g50
S''
sg1075
g1076
sg988
(dp2367
g15
(lp2368
(dp2369
g2
(lp2370
((g4
g5
tI-1
tp2371
a((g27
g5
tI-1
tp2372
a((g29
g30
tI-1
tp2373
a((g32
g33
tI0
tp2374
a((g35
g36
tI0
tp2375
a((g38
g39
tI0
tp2376
a((g41
g42
tI0
tp2377
asg12
g41
sg13
(dp2378
g15
Nsg16
g45
sg18
I1
ssg16
g19
sg18
I421
sg20
g42
sg15
(dp2379
g15
(dp2380
g48
S''
sg49
I00
sg50
S''
sg51
(dp2381
g2
(lp2382
((g4
g5
tI-1
tp2383
a((g27
g5
tI-1
tp2384
a((g29
g30
tI-1
tp2385
a((g32
g33
tI0
tp2386
a((g35
g36
tI0
tp2387
a((g59
g60
tI0
tp2388
a((g62
g63
tI0
tp2389
asg12
g62
sg13
(dp2390
g15
Nsg16
g45
sg18
I1
ssg16
g19
sg18
I423
sg20
g63
sg15
(dp2391
g15
(dp2392
g68
(dp2393
g2
(lp2394
((g4
g5
tI-1
tp2395
a((g7
g5
tI-1
tp2396
a((g73
g74
tI-1
tp2397
a((g76
g77
tI-1
tp2398
a((g79
g80
tI-1
tp2399
a((g82
g83
tI-1
tp2400
a((g85
g86
tI-1
tp2401
a((g88
g89
tI-1
tp2402
a((g91
g92
tI-1
tp2403
a((g94
g95
tI-1
tp2404
asg12
g94
sg13
(dp2405
g15
Nsg16
g45
sg18
I8
ssg16
g19
sg18
I425
sg20
g95
sg15
(dp2406
g15
(dp2407
g101
I0
sg102
I0
sg103
g104
sg105
I0
sg106
I0
sg107
F0.01
sg108
g104
sg109
I0
sg110
I0
sg111
I0
sg112
I1
sg113
I0
sg114
I0
sg115
F1
sg116
(dp2408
g15
S'H4sIAFcGnEYC/53OsQrCMBQF0P3+SLIY0lbBQXDOksGsgjRpCoJNQ/oC5u99VL/A4Q6Pe7i8kOqS\nmwpriWqpL3qOpYwNjxLDmjYqNRByBxl2hzR9+9xDGg1ywgvQLQ98sjI96CcnajkiHyGdmM8CrFkw\nPTEb4MRFwFprDh328Jg3WnNxf2v9X2Z95W+8+gDYoI1C1QAAAA==\n'
p2409
sg16
g119
sg18
I427
ssg120
I1
sg121
I0
sg122
I0
sg123
I1
sg124
I0
sg125
I1
sg126
I0
sg127
I0
sg128
g129
sg130
I0
sg131
I0
sg132
g104
sg133
F0
ssg16
g134
sg18
I426
sssg48
S''
sg135
(dp2410
g2
(lp2411
((g4
g5
tI-1
tp2412
a((g7
g5
tI-1
tp2413
a((g73
g74
tI-1
tp2414
a((g76
g77
tI-1
tp2415
a((g79
g80
tI-1
tp2416
a((g143
g144
tI-1
tp2417
a((g146
g147
tI-1
tp2418
asg12
g146
sg13
(dp2419
g15
Nsg16
g45
sg18
I8
ssg16
g19
sg18
I434
sg20
g147
sg15
(dp2420
g15
(dp2421
g152
(dp2422
g15
Nsg16
g45
sg18
I19
ssg154
I0
sg155
F1
sg156
(dp2423
g15
Nsg16
g45
sg18
I19
ssg159
F0
sg160
I0
sg161
g162
sg163
F1
sg164
I0
sg165
F1
sg166
(dp2424
g15
Nsg16
g45
sg18
I19
ssg168
(dp2425
g15
Nsg16
g45
sg18
I19
ssg121
I0
sg170
I0
sg171
F1
sg172
I0
sg126
I0
sg173
F0
sg174
I0
sg175
I65535
sg110
I0
sg176
g177
sg178
I1
sg179
F2
ssg16
g134
sg18
I435
sssg50
S''
sg51
(dp2426
g2
(lp2427
((g4
g5
tI-1
tp2428
a((g7
g5
tI-1
tp2429
a((g73
g74
tI-1
tp2430
a((g76
g77
tI-1
tp2431
a((g79
g80
tI-1
tp2432
a((g187
g188
tI-1
tp2433
a((g190
g191
tI-1
tp2434
a((g62
g193
tI-1
tp2435
asg12
g62
sg13
(dp2436
g15
Nsg16
g45
sg18
I8
ssg16
g19
sg18
I428
sg20
g193
sg15
(dp2437
g15
(dp2438
g198
(dp2439
g15
S'H4sIAFcGnEYC/7XOMQoCMRAF0P5fJGkMWVfBwguk2cK0gmyyEQQ3O8QJmNs7RK9g8YvhPz4Tc12p\nmbiVZNb65MdcytxwKylu+cWlRgYN0LE75OXb0x7aWbBXQYEvNMopyo3gn1y4UQIdoL26nxREixB6\n7Myrs8I0TW43oEfGgrNWiuvb2n9GHg7mAy0aBDD4AAAA\n'
p2440
sg16
g119
sg18
I430
ssg201
(dp2441
g15
S'H4sIAFcGnEYC/53OMQvCMBAF4P39kWQxpFbBQXDOksGsgjRpCoJtQ3oB8+89oqOTwxuO9/G4sJQ5\nVRXWHNVcnvQYch4q7jmGddkol0BIHWRoDsv46dMe0miQE16Arqnnk5XpQV85Uk0R6QDpxHQSYM2C\n6bExJ84C1lqz69DCY95ozcXtpfXvTPryf8l/evUGx/o6Le8AAAA=\n'
p2442
sg16
g119
sg18
I432
ssg204
(dp2443
g15
S'H4sIAFcGnEYC/53OsQoCMRAE0H5+JGkMOU/hCn8gTQrTCnLJRRC8XIgbMH/vEu0FiymWeQwbUl1z\nU2ErUa31Qfe5lLnhWmLY0pNKDYQ8QIbukJZPn/eQRoOc8AJ0ziOfrMwI+sqFWo7IB0gnbpMAaxZM\nj505cRKw1prdgB4e80ZrLi4vrf/P9NPww169AaZN3yn4AAAA\n'
p2444
sg16
g119
sg18
I431
ssg110
I0
sg207
I1
sg208
I0
sg209
I1
sg210
I1
sg121
I0
sg126
I0
sg211
I0
sg212
(dp2445
g15
S'H4sIAFcGnEYC/7XOMQoCMRAF0P5fJGkMWVfBwguk2cK0gmyyEQQ3O8QJmNs7RK9g8YvhPz4Tc12p\nmbiVZNb65MdcytxwKylu+cWlRgYN0LE75OXb0x7aWbBXQYEvNMopyo3gn1y4UQIdoL26nxREixB6\n7Myrs8I0TW43oEfGgrNWiuvb2n9GHg7mAy0aBDD4AAAA\n'
p2446
sg16
g119
sg18
I433
ssg215
I1
ssg16
g134
sg18
I429
ssssg16
g134
sg18
I424
sssg216
(dp2447
g2
(lp2448
((g4
g5
tI-1
tp2449
a((g27
g5
tI-1
tp2450
a((g29
g30
tI-1
tp2451
a((g32
g33
tI0
tp2452
a((g35
g36
tI0
tp2453
a((g59
g60
tI0
tp2454
a((g225
g226
tI0
tp2455
asg12
g225
sg13
(dp2456
g15
Nsg16
g45
sg18
I1
ssg16
g19
sg18
I436
sg20
g226
sg15
(dp2457
g15
(dp2458
g50
S''
sg231
I01
sg232
(dp2459
g15
Nsg16
g45
sg18
I1
ssg234
I00
sg235
F0
sg48
S''
sg236
(dp2460
g2
(lp2461
((g4
g5
tI-1
tp2462
a((g7
g5
tI-1
tp2463
a((g73
g74
tI-1
tp2464
a((g76
g77
tI-1
tp2465
a((g79
g80
tI-1
tp2466
a((g82
g83
tI-1
tp2467
a((g245
g246
tI-1
tp2468
a((g248
g249
tI-1
tp2469
asg12
g248
sg13
(dp2470
g15
Nsg16
g45
sg18
I8
ssg16
g19
sg18
I438
sg20
g249
sg15
(dp2471
g15
(dp2472
g254
I0
sg121
I0
sg255
I0
sg256
I1
sg257
I0
sg124
I0
sg258
I1
sg259
I1
sg260
I1
sg261
I0
sg262
I0
sg113
I0
sg126
I0
sg114
I0
sg130
I0
sg115
F0
sg263
I1
sg110
I0
ssg16
g134
sg18
I439
sssg264
(dp2473
g15
(lp2474
sg16
g267
sg18
I440
ssg268
(dp2475
g2
(lp2476
((g4
g5
tI-1
tp2477
a((g7
g5
tI-1
tp2478
a((g73
g74
tI-1
tp2479
a((g76
g77
tI-1
tp2480
a((g79
g80
tI-1
tp2481
a((g82
g83
tI-1
tp2482
a((g245
g246
tI-1
tp2483
a((g278
g279
tI-1
tp2484
asg12
g278
sg13
(dp2485
g15
Nsg16
g45
sg18
I8
ssg16
g19
sg18
I441
sg20
g279
sg15
(dp2486
g15
(dp2487
g126
I0
sg284
I1
sg124
I0
sg285
I1
sg103
g286
sg287
I0
sg110
I0
sg121
I0
sg113
I0
sg288
I1
sg114
I0
sg130
I0
sg115
F0
sg263
I1
sg289
I0
ssg16
g134
sg18
I442
sssg290
I01
sg263
I10
sg291
F0
ssg16
g134
sg18
I437
ssssg16
g134
sg18
I422
ssasg16
g267
sg18
I420
ssg48
S''
sg1383
(dp2488
g2
(lp2489
((g4
g5
tI-1
tp2490
a((g27
g5
tI-1
tp2491
a((g29
g30
tI-1
tp2492
a((g32
g33
tI0
tp2493
a((g1390
g1391
tI0
tp2494
asg12
g1390
sg13
(dp2495
g15
Nsg16
g45
sg18
I1
ssg16
g19
sg18
I443
sg20
g1391
sg15
(dp2496
g15
(dp2497
g1396
(dp2498
g15
S'H4sIAFcGnEYC/53OsQrCMBQF0P3+SLIY0lbBQXDOksGsgjRpCoJNQ/oC5u99VL/A4Q6Pe7i8kOqS\nmwpriWqpL3qOpYwNjxLDmjYqNRByBxl2hzR9+9xDGg1ywgvQLQ98sjI96CcnajkiHyGdmM8CrFkw\nPTEb4MRFwFprDh328Jg3WnNxf2v9X2Z95W+8+gDYoI1C1QAAAA==\n'
p2499
sg16
g119
sg18
I450
ssg1399
I01
sg1400
(dp2500
g2
(lp2501
((g4
g5
tI-1
tp2502
a((g7
g5
tI-1
tp2503
a((g73
g74
tI-1
tp2504
a((g76
g77
tI-1
tp2505
a((g79
g80
tI-1
tp2506
a((g1408
g1409
tI-1
tp2507
a((g1411
g1412
tI-1
tp2508
asg12
g1411
sg13
(dp2509
g15
Nsg16
g45
sg18
I8
ssg16
g19
sg18
I451
sg20
g1412
sg15
(dp2510
g15
(dp2511
g1417
I2
sg201
g1418
sg1419
(dp2512
g15
S'H4sIAFcGnEYC/33OMQvCMBAF4P39kWQxpK2Cg+CcJYNZBWnSFASbhngB8+89qqM4vOF4H48LqS65\nqbCWqJb6oPtYythwKzGs6UmlBkLuIMPmkKZPn3tIo0FOeAG65IFPVqYHfeVELUfkPaQT81GANQum\nB2YDnDgJWGvNrsMWHvNGay6uL61/Z9bnvyW/4tUbw9sFJ9IAAAA=\n'
p2513
sg16
g119
sg18
I453
ssg1422
(dp2514
g15
S'H4sIAFcGnEYC/53OsQrCMBQF0P3+SLIY0lbBQXDOksGsgjRpCoJNQ/oC5u99VL/A4Q6Pe7i8kOqS\nmwpriWqpL3qOpYwNjxLDmjYqNRByBxl2hzR9+9xDGg1ywgvQLQ98sjI96CcnajkiHyGdmM8CrFkw\nPTEb4MRFwFprDh328Jg3WnNxf2v9X2Z95W+8+gDYoI1C1QAAAA==\n'
p2515
sg16
g119
sg18
I455
ssg1425
(dp2516
g15
S'H4sIAFcGnEYC/33OMQvCMBAF4P39kXSxpK3FCopzEDpY3ALSpBEKNg3xCum/96jODm94vI/jrF+m\nsOZ2ji6flheNfYz9ikd0dvZvioslhAKZ3Rz88N1DiUxJUCeMAN1CxZWVKkE/OdAaHMIeWSeejQBr\nFkxrZhU6cRJo21btCmzhY0ZJycNVJ9voJA9nnY7mrpOrL1zlv/ATJv8A/YiyW8wAAAA=\n'
p2517
sg16
g119
sg18
I454
ssg1428
I256
sg1429
g1430
sg126
I0
sg1431
I256
sg1432
(dp2518
g15
S'H4sIAFcGnEYC/33OMQvCMBAF4P39kWQxpK2Cg+CcJYNZBWnSFASbhngB8+89qqM4vOF4H48LqS65\nqbCWqJb6oPtYythwKzGs6UmlBkLuIMPmkKZPn3tIo0FOeAG65IFPVqYHfeVELUfkPaQT81GANQum\nB2YDnDgJWGvNrsMWHvNGay6uL61/Z9bnvyW/4tUbw9sFJ9IAAAA=\n'
p2519
sg16
g119
sg18
I456
ssg1435
I0
sg1436
(dp2520
g15
S'H4sIAFcGnEYC/33OMQvCMBAF4P39kWQxpK2Cg+CcJYNZBWnSFASbhngB8+89qqM4vOF4H48LqS65\nqbCWqJb6oPtYythwKzGs6UmlBkLuIMPmkKZPn3tIo0FOeAG65IFPVqYHfeVELUfkPaQT81GANQum\nB2YDnDgJWGvNrsMWHvNGay6uL61/Z9bnvyW/4tUbw9sFJ9IAAAA=\n'
p2521
sg16
g119
sg18
I457
ssg110
I0
sg1439
F1
sg1440
g1441
sg121
I0
ssg16
g134
sg18
I452
sssg1442
(dp2522
g2
(lp2523
((g4
g5
tI-1
tp2524
a((g7
g5
tI-1
tp2525
a((g73
g74
tI-1
tp2526
a((g76
g77
tI-1
tp2527
a((g79
g80
tI-1
tp2528
a((g1220
g1221
tI-1
tp2529
asg12
g1220
sg13
(dp2530
g15
Nsg16
g45
sg18
I8
ssg16
g19
sg18
I445
sg20
g1221
sg15
(dp2531
g15
(dp2532
g163
F1
sg1226
g1227
sg1228
I12
sg204
F0
sg1229
F0
sg1230
I1
sg1231
g1454
sg1233
I0
sg126
I0
sg1234
F1.1000000000000001
sg741
(dp2533
g15
Nsg16
g45
sg18
I19
ssg1236
I1
sg1237
(dp2534
g15
S'H4sIAFcGnEYC/03NsQrDIBDG8f17EV0qmqRbX8DFoa6FEo2BQJOIPaG+fY+00A7/4bgfd3Gra24q\n7iWptT5oGUsZG+4lxX17UqmRkA1kPBy26bPPHaTVIC+CAF1zzyMr24G+cqKWE/IA6cUyCLBmwfTM\nrIcXFwHnnD0ZHPGxYLXmxe2lDad/zfN//DCoN80p7hW4AAAA\n'
p2535
sg16
g119
sg18
I447
ssg110
I0
sg1240
I1
sg1241
I0
sg1243
g1244
sg121
I0
sg1245
I1
ssg16
g134
sg18
I446
sssg1458
(dp2536
g2
(lp2537
((g4
g5
tI-1
tp2538
a((g7
g5
tI-1
tp2539
a((g73
g74
tI-1
tp2540
a((g76
g77
tI-1
tp2541
a((g79
g80
tI-1
tp2542
a((g1220
g1221
tI-1
tp2543
asg12
g1220
sg13
(dp2544
g15
Nsg16
g45
sg18
I8
ssg16
g19
sg18
I458
sg20
g1221
sg15
(dp2545
g15
(dp2546
g163
F1
sg1226
g1227
sg1228
I12
sg204
F0
sg1229
F0
sg1230
I1
sg1231
g1454
sg1233
I0
sg126
I0
sg1234
F1.1000000000000001
sg741
(dp2547
g15
Nsg16
g45
sg18
I19
ssg1236
I1
sg1237
(dp2548
g15
S'H4sIAFcGnEYC/03NsQrDIBDG8f17EV0qmqRbX8DFoa6FEo2BQJOIPaG+fY+00A7/4bgfd3Gra24q\n7iWptT5oGUsZG+4lxX17UqmRkA1kPBy26bPPHaTVIC+CAF1zzyMr24G+cqKWE/IA6cUyCLBmwfTM\nrIcXFwHnnD0ZHPGxYLXmxe2lDad/zfN//DCoN80p7hW4AAAA\n'
p2549
sg16
g119
sg18
I460
ssg110
I0
sg1240
I1
sg1241
I0
sg1243
g1244
sg121
I0
sg1245
I1
ssg16
g134
sg18
I459
sssg1473
(dp2550
g2
(lp2551
((g4
g5
tI-1
tp2552
a((g7
g5
tI-1
tp2553
a((g73
g74
tI-1
tp2554
a((g76
g77
tI-1
tp2555
a((g79
g80
tI-1
tp2556
a((g699
g700
tI-1
tp2557
a((g1482
g1483
tI-1
tp2558
asg12
g1482
sg13
(dp2559
g15
Nsg16
g45
sg18
I8
ssg16
g19
sg18
I448
sg20
g1483
sg15
(dp2560
g15
(dp2561
g708
S'i'
sg709
I0
sg126
I0
sg710
F0.55000001192092896
sg121
I0
sg711
I0
sg712
I0
sg110
I0
sg713
I0
ssg16
g134
sg18
I449
sssg1043
S''
sg1488
g1489
sg1490
(dp2562
g15
Nsg16
g45
sg18
I450
ssg50
S''
sg1431
I256
sg1492
g1489
sg48
S''
sg1493
I01
sg1494
I8
sg1495
I00
sg1496
(dp2563
g2
(lp2564
((g4
g5
tI-1
tp2565
a((g7
g5
tI-1
tp2566
a((g73
g74
tI-1
tp2567
a((g76
g77
tI-1
tp2568
a((g79
g80
tI-1
tp2569
a((g187
g188
tI-1
tp2570
a((g1505
g1506
tI-1
tp2571
a((g1508
g1509
tI-1
tp2572
asg12
g1508
sg13
(dp2573
g15
Nsg16
g45
sg18
I8
ssg16
g19
sg18
I461
sg20
g1509
sg15
(dp2574
g15
(dp2575
g126
I0
sg215
I1
sg204
g1514
sg1515
F0.80000000000000004
sg1516
S'%-#6.3g'
p2576
sg1494
I8
sg207
I1
sg208
I1
sg209
I1
sg210
I1
sg121
I0
sg1518
I256
sg1519
I0
sg1520
(dp2577
g15
S'H4sIAFcGnEYC/2XOMQuDMBAF4P39kWSpaGxAoeCcxaGugaIxQqFqSC8Q/30P263DGx7v4zi3pTUc\nhdujL9b0oucY43jgEb3btzfF5AihgnSnwzZ/96AgTQkaxCRA91BzZWUU6CdnOoJHuEIOYmkEWLNg\nqpnVGMRNoO97c6lwho9Npix5sLkdOe1/fNvZ7GqbFy2ttblZuCqO7viLqfgAbt3QTs0AAAA=\n'
p2578
sg16
g119
sg18
I464
ssg211
I1
sg212
(dp2579
g15
S'H4sIAFcGnEYC/2XOMQuDMBAF4P39kbhUjFpQKDiWLA51DZQkplCoGtITYvvne9huHd5wvI/HuXmd\nwpa7Jfp8Wh90NzGaDdfo3TI/Ka6OECQytzvM47cPJTJVgAZhBegSKj5ZqRL0kyNtwSPUyAZxawRY\ns2B6ZFZhECeBvu/VQWIPj1lVFFzo1BpO+x/bdm+dZK2T8WedvHzp1NQdf2DzD7ndMtDJAAAA\n'
p2580
sg16
g119
sg18
I463
ssg1525
F0.17000000000000001
sg110
I0
sg1526
I0
ssg16
g134
sg18
I462
sssg1527
(dp2581
g15
S'H4sIAFcGnEYC/53OsQrCMBQF0P3+SLIY0lbBQXDOksGsgjRpCoJNQ/oC5u99VL/A4Q6Pe7i8kOqS\nmwpriWqpL3qOpYwNjxLDmjYqNRByBxl2hzR9+9xDGg1ywgvQLQ98sjI96CcnajkiHyGdmM8CrFkw\nPTEb4MRFwFprDh328Jg3WnNxf2v9X2Z95W+8+gDYoI1C1QAAAA==\n'
p2582
sg16
g119
sg18
I465
ssg1241
I00
sg1530
g1531
sg1532
I00
ssg16
g134
sg18
I444
sssg1533
(dp2583
g2
(lp2584
((g4
g5
tI-1
tp2585
a((g27
g5
tI-1
tp2586
a((g29
g30
tI-1
tp2587
a((g32
g33
tI0
tp2588
a((g1390
g1391
tI0
tp2589
asg12
g1390
sg13
(dp2590
g15
Nsg16
g45
sg18
I1
ssg16
g19
sg18
I466
sg20
g1391
sg15
(dp2591
g15
(dp2592
g1396
(dp2593
g15
S'H4sIAFcGnEYC/53OsQrCMBQF0P3+SLIY0lbBQXDOksGsgjRpCoJNQ/oC5u99VL/A4Q6Pe7i8kOqS\nmwpriWqpL3qOpYwNjxLDmjYqNRByBxl2hzR9+9xDGg1ywgvQLQ98sjI96CcnajkiHyGdmM8CrFkw\nPTEb4MRFwFprDh328Jg3WnNxf2v9X2Z95W+8+gDYoI1C1QAAAA==\n'
p2594
sg16
g119
sg18
I473
ssg1399
I01
sg1400
(dp2595
g2
(lp2596
((g4
g5
tI-1
tp2597
a((g7
g5
tI-1
tp2598
a((g73
g74
tI-1
tp2599
a((g76
g77
tI-1
tp2600
a((g79
g80
tI-1
tp2601
a((g1408
g1409
tI-1
tp2602
a((g1411
g1412
tI-1
tp2603
asg12
g1411
sg13
(dp2604
g15
Nsg16
g45
sg18
I8
ssg16
g19
sg18
I474
sg20
g1412
sg15
(dp2605
g15
(dp2606
g1417
I2
sg201
g1418
sg1419
(dp2607
g15
S'H4sIAFcGnEYC/33OMQvCMBAF4P39kWQxpK2Cg+CcJYNZBWnSFASbhngB8+89qqM4vOF4H48LqS65\nqbCWqJb6oPtYythwKzGs6UmlBkLuIMPmkKZPn3tIo0FOeAG65IFPVqYHfeVELUfkPaQT81GANQum\nB2YDnDgJWGvNrsMWHvNGay6uL61/Z9bnvyW/4tUbw9sFJ9IAAAA=\n'
p2608
sg16
g119
sg18
I476
ssg1422
(dp2609
g15
S'H4sIAFcGnEYC/53OsQrCMBQF0P3+SLIY0lbBQXDOksGsgjRpCoJNQ/oC5u99VL/A4Q6Pe7i8kOqS\nmwpriWqpL3qOpYwNjxLDmjYqNRByBxl2hzR9+9xDGg1ywgvQLQ98sjI96CcnajkiHyGdmM8CrFkw\nPTEb4MRFwFprDh328Jg3WnNxf2v9X2Z95W+8+gDYoI1C1QAAAA==\n'
p2610
sg16
g119
sg18
I478
ssg1425
(dp2611
g15
S'H4sIAFcGnEYC/33OMQvCMBAF4P39kXSxpK3FCopzEDpY3ALSpBEKNg3xCum/96jODm94vI/jrF+m\nsOZ2ji6flheNfYz9ikd0dvZvioslhAKZ3Rz88N1DiUxJUCeMAN1CxZWVKkE/OdAaHMIeWSeejQBr\nFkxrZhU6cRJo21btCmzhY0ZJycNVJ9voJA9nnY7mrpOrL1zlv/ATJv8A/YiyW8wAAAA=\n'
p2612
sg16
g119
sg18
I477
ssg1428
I256
sg1429
g1430
sg126
I0
sg1431
I256
sg1432
(dp2613
g15
S'H4sIAFcGnEYC/33OMQvCMBAF4P39kWQxpK2Cg+CcJYNZBWnSFASbhngB8+89qqM4vOF4H48LqS65\nqbCWqJb6oPtYythwKzGs6UmlBkLuIMPmkKZPn3tIo0FOeAG65IFPVqYHfeVELUfkPaQT81GANQum\nB2YDnDgJWGvNrsMWHvNGay6uL61/Z9bnvyW/4tUbw9sFJ9IAAAA=\n'
p2614
sg16
g119
sg18
I479
ssg1435
I0
sg1436
(dp2615
g15
S'H4sIAFcGnEYC/33OMQvCMBAF4P39kWQxpK2Cg+CcJYNZBWnSFASbhngB8+89qqM4vOF4H48LqS65\nqbCWqJb6oPtYythwKzGs6UmlBkLuIMPmkKZPn3tIo0FOeAG65IFPVqYHfeVELUfkPaQT81GANQum\nB2YDnDgJWGvNrsMWHvNGay6uL61/Z9bnvyW/4tUbw9sFJ9IAAAA=\n'
p2616
sg16
g119
sg18
I480
ssg110
I0
sg1439
F1
sg1440
g1441
sg121
I0
ssg16
g134
sg18
I475
sssg1442
(dp2617
g2
(lp2618
((g4
g5
tI-1
tp2619
a((g7
g5
tI-1
tp2620
a((g73
g74
tI-1
tp2621
a((g76
g77
tI-1
tp2622
a((g79
g80
tI-1
tp2623
a((g1220
g1221
tI-1
tp2624
asg12
g1220
sg13
(dp2625
g15
Nsg16
g45
sg18
I8
ssg16
g19
sg18
I468
sg20
g1221
sg15
(dp2626
g15
(dp2627
g163
F1
sg1226
g1227
sg1228
I12
sg204
F0
sg1229
F0
sg1230
I1
sg1231
g1454
sg1233
I0
sg126
I0
sg1234
F1.1000000000000001
sg741
(dp2628
g15
Nsg16
g45
sg18
I19
ssg1236
I1
sg1237
(dp2629
g15
S'H4sIAFcGnEYC/03NsQrDIBDG8f17EV0qmqRbX8DFoa6FEo2BQJOIPaG+fY+00A7/4bgfd3Gra24q\n7iWptT5oGUsZG+4lxX17UqmRkA1kPBy26bPPHaTVIC+CAF1zzyMr24G+cqKWE/IA6cUyCLBmwfTM\nrIcXFwHnnD0ZHPGxYLXmxe2lDad/zfN//DCoN80p7hW4AAAA\n'
p2630
sg16
g119
sg18
I470
ssg110
I0
sg1240
I1
sg1241
I0
sg1243
g1244
sg121
I0
sg1245
I1
ssg16
g134
sg18
I469
sssg1458
(dp2631
g2
(lp2632
((g4
g5
tI-1
tp2633
a((g7
g5
tI-1
tp2634
a((g73
g74
tI-1
tp2635
a((g76
g77
tI-1
tp2636
a((g79
g80
tI-1
tp2637
a((g1220
g1221
tI-1
tp2638
asg12
g1220
sg13
(dp2639
g15
Nsg16
g45
sg18
I8
ssg16
g19
sg18
I481
sg20
g1221
sg15
(dp2640
g15
(dp2641
g163
F1
sg1226
g1227
sg1228
I12
sg204
F0
sg1229
F0
sg1230
I1
sg1231
g1454
sg1233
I0
sg126
I0
sg1234
F1.1000000000000001
sg741
(dp2642
g15
Nsg16
g45
sg18
I19
ssg1236
I1
sg1237
(dp2643
g15
S'H4sIAFcGnEYC/03NsQrDIBDG8f17EV0qmqRbX8DFoa6FEo2BQJOIPaG+fY+00A7/4bgfd3Gra24q\n7iWptT5oGUsZG+4lxX17UqmRkA1kPBy26bPPHaTVIC+CAF1zzyMr24G+cqKWE/IA6cUyCLBmwfTM\nrIcXFwHnnD0ZHPGxYLXmxe2lDad/zfN//DCoN80p7hW4AAAA\n'
p2644
sg16
g119
sg18
I483
ssg110
I0
sg1240
I1
sg1241
I0
sg1243
g1244
sg121
I0
sg1245
I1
ssg16
g134
sg18
I482
sssg1473
(dp2645
g2
(lp2646
((g4
g5
tI-1
tp2647
a((g7
g5
tI-1
tp2648
a((g73
g74
tI-1
tp2649
a((g76
g77
tI-1
tp2650
a((g79
g80
tI-1
tp2651
a((g699
g700
tI-1
tp2652
a((g1482
g1483
tI-1
tp2653
asg12
g1482
sg13
(dp2654
g15
Nsg16
g45
sg18
I8
ssg16
g19
sg18
I471
sg20
g1483
sg15
(dp2655
g15
(dp2656
g708
S'i'
sg709
I0
sg126
I0
sg710
F0.55000001192092896
sg121
I0
sg711
I0
sg712
I0
sg110
I0
sg713
I0
ssg16
g134
sg18
I472
sssg1043
S''
sg1488
g1608
sg1490
(dp2657
g15
Nsg16
g45
sg18
I473
ssg50
S''
sg1431
I256
sg1492
g1608
sg48
S''
sg1493
I01
sg1494
I8
sg1495
I00
sg1496
(dp2658
g2
(lp2659
((g4
g5
tI-1
tp2660
a((g7
g5
tI-1
tp2661
a((g73
g74
tI-1
tp2662
a((g76
g77
tI-1
tp2663
a((g79
g80
tI-1
tp2664
a((g187
g188
tI-1
tp2665
a((g1505
g1506
tI-1
tp2666
a((g1508
g1509
tI-1
tp2667
asg12
g1508
sg13
(dp2668
g15
Nsg16
g45
sg18
I8
ssg16
g19
sg18
I484
sg20
g1509
sg15
(dp2669
g15
(dp2670
g126
I0
sg215
I1
sg204
g1514
sg1515
F0.80000000000000004
sg1516
S'%-#6.3g'
p2671
sg1494
I8
sg207
I1
sg208
I1
sg209
I1
sg210
I1
sg121
I0
sg1518
I256
sg1519
I0
sg1520
(dp2672
g15
S'H4sIAFcGnEYC/2XOMQuDMBAF4P39kWSpaGxAoeCcxaGugaIxQqFqSC8Q/30P263DGx7v4zi3pTUc\nhdujL9b0oucY43jgEb3btzfF5AihgnSnwzZ/96AgTQkaxCRA91BzZWUU6CdnOoJHuEIOYmkEWLNg\nqpnVGMRNoO97c6lwho9Npix5sLkdOe1/fNvZ7GqbFy2ttblZuCqO7viLqfgAbt3QTs0AAAA=\n'
p2673
sg16
g119
sg18
I487
ssg211
I1
sg212
(dp2674
g15
S'H4sIAFcGnEYC/2XOMQuDMBAF4P39kbhUjFpQKDiWLA51DZQkplCoGtITYvvne9huHd5wvI/HuXmd\nwpa7Jfp8Wh90NzGaDdfo3TI/Ka6OECQytzvM47cPJTJVgAZhBegSKj5ZqRL0kyNtwSPUyAZxawRY\ns2B6ZFZhECeBvu/VQWIPj1lVFFzo1BpO+x/bdm+dZK2T8WedvHzp1NQdf2DzD7ndMtDJAAAA\n'
p2675
sg16
g119
sg18
I486
ssg1525
F0.17000000000000001
sg110
I0
sg1526
I0
ssg16
g134
sg18
I485
sssg1527
(dp2676
g15
S'H4sIAFcGnEYC/53OsQrCMBQF0P3+SLIY0lbBQXDOksGsgjRpCoJNQ/oC5u99VL/A4Q6Pe7i8kOqS\nmwpriWqpL3qOpYwNjxLDmjYqNRByBxl2hzR9+9xDGg1ywgvQLQ98sjI96CcnajkiHyGdmM8CrFkw\nPTEb4MRFwFprDh328Jg3WnNxf2v9X2Z95W+8+gDYoI1C1QAAAA==\n'
p2677
sg16
g119
sg18
I488
ssg1241
I00
sg1530
g1531
sg1532
I00
ssg16
g134
sg18
I467
ssssg16
g134
sg18
I419
ssasg16
g267
sg18
I417
ssg1630
I0
ssg16
g134
sg18
I416
ssasg16
g267
sg18
I151
sssg16
g134
sg18
I29
ssasg16
g267
sg18
I27
sssg16
g134
sg18
I2
ss.