(dp1
S'version'
p2
(lp3
((S'HasTraits'
p4
S'enthought.traits.has_traits'
p5
tI-1
tp6
a((S'HasStrictTraits'
p7
g5
tI-1
tp8
a((S'Engine'
p9
S'enthought.mayavi.engine'
p10
tI0
tp11
asS'class_name'
p12
g9
sS'initargs'
p13
(dp14
S'data'
p15
(tsS'type'
p16
S'tuple'
p17
sS'id'
p18
I1
ssg16
S'instance'
p19
sg18
I0
sS'module'
p20
g10
sg15
(dp21
g15
(dp22
S'_current_selection'
p23
(dp24
g2
(lp25
((g4
g5
tI-1
tp26
a((S'HasPrivateTraits'
p27
g5
tI-1
tp28
a((S'TreeNodeObject'
p29
S'enthought.traits.ui.tree_node'
p30
tI-1
tp31
a((S'Base'
p32
S'enthought.mayavi.core.base'
p33
tI0
tp34
a((S'PipelineBase'
p35
S'enthought.mayavi.core.pipeline_base'
p36
tI0
tp37
a((S'Module'
p38
S'enthought.mayavi.core.module'
p39
tI0
tp40
a((S'Surface'
p41
S'enthought.mayavi.modules.surface'
p42
tI0
tp43
asg12
g41
sg13
(dp44
g15
Nsg16
S'reference'
p45
sg18
I1
ssg16
g19
sg18
I3
sg20
g42
sg15
(dp46
g15
(dp47
S'_saved_state'
p48
S''
sS'enable_contours'
p49
I00
sS'name'
p50
S''
sS'actor'
p51
(dp52
g2
(lp53
((g4
g5
tI-1
tp54
a((g27
g5
tI-1
tp55
a((g29
g30
tI-1
tp56
a((g32
g33
tI0
tp57
a((g35
g36
tI0
tp58
a((S'Component'
p59
S'enthought.mayavi.core.component'
p60
tI0
tp61
a((S'Actor'
p62
S'enthought.mayavi.components.actor'
p63
tI0
tp64
asg12
g62
sg13
(dp65
g15
Nsg16
g45
sg18
I1
ssg16
g19
sg18
I5
sg20
g63
sg15
(dp66
g15
(dp67
S'mapper'
p68
(dp69
g2
(lp70
((g4
g5
tI-1
tp71
a((g7
g5
tI-1
tp72
a((S'TVTKBase'
p73
S'enthought.tvtk.tvtk_base'
p74
tI-1
tp75
a((S'ObjectBase'
p76
S'tvtk_classes.object_base'
p77
tI-1
tp78
a((S'Object'
p79
S'tvtk_classes.object'
p80
tI-1
tp81
a((S'Algorithm'
p82
S'tvtk_classes.algorithm'
p83
tI-1
tp84
a((S'AbstractMapper'
p85
S'tvtk_classes.abstract_mapper'
p86
tI-1
tp87
a((S'AbstractMapper3D'
p88
S'tvtk_classes.abstract_mapper3d'
p89
tI-1
tp90
a((S'Mapper'
p91
S'tvtk_classes.mapper'
p92
tI-1
tp93
a((S'DataSetMapper'
p94
S'tvtk_classes.data_set_mapper'
p95
tI-1
tp96
asg12
g94
sg13
(dp97
g15
(NI0
tp98
sg16
g17
sg18
I8
ssg16
g19
sg18
I7
sg20
g95
sg15
(dp99
g15
(dp100
S'immediate_mode_rendering'
p101
I0
sS'immediate_mode_rendering_'
p102
I0
sS'scalar_mode'
p103
S'default'
p104
sS'static'
p105
I0
sS'static_'
p106
I0
sS'resolve_coincident_topology_z_shift'
p107
F0.01
sS'color_mode'
p108
g104
sS'interpolate_scalars_before_mapping'
p109
I0
sS'debug'
p110
I0
sS'resolve_coincident_topology_'
p111
I0
sS'use_lookup_table_scalar_range'
p112
I1
sS'abort_execute'
p113
I0
sS'release_data_flag'
p114
I0
sS'progress'
p115
F1
sS'scalar_range'
p116
(dp117
g15
S'H4sIAAP4l0YC/53OsQrCMBQF0P3+SLIY0lbBQXDOksGsgjRpCoJNQ/oC5u99VL/A4Q6Pe7i8kOqS\nmwpriWqpL3qOpYwNjxLDmjYqNRByBxl2hzR9+9xDGg1ywgvQLQ98sjI96CcnajkiHyGdmM8CrFkw\nPTEb4MRFwFprDh328Jg3WnNxf2v9X2Z95W+8+gDYoI1C1QAAAA==\n'
p118
sg16
S'numeric'
p119
sg18
I10
ssS'use_lookup_table_scalar_range_'
p120
I1
sS'global_warning_display_'
p121
I0
sS'global_immediate_mode_rendering_'
p122
I0
sS'scalar_visibility'
p123
I1
sS'abort_execute_'
p124
I0
sS'scalar_visibility_'
p125
I1
sS'debug_'
p126
I0
sS'interpolate_scalars_before_mapping_'
p127
I0
sS'resolve_coincident_topology'
p128
S'off'
p129
sS'release_data_flag_'
p130
I0
sS'global_immediate_mode_rendering'
p131
I0
sS'scalar_material_mode'
p132
g104
sS'render_time'
p133
F0
ssg16
S'dict'
p134
sg18
I9
sssg48
S''
sS'property'
p135
(dp136
g2
(lp137
((g4
g5
tI-1
tp138
a((g7
g5
tI-1
tp139
a((g73
g74
tI-1
tp140
a((g76
g77
tI-1
tp141
a((g79
g80
tI-1
tp142
a((S'Property'
p143
S'tvtk_classes.property'
p144
tI-1
tp145
a((S'OpenGLProperty'
p146
S'tvtk_classes.open_gl_property'
p147
tI-1
tp148
asg12
g146
sg13
(dp149
g15
Nsg16
g45
sg18
I8
ssg16
g19
sg18
I17
sg20
g147
sg15
(dp150
g15
(dp151
S'diffuse_color'
p152
(dp153
g15
Nsg16
g45
sg18
I19
ssS'backface_culling'
p154
I0
sS'specular_power'
p155
F1
sS'edge_color'
p156
(dp157
g15
(F1
F1
F1
tp158
sg16
g17
sg18
I19
ssS'ambient'
p159
F0
sS'edge_visibility'
p160
I0
sS'interpolation'
p161
S'gouraud'
p162
sS'opacity'
p163
F1
sS'frontface_culling'
p164
I0
sS'point_size'
p165
F1
sS'specular_color'
p166
(dp167
g15
Nsg16
g45
sg18
I19
ssS'ambient_color'
p168
(dp169
g15
Nsg16
g45
sg18
I19
ssg121
I0
sS'backface_culling_'
p170
I0
sS'diffuse'
p171
F1
sS'edge_visibility_'
p172
I0
sg126
I0
sS'specular'
p173
F0
sS'frontface_culling_'
p174
I0
sS'line_stipple_pattern'
p175
I65535
sg110
I0
sS'representation'
p176
S'surface'
p177
sS'line_stipple_repeat_factor'
p178
I1
sS'line_width'
p179
F2
ssg16
g134
sg18
I18
sssg50
S''
sg51
(dp180
g2
(lp181
((g4
g5
tI-1
tp182
a((g7
g5
tI-1
tp183
a((g73
g74
tI-1
tp184
a((g76
g77
tI-1
tp185
a((g79
g80
tI-1
tp186
a((S'Prop'
p187
S'tvtk_classes.prop'
p188
tI-1
tp189
a((S'Prop3D'
p190
S'tvtk_classes.prop3d'
p191
tI-1
tp192
a((g62
S'tvtk_classes.actor'
p193
tI-1
tp194
asg12
g62
sg13
(dp195
g15
Nsg16
g45
sg18
I8
ssg16
g19
sg18
I11
sg20
g193
sg15
(dp196
g15
(dp197
S'origin'
p198
(dp199
g15
S'H4sIAAP4l0YC/7XOMQoCMRAF0P5fJGkMWVfBwguk2cK0gmyyEQQ3O8QJmNs7RK9g8YvhPz4Tc12p\nmbiVZNb65MdcytxwKylu+cWlRgYN0LE75OXb0x7aWbBXQYEvNMopyo3gn1y4UQIdoL26nxREixB6\n7Myrs8I0TW43oEfGgrNWiuvb2n9GHg7mAy0aBDD4AAAA\n'
p200
sg16
g119
sg18
I13
ssS'scale'
p201
(dp202
g15
S'H4sIAAP4l0YC/53OMQvCMBAF4P39kWQxpFbBQXDOksGsgjRpCoJtQ3oB8+89oqOTwxuO9/G4sJQ5\nVRXWHNVcnvQYch4q7jmGddkol0BIHWRoDsv46dMe0miQE16Arqnnk5XpQV85Uk0R6QDpxHQSYM2C\n6bExJ84C1lqz69DCY95ozcXtpfXvTPryf8l/evUGx/o6Le8AAAA=\n'
p203
sg16
g119
sg18
I15
ssS'orientation'
p204
(dp205
g15
S'H4sIAAP4l0YC/53OsQoCMRAE0H5+JGkMOU/hCn8gTQrTCnLJRRC8XIgbMH/vEu0FiymWeQwbUl1z\nU2ErUa31Qfe5lLnhWmLY0pNKDYQ8QIbukJZPn/eQRoOc8AJ0ziOfrMwI+sqFWo7IB0gnbpMAaxZM\nj505cRKw1prdgB4e80ZrLi4vrf/P9NPww169AaZN3yn4AAAA\n'
p206
sg16
g119
sg18
I14
ssg110
I0
sS'dragable'
p207
I1
sS'visibility'
p208
I1
sS'pickable_'
p209
I1
sS'dragable_'
p210
I1
sg121
I0
sg126
I0
sS'visibility_'
p211
I1
sS'position'
p212
(dp213
g15
S'H4sIAAP4l0YC/7XOMQoCMRAF0P5fJGkMWVfBwguk2cK0gmyyEQQ3O8QJmNs7RK9g8YvhPz4Tc12p\nmbiVZNb65MdcytxwKylu+cWlRgYN0LE75OXb0x7aWbBXQYEvNMopyo3gn1y4UQIdoL26nxREixB6\n7Myrs8I0TW43oEfGgrNWiuvb2n9GHg7mAy0aBDD4AAAA\n'
p214
sg16
g119
sg18
I16
ssS'pickable'
p215
I1
ssg16
g134
sg18
I12
ssssg16
g134
sg18
I6
sssS'contour'
p216
(dp217
g2
(lp218
((g4
g5
tI-1
tp219
a((g27
g5
tI-1
tp220
a((g29
g30
tI-1
tp221
a((g32
g33
tI0
tp222
a((g35
g36
tI0
tp223
a((g59
g60
tI0
tp224
a((S'Contour'
p225
S'enthought.mayavi.components.contour'
p226
tI0
tp227
asg12
g225
sg13
(dp228
g15
Nsg16
g45
sg18
I1
ssg16
g19
sg18
I20
sg20
g226
sg15
(dp229
g15
(dp230
g50
S''
sS'auto_contours'
p231
I01
sS'_current_range'
p232
(dp233
g15
Nsg16
g45
sg18
I1
ssS'filled_contours'
p234
I00
sS'minimum_contour'
p235
F0
sg48
S''
sS'_cont_filt'
p236
(dp237
g2
(lp238
((g4
g5
tI-1
tp239
a((g7
g5
tI-1
tp240
a((g73
g74
tI-1
tp241
a((g76
g77
tI-1
tp242
a((g79
g80
tI-1
tp243
a((g82
g83
tI-1
tp244
a((S'PolyDataAlgorithm'
p245
S'tvtk_classes.poly_data_algorithm'
p246
tI-1
tp247
a((S'ContourFilter'
p248
S'tvtk_classes.contour_filter'
p249
tI-1
tp250
asg12
g248
sg13
(dp251
g15
Nsg16
g45
sg18
I8
ssg16
g19
sg18
I22
sg20
g249
sg15
(dp252
g15
(dp253
S'compute_gradients'
p254
I0
sg121
I0
sS'array_component'
p255
I0
sS'compute_normals_'
p256
I1
sS'use_scalar_tree_'
p257
I0
sg124
I0
sS'compute_scalars_'
p258
I1
sS'compute_normals'
p259
I1
sS'compute_scalars'
p260
I1
sS'use_scalar_tree'
p261
I0
sS'compute_gradients_'
p262
I0
sg113
I0
sg126
I0
sg114
I0
sg130
I0
sg115
F0
sS'number_of_contours'
p263
I1
sg110
I0
ssg16
g134
sg18
I23
sssS'contours'
p264
(dp265
g15
(lp266
sg16
S'list'
p267
sg18
I24
ssS'_fill_cont_filt'
p268
(dp269
g2
(lp270
((g4
g5
tI-1
tp271
a((g7
g5
tI-1
tp272
a((g73
g74
tI-1
tp273
a((g76
g77
tI-1
tp274
a((g79
g80
tI-1
tp275
a((g82
g83
tI-1
tp276
a((g245
g246
tI-1
tp277
a((S'BandedPolyDataContourFilter'
p278
S'tvtk_classes.banded_poly_data_contour_filter'
p279
tI-1
tp280
asg12
g278
sg13
(dp281
g15
Nsg16
g45
sg18
I8
ssg16
g19
sg18
I25
sg20
g279
sg15
(dp282
g15
(dp283
g126
I0
sS'clipping'
p284
I1
sg124
I0
sS'clipping_'
p285
I1
sg103
S'value'
p286
sS'generate_contour_edges'
p287
I0
sg110
I0
sg121
I0
sg113
I0
sS'scalar_mode_'
p288
I1
sg114
I0
sg130
I0
sg115
F0
sg263
I1
sS'generate_contour_edges_'
p289
I0
ssg16
g134
sg18
I26
sssS'show_filled_contours'
p290
I01
sg263
I10
sS'maximum_contour'
p291
F0
ssg16
g134
sg18
I21
ssssg16
g134
sg18
I4
sssg50
S'MayaVi Engine'
p292
sS'preference_manager'
p293
(dp294
g2
(lp295
((g4
g5
tI-1
tp296
a((S'PreferenceManager'
p297
S'enthought.mayavi.preference_manager'
p298
tI-1
tp299
asg12
g297
sg13
(dp300
g15
Nsg16
g45
sg18
I1
ssg16
g19
sg18
I533
sg20
g298
sg15
(dp301
g15
(dp302
S'engine'
p303
(dp304
g15
Nsg16
g45
sg18
I0
ssS'preferences'
p305
(dp306
g2
(lp307
((g4
g5
tI-1
tp308
a((S'Preferences'
p309
S'enthought.envisage.core.preferences'
p310
tI-1
tp311
asg12
g309
sg13
(dp312
g15
Nsg16
g45
sg18
I1
ssg16
g19
sg18
I535
sg20
g310
sg15
(dp313
g15
(dp314
S'user'
p315
(dp316
g15
(dp317
sg16
g134
sg18
I537
ssS'defaults'
p318
(dp319
g15
(dp320
S'confirm_delete'
p321
I01
ssg16
g134
sg18
I538
sssg16
g134
sg18
I536
ssssg16
g134
sg18
I534
sssS'scenes'
p322
(dp323
g15
(lp324
(dp325
g2
(lp326
((g4
g5
tI-1
tp327
a((g27
g5
tI-1
tp328
a((g29
g30
tI-1
tp329
a((g32
g33
tI0
tp330
a((S'Scene'
p331
S'enthought.mayavi.core.scene'
p332
tI0
tp333
asg12
g331
sg13
(dp334
g15
Nsg16
g45
sg18
I1
ssg16
g19
sg18
I28
sg20
g332
sg15
(dp335
g15
(dp336
g48
S''
sS'scene'
p337
(dp338
g2
(lp339
((g4
g5
tI-1
tp340
a((g27
g5
tI-1
tp341
a((S'Widget'
p342
S'enthought.pyface.widget'
p343
tI-1
tp344
a((g331
S'enthought.pyface.tvtk.scene'
p345
tI0
tp346
a((S'DecoratedScene'
p347
S'enthought.pyface.tvtk.decorated_scene'
p348
tI0
tp349
asg12
g347
sg13
(dp350
g15
Nsg16
g45
sg18
I1
ssg16
g19
sg18
I30
sg20
g348
sg15
(dp351
g15
(dp352
S'picker'
p353
(dp354
g2
(lp355
((g4
g5
tI-1
tp356
a((S'Picker'
p357
S'enthought.pyface.tvtk.picker'
p358
tI0
tp359
asg12
g357
sg13
(dp360
g15
Nsg16
g45
sg18
I1
ssg16
g19
sg18
I32
sg20
g358
sg15
(dp361
g15
(dp362
S'p_mapper'
p363
(dp364
g2
(lp365
((g4
g5
tI-1
tp366
a((g7
g5
tI-1
tp367
a((g73
g74
tI-1
tp368
a((g76
g77
tI-1
tp369
a((g79
g80
tI-1
tp370
a((g82
g83
tI-1
tp371
a((g85
g86
tI-1
tp372
a((g88
g89
tI-1
tp373
a((g91
g92
tI-1
tp374
a((S'PolyDataMapper'
p375
S'tvtk_classes.poly_data_mapper'
p376
tI-1
tp377
asg12
g375
sg13
(dp378
g15
Nsg16
g45
sg18
I8
ssg16
g19
sg18
I34
sg20
g376
sg15
(dp379
g15
(dp380
g101
I0
sg102
I0
sg103
g104
sg105
I0
sg126
I0
sg107
F0.01
sS'ghost_level'
p381
I0
sg108
g104
sg109
I0
sg110
I0
sg111
I0
sg112
I0
sg113
I0
sg114
I0
sg115
F0
sg116
(dp382
g15
S'H4sIAAP4l0YC/53OsQrCMBQF0P3+SLIY0lbBQXDOksGsgjRpCoJNQ/oC5u99VL/A4Q6Pe7i8kOqS\nmwpriWqpL3qOpYwNjxLDmjYqNRByBxl2hzR9+9xDGg1ywgvQLQ98sjI96CcnajkiHyGdmM8CrFkw\nPTEb4MRFwFprDh328Jg3WnNxf2v9X2Z95W+8+gDYoI1C1QAAAA==\n'
p383
sg16
g119
sg18
I36
ssg120
I0
sg121
I0
sg122
I0
sg123
I1
sg124
I0
sg125
I1
sg106
I0
sg131
I0
sg127
I0
sS'number_of_sub_pieces'
p384
I1
sg132
g104
sg130
I0
sS'piece'
p385
I0
sS'number_of_pieces'
p386
I1
sg128
g129
sg133
F0
ssg16
g134
sg18
I35
sssS'worldpicker'
p387
(dp388
g2
(lp389
((g4
g5
tI-1
tp390
a((g7
g5
tI-1
tp391
a((g73
g74
tI-1
tp392
a((g76
g77
tI-1
tp393
a((g79
g80
tI-1
tp394
a((S'AbstractPicker'
p395
S'tvtk_classes.abstract_picker'
p396
tI-1
tp397
a((S'WorldPointPicker'
p398
S'tvtk_classes.world_point_picker'
p399
tI-1
tp400
asg12
g398
sg13
(dp401
g15
Nsg16
g45
sg18
I8
ssg16
g19
sg18
I37
sg20
g399
sg15
(dp402
g15
(dp403
g110
I0
sg121
I0
sS'pick_from_list_'
p404
I0
sg126
I0
sS'pick_from_list'
p405
I0
ssg16
g134
sg18
I38
sssS'probe_data'
p406
(dp407
g2
(lp408
((g4
g5
tI-1
tp409
a((g7
g5
tI-1
tp410
a((g73
g74
tI-1
tp411
a((g76
g77
tI-1
tp412
a((g79
g80
tI-1
tp413
a((S'DataObject'
p414
S'tvtk_classes.data_object'
p415
tI-1
tp416
a((S'DataSet'
p417
S'tvtk_classes.data_set'
p418
tI-1
tp419
a((S'PointSet'
p420
S'tvtk_classes.point_set'
p421
tI-1
tp422
a((S'PolyData'
p423
S'tvtk_classes.poly_data'
p424
tI-1
tp425
asg12
g423
sg13
(dp426
g15
Nsg16
g45
sg18
I8
ssg16
g19
sg18
I39
sg20
g424
sg15
(dp427
g15
(dp428
S'update_piece'
p429
I0
sS'whole_extent'
p430
(dp431
g15
S'H4sIAAP4l0YC/6XOsQrCMBQF0P3+SLIYUlud/IEsGcwqSJOmULBpSF/B/L2P6tLZ4Q6Pe7i8kLY5\nVxWWEtW8vWjqS+krniWGJa1UtkDIDWTYHdLw7fMZ0miQE16A7rnlk5W5gn5yoJojcgfpxNQJsGbB\n9MKshRM3AWutOTXYw2PeaM3F4631MeN4zH89P+zVB24aZ/74AAAA\n'
p432
sg16
g119
sg18
I41
ssS'update_number_of_pieces'
p433
I1
sg110
I0
sS'update_ghost_level'
p434
I0
sS'global_release_data_flag_'
p435
I0
sg126
I0
sS'update_extent'
p436
(dp437
g15
S'H4sIAAP4l0YC/6XOsQrCMBQF0P3+SLIYUlud/IEsGcwqSJOmULBpSF/B/L2P6tLZ4Q6Pe7i8kLY5\nVxWWEtW8vWjqS+krniWGJa1UtkDIDWTYHdLw7fMZ0miQE16A7rnlk5W5gn5yoJojcgfpxNQJsGbB\n9MKshRM3AWutOTXYw2PeaM3F4631MeN4zH89P+zVB24aZ/74AAAA\n'
p438
sg16
g119
sg18
I42
ssS'request_exact_extent_'
p439
I0
sg121
I0
sg114
I0
sS'global_release_data_flag'
p440
I0
sg130
I0
sS'maximum_number_of_pieces'
p441
I-1
sS'request_exact_extent'
p442
I0
ssg16
g134
sg18
I40
sssS'cellpicker'
p443
(dp444
g2
(lp445
((g4
g5
tI-1
tp446
a((g7
g5
tI-1
tp447
a((g73
g74
tI-1
tp448
a((g76
g77
tI-1
tp449
a((g79
g80
tI-1
tp450
a((g395
g396
tI-1
tp451
a((S'AbstractPropPicker'
p452
S'tvtk_classes.abstract_prop_picker'
p453
tI-1
tp454
a((g357
S'tvtk_classes.picker'
p455
tI-1
tp456
a((S'CellPicker'
p457
S'tvtk_classes.cell_picker'
p458
tI-1
tp459
asg12
g457
sg13
(dp460
g15
Nsg16
g45
sg18
I8
ssg16
g19
sg18
I43
sg20
g458
sg15
(dp461
g15
(dp462
g126
I0
sg405
I0
sg121
I0
sg404
I0
sg110
I0
sS'tolerance'
p463
F0.025000000000000001
ssg16
g134
sg18
I44
sssS'p_actor'
p464
(dp465
g2
(lp466
((g4
g5
tI-1
tp467
a((g7
g5
tI-1
tp468
a((g73
g74
tI-1
tp469
a((g76
g77
tI-1
tp470
a((g79
g80
tI-1
tp471
a((g187
g188
tI-1
tp472
a((g190
g191
tI-1
tp473
a((g62
g193
tI-1
tp474
asg12
g62
sg13
(dp475
g15
Nsg16
g45
sg18
I8
ssg16
g19
sg18
I45
sg20
g193
sg15
(dp476
g15
(dp477
g198
(dp478
g15
S'H4sIAAP4l0YC/7XOMQoCMRAF0P5fJGkMWVfBwguk2cK0gmyyEQQ3O8QJmNs7RK9g8YvhPz4Tc12p\nmbiVZNb65MdcytxwKylu+cWlRgYN0LE75OXb0x7aWbBXQYEvNMopyo3gn1y4UQIdoL26nxREixB6\n7Myrs8I0TW43oEfGgrNWiuvb2n9GHg7mAy0aBDD4AAAA\n'
p479
sg16
g119
sg18
I47
ssg201
(dp480
g15
S'H4sIAAP4l0YC/53OMQvCMBAF4P39kWQxpFbBQXDOksGsgjRpCoJtQ3oB8+89oqOTwxuO9/G4sJQ5\nVRXWHNVcnvQYch4q7jmGddkol0BIHWRoDsv46dMe0miQE16Arqnnk5XpQV85Uk0R6QDpxHQSYM2C\n6bExJ84C1lqz69DCY95ozcXtpfXvTPryf8l/evUGx/o6Le8AAAA=\n'
p481
sg16
g119
sg18
I49
ssg204
(dp482
g15
S'H4sIAAP4l0YC/53OsQoCMRAE0H5+JGkMOU/hCn8gTQrTCnLJRRC8XIgbMH/vEu0FiymWeQwbUl1z\nU2ErUa31Qfe5lLnhWmLY0pNKDYQ8QIbukJZPn/eQRoOc8AJ0ziOfrMwI+sqFWo7IB0gnbpMAaxZM\nj505cRKw1prdgB4e80ZrLi4vrf/P9NPww169AaZN3yn4AAAA\n'
p483
sg16
g119
sg18
I48
ssg110
I0
sg207
I1
sg208
I0
sg209
I0
sg210
I1
sg121
I0
sg126
I0
sg211
I0
sg212
(dp484
g15
S'H4sIAAP4l0YC/7XOMQoCMRAF0P5fJGkMWVfBwguk2cK0gmyyEQQ3O8QJmNs7RK9g8YvhPz4Tc12p\nmbiVZNb65MdcytxwKylu+cWlRgYN0LE75OXb0x7aWbBXQYEvNMopyo3gn1y4UQIdoL26nxREixB6\n7Myrs8I0TW43oEfGgrNWiuvb2n9GHg7mAy0aBDD4AAAA\n'
p485
sg16
g119
sg18
I50
ssg215
I0
ssg16
g134
sg18
I46
sssS'p_source'
p486
(dp487
g2
(lp488
((g4
g5
tI-1
tp489
a((g7
g5
tI-1
tp490
a((g73
g74
tI-1
tp491
a((g76
g77
tI-1
tp492
a((g79
g80
tI-1
tp493
a((g82
g83
tI-1
tp494
a((g245
g246
tI-1
tp495
a((S'Axes'
p496
S'tvtk_classes.axes'
p497
tI-1
tp498
asg12
g496
sg13
(dp499
g15
Nsg16
g45
sg18
I8
ssg16
g19
sg18
I51
sg20
g497
sg15
(dp500
g15
(dp501
g198
(dp502
g15
S'H4sIAAP4l0YC/7XOMQoCMRAF0P5fJGkMWVfBwguk2cK0gmyyEQQ3O8QJmNs7RK9g8YvhPz4Tc12p\nmbiVZNb65MdcytxwKylu+cWlRgYN0LE75OXb0x7aWbBXQYEvNMopyo3gn1y4UQIdoL26nxREixB6\n7Myrs8I0TW43oEfGgrNWiuvb2n9GHg7mAy0aBDD4AAAA\n'
p503
sg16
g119
sg18
I53
ssS'scale_factor'
p504
F1
sg256
I1
sg124
I0
sg259
I1
sg110
I0
sS'symmetric'
p505
I1
sg121
I0
sg113
I0
sg126
I0
sg114
I0
sg130
I0
sg115
F0
sS'symmetric_'
p506
I1
ssg16
g134
sg18
I52
sssS'pick_type'
p507
S'point_picker'
p508
sg463
F0.025000000000000001
sS'pointpicker'
p509
(dp510
g2
(lp511
((g4
g5
tI-1
tp512
a((g7
g5
tI-1
tp513
a((g73
g74
tI-1
tp514
a((g76
g77
tI-1
tp515
a((g79
g80
tI-1
tp516
a((g395
g396
tI-1
tp517
a((g452
g453
tI-1
tp518
a((g357
g455
tI-1
tp519
a((S'PointPicker'
p520
S'tvtk_classes.point_picker'
p521
tI-1
tp522
asg12
g520
sg13
(dp523
g15
Nsg16
g45
sg18
I8
ssg16
g19
sg18
I54
sg20
g521
sg15
(dp524
g15
(dp525
g126
I0
sg405
I0
sg121
I0
sg404
I0
sg110
I0
sg463
F0.025000000000000001
ssg16
g134
sg18
I55
ssssg16
g134
sg18
I33
sssS'foreground'
p526
(dp527
g15
Nsg16
g45
sg18
I19
ssS'stereo'
p528
I00
sS'_renderer'
p529
(dp530
g2
(lp531
((g4
g5
tI-1
tp532
a((g7
g5
tI-1
tp533
a((g73
g74
tI-1
tp534
a((g76
g77
tI-1
tp535
a((g79
g80
tI-1
tp536
a((S'Viewport'
p537
S'tvtk_classes.viewport'
p538
tI-1
tp539
a((S'Renderer'
p540
S'tvtk_classes.renderer'
p541
tI-1
tp542
asg12
g540
sg13
(dp543
g15
Nsg16
g45
sg18
I8
ssg16
g19
sg18
I78
sg20
g541
sg15
(dp544
g15
(dp545
S'layer'
p546
I0
sS'pixel_aspect'
p547
(dp548
g15
S'H4sIAAP4l0YC/33OMQvCMBAF4P39kWQxpK2Cg+CcJYNZBWnSFASbhngB8+89qqM4vOF4H48LqS65\nqbCWqJb6oPtYythwKzGs6UmlBkLuIMPmkKZPn3tIo0FOeAG65IFPVqYHfeVELUfkPaQT81GANQum\nB2YDnDgJWGvNrsMWHvNGay6uL61/Z9bnvyW/4tUbw9sFJ9IAAAA=\n'
p549
sg16
g119
sg18
I80
ssS'two_sided_lighting_'
p550
I1
sS'view_point'
p551
(dp552
g15
S'H4sIAAP4l0YC/y3OPQuDMBAG4P3+SFxqEz+qQkHolsWhToWDEmMChaohjRDpn++hHTLc+z4XTs/r\n5LZUL96k0/oOL+W92uDpjV7mT/CrDuAEJHp3MI9H7zJIJIfQs4FBuLucRlIyh/CXY9icAVdA0jNb\nMyBNgmi5s55dGXRdJ08C9kefDZJzKjAagVFYjKr6Yqy5xqhFyx8YrcHYZATKM2UNxsEe4XihDeVv\nlFRUFy1dNaQ/a8BRTd0AAAA=\n'
p553
sg16
g119
sg18
I81
ssS'interactive_'
p554
I1
sS'erase'
p555
I1
sS'aspect'
p556
(dp557
g15
S'H4sIAAP4l0YC/23OvQrCMBQF4P28SLpY0taKg9A5SwezaUCapAWxPyHeQvr2Xqqjwxku5+Nw3bxO\nYcvdEvt8Wkd6djF2Gx6xd8v8prg6QiiQud1h9t8+lMiUBGlhBegaKj5ZqRL0k5620CMckWkxnAVY\ns2BaM6ugxUWgbVt1KLCHx6ySkov7y6TOm2Rrk/zpZtJgG5Ok/J9BNvyBzT9QFBUiyQAAAA==\n'
p558
sg16
g119
sg18
I82
ssg159
(dp559
g15
S'H4sIAAP4l0YC/53OMQvCMBAF4P39kWQxpFbBQXDOksGsgjRpCoJtQ3oB8+89oqOTwxuO9/G4sJQ5\nVRXWHNVcnvQYch4q7jmGddkol0BIHWRoDsv46dMe0miQE16Arqnnk5XpQV85Uk0R6QDpxHQSYM2C\n6bExJ84C1lqz69DCY95ozcXtpfXvTPryf8l/evUGx/o6Le8AAAA=\n'
p560
sg16
g119
sg18
I83
ssS'erase_'
p561
I1
sg110
I0
sS'near_clipping_plane_tolerance'
p562
F0.001
sS'world_point'
p563
(dp564
g15
S'H4sIAAP4l0YC/3WNPwuDMBDF9/sYLsmixL8oFOpWsjg03RooJkYoVA1phPjte9WuHd7du3s/7vS8\nTnZL9OJMMq0v/+yd6zd4OKOX+e3dqj3YFKjeOZiHI7cZUM7AC6II+KvNcUSKF+B/5OA3a8AWQAUZ\nawJII4FoiVgOgpwIdF3H4xR24THFGQMR0YsMaS2DyWSoe/SVDANrD9OUMmiNvbgh0eBQtd+Y3LGq\nWAamcDeiGPo/Gtk5wnfJB8nTBWr9AAAA\n'
p565
sg16
g119
sg18
I84
ssS'two_sided_lighting'
p566
I1
sS'allocated_render_time'
p567
F5000
sg121
I0
sS'background'
p568
(dp569
g15
Nsg16
g45
sg18
I56
ssS'viewport'
p570
(dp571
g15
S'H4sIAAP4l0YC/7XPMQvCMBAF4P39kWQxpLaCg+CcJYNZBWnSFASbhngB8+89qrObwxuO9/HgQqpL\nbiqsJaqlPug+ljI23EoMa3pSqYGQO8iwOaTp0+c9pNEgJ7wAXXLPJyszgL5yopYj8gDpxHwUYM2C\n6YFZDydOAtZas+uwhce80ZqL60vr/2TW558lv+LVG7bqK1ESAQAA\n'
p572
sg16
g119
sg18
I86
ssS'display_point'
p573
(dp574
g15
S'H4sIAAP4l0YC/23OPwvCMBAF8P19Crd0saR/1A6C4palg10D0qQpFGwb4hXSb+9R3XR4w937cZyd\nltGvqZ2DS8flSUMbQrviEZydpxeFxRJ8hsRuDlP36X2ORElQI4wA3X3BIytVgL6yo9U7+BJJI/pK\ngDULpoeNNeIsUNe12mfYwseMkpILHaX8Tcep8uu/cjfzundsjjpmbbjpaE46uvLCv5n0DUf8CEfj\nAAAA\n'
p575
sg16
g119
sg18
I85
ssS'automatic_light_creation_'
p576
I1
sS'backing_store_'
p577
I0
sg126
I0
sS'backing_store'
p578
I0
sS'light_follow_camera'
p579
I1
sS'automatic_light_creation'
p580
I1
sS'light_follow_camera_'
p581
I1
sS'interactive'
p582
I1
ssg16
g134
sg18
I79
sssS'anti_aliasing_frames'
p583
I8
sS'disable_render'
p584
I00
sS'parallel_projection'
p585
I00
sS'axes'
p586
(dp587
g2
(lp588
((g4
g5
tI-1
tp589
a((g7
g5
tI-1
tp590
a((g73
g74
tI-1
tp591
a((g76
g77
tI-1
tp592
a((g79
g80
tI-1
tp593
a((g187
g188
tI-1
tp594
a((g190
g191
tI-1
tp595
a((S'AxesActor'
p596
S'tvtk_classes.axes_actor'
p597
tI-1
tp598
asg12
g596
sg13
(dp599
g15
Nsg16
g45
sg18
I8
ssg16
g19
sg18
I59
sg20
g597
sg15
(dp600
g15
(dp601
g198
(dp602
g15
S'H4sIAAP4l0YC/7XOMQoCMRAF0P5fJGkMWVfBwguk2cK0gmyyEQQ3O8QJmNs7RK9g8YvhPz4Tc12p\nmbiVZNb65MdcytxwKylu+cWlRgYN0LE75OXb0x7aWbBXQYEvNMopyo3gn1y4UQIdoL26nxREixB6\n7Myrs8I0TW43oEfGgrNWiuvb2n9GHg7mAy0aBDD4AAAA\n'
p603
sg16
g119
sg18
I61
ssg204
(dp604
g15
S'H4sIAAP4l0YC/53OsQoCMRAE0H5+JGkMOU/hCn8gTQrTCnLJRRC8XIgbMH/vEu0FiymWeQwbUl1z\nU2ErUa31Qfe5lLnhWmLY0pNKDYQ8QIbukJZPn/eQRoOc8AJ0ziOfrMwI+sqFWo7IB0gnbpMAaxZM\nj505cRKw1prdgB4e80ZrLi4vrf/P9NPww169AaZN3yn4AAAA\n'
p605
sg16
g119
sg18
I62
ssS'normalized_tip_length'
p606
(dp607
g15
S'H4sIAAP4l0YC/53OMQvCMBAF4P39ketiaK2CBcE5SwazCpImFQTbHvEC9t97VDc3hzcc7+NxcSoj\nLybOeTBjecg95BwWXPMQ5+kpuUQBN6ji6jClT89bVLaGeOoJcuZWT1W2hXxlkoUH8A6Vp9uBoFqF\n0v3KPB0Jzjm7abBGx3pb11pcXl3QdL9J3en/Uv/szRs+d+FG7wAAAA==\n'
p608
sg16
g119
sg18
I63
ssg207
I1
sg209
I1
sS'sphere_resolution'
p609
I16
sg211
I1
sg126
I0
sg201
(dp610
g15
S'H4sIAAP4l0YC/53OMQvCMBAF4P39kWQxpFbBQXDOksGsgjRpCoJtQ3oB8+89oqOTwxuO9/G4sJQ5\nVRXWHNVcnvQYch4q7jmGddkol0BIHWRoDsv46dMe0miQE16Arqnnk5XpQV85Uk0R6QDpxHQSYM2C\n6bExJ84C1lqz69DCY95ozcXtpfXvTPryf8l/evUGx/o6Le8AAAA=\n'
p611
sg16
g119
sg18
I64
ssS'cylinder_radius'
p612
F0.050000000000000003
sS'cone_resolution'
p613
I16
sS'cylinder_resolution'
p614
I16
sS'axis_labels'
p615
I1
sS'total_length'
p616
(dp617
g15
S'H4sIAAP4l0YC/53OMQvCMBAF4P39kWQxpFbBQXDOksGsgjRpCoJtQ3oB8+89oqOTwxuO9/G4sJQ5\nVRXWHNVcnvQYch4q7jmGddkol0BIHWRoDsv46dMe0miQE16Arqnnk5XpQV85Uk0R6QDpxHQSYM2C\n6bExJ84C1lqz69DCY95ozcXtpfXvTPryf8l/evUGx/o6Le8AAAA=\n'
p618
sg16
g119
sg18
I65
ssg215
I1
sS'tip_type'
p619
S'cone'
p620
sS'x_axis_label_text'
p621
S'X'
sS'cone_radius'
p622
F0.40000000000000002
sS'z_axis_label_text'
p623
S'Z'
sg208
I1
sg210
I1
sg121
I0
sS'axis_labels_'
p624
I1
sS'y_axis_label_text'
p625
S'Y'
sS'shaft_type_'
p626
I0
sS'sphere_radius'
p627
F0.5
sS'normalized_shaft_length'
p628
(dp629
g15
S'H4sIAAP4l0YC/23NsQoCMQwG4P1/kXax9KyCg+DcpYNdBbn2KgjeXemlYN/eUB0NBBL+jyQudc5N\nxbUkNdcXPcdSxoZ7SXFdNio1EvIAGbvDMn3zvIe0GuRFEKBrNryysgb0kxO1nJAPkF48TgKsWTA9\ndubFWcA5Z3cDevOxYLXmwPS6vZO5/B/5Y1Afbh8AYbkAAAA=\n'
p630
sg16
g119
sg18
I66
ssS'shaft_type'
p631
S'cylinder'
p632
sS'normalized_label_position'
p633
(dp634
g15
S'H4sIAAP4l0YC/53OMQvCMBAF4P39kWQxpFbBQXDOksGsgjRpCoJtQ3oB8+89oqOTwxuO9/G4sJQ5\nVRXWHNVcnvQYch4q7jmGddkol0BIHWRoDsv46dMe0miQE16Arqnnk5XpQV85Uk0R6QDpxHQSYM2C\n6bExJ84C1lqz69DCY95ozcXtpfXvTPryf8l/evUGx/o6Le8AAAA=\n'
p635
sg16
g119
sg18
I67
ssg110
I0
sg212
(dp636
g15
S'H4sIAAP4l0YC/7XOMQoCMRAF0P5fJGkMWVfBwguk2cK0gmyyEQQ3O8QJmNs7RK9g8YvhPz4Tc12p\nmbiVZNb65MdcytxwKylu+cWlRgYN0LE75OXb0x7aWbBXQYEvNMopyo3gn1y4UQIdoL26nxREixB6\n7Myrs8I0TW43oEfGgrNWiuvb2n9GHg7mAy0aBDD4AAAA\n'
p637
sg16
g119
sg18
I68
sssg16
g134
sg18
I60
sssS'point_smoothing'
p638
I00
sS'line_smoothing'
p639
I00
sS'show_axes'
p640
I00
sS'magnification'
p641
I1
sS'camera'
p642
(dp643
g2
(lp644
((g4
g5
tI-1
tp645
a((g7
g5
tI-1
tp646
a((g73
g74
tI-1
tp647
a((g76
g77
tI-1
tp648
a((g79
g80
tI-1
tp649
a((S'Camera'
p650
S'tvtk_classes.camera'
p651
tI-1
tp652
a((S'OpenGLCamera'
p653
S'tvtk_classes.open_gl_camera'
p654
tI-1
tp655
asg12
g653
sg13
(dp656
g15
Nsg16
g45
sg18
I8
ssg16
g19
sg18
I69
sg20
g654
sg15
(dp657
g15
(dp658
S'distance'
p659
F73455.351570221566
sS'view_plane_normal'
p660
(dp661
g15
S'H4sIAAP4l0YC/y3OywqDMBAF0P38SNwo8dGqIAjdZeOirgoDxTyEQo0hjRD79Z3aLi5kcg/DKLst\nbs/U6k22bM/wmLyfdrh7o1b7Cn5TAVwOiTocWP3rXQGJ4BBGJhmEqytpJCVKCH+pw+4MuAqSkc0N\nA9IkiJ4ONrKOwTAMIs3hCC2TgnMqFoytTt8YTXHB2PBe0EfVYZRnjHlNDzPTQNEtNTXG2dy+BKMy\nFNnTSTL7ACTevXraAAAA\n'
p662
sg16
g119
sg18
I71
ssS'window_center'
p663
(dp664
g15
S'H4sIAAP4l0YC/6XOQQrCMBAF0P2/yGRjSFsFF14gmy7MVpAmjSDYNKQTMLd3qN7AxV8M//GZkOqS\nmw5riXqpL35OpUwN9xLDmjYuNTByBxV2hzR/+9xDWQN25Al8zYOcomwP/smZW47IRyhHjzNBtAih\nJ2EDHF0I4zjaQ4c9MuatMVLc3sb8E3nI6w+QLErH2AAAAA==\n'
p665
sg16
g119
sg18
I72
ssS'parallel_projection_'
p666
I0
sg212
(dp667
g15
S'H4sIAAP4l0YC/y3MPQvDIBAG4P1+RhazNGhMioUOgXZxyVBXoRg1tJAPsQbMv++Rdji4e9+Hs8s2\nh72ya/TVvE3pbWI0Ozyjt+vySXGzCQKD0h4OFvfrQw2lpJAUGQikR+B4opIc0l+6tAcPoYFSkVEQ\nQI0CaXswRa4E+r6XJwbH4LNBUgqquOs8tlxnL3Q250ZnK7pJZ1rf8MZMUIKlw5zqfDE6DwwLdI7X\nL9x8V+Cv6gvT3tl12gAAAA==\n'
p668
sg16
g119
sg18
I77
ssS'parallel_scale'
p669
F20784.609690826528
sS'thickness'
p670
F66632.581564898865
sS'view_up'
p671
(dp672
g15
S'H4sIAAP4l0YC/y3OTQvCMAwG4Hv+SHdxdG7iDoI3oSAT3E0L0k8Q3BZqBt2/N04Pb2ibJ6FunAdc\nSjelUA7zi54mJbPAIwU3jW9KsyPACgq3Ohj9r49bKJQE6oUVQFes+cpK1UB/6WnBANhA0YvYCmDN\nguluZb04COi6Tm0qWMPLrJLy29BZSjxx3d+Mzjbq3PqzzrHlhKPOLnAsH0zFLw0Tf7nzVIhH/owt\nP9lhbY/UAAAA\n'
p673
sg16
g119
sg18
I73
ssS'use_horizontal_view_angle'
p674
I0
sS'eye_angle'
p675
F2
sS'focal_disk'
p676
F1
sg121
I0
sS'clipping_range'
p677
(dp678
g15
S'H4sIAAP4l0YC/y3NPQvCQAwG4D1/5LpYrl9UxKHg4i0dLG4B6V2vINj2OFNIF3+7oTqEl/A+JG5e\np7Clbok+ndYXPfsY+w0e0btlflNcHUHIIHG7g3n49SGHxGigTlkFdAuFrKJMDvSXA23BQygh6dR4\nVCBahNBKWAGdOito29YcMthHjlmjtRSnyx3ZFh/kekT2VbMg9xrZZZL1FVmXyKNt5LFNv32SSd3A\nAAAA\n'
p679
sg16
g119
sg18
I76
ssg126
I0
sS'view_shear'
p680
(dp681
g15
S'H4sIAAP4l0YC/7XOsQoCMRAE0H5+JGkMOU/BQrBOk8K0glxyORC8XIgbMH/vEv0FiymWeQwbUl1z\nU2ErUa31SY+plKnhXmLY0otKDYQ8QIbukOZvn/eQRoOc8AJ0zSOfrMwI+smZWo7IB0gnlpMAaxZM\nj505cRaw1prdgB4e80ZrLm5vrf+TRV/4W68+7xE3gfUAAAA=\n'
p682
sg16
g119
sg18
I74
ssg110
I0
sS'view_angle'
p683
F30
sS'focal_point'
p684
(dp685
g15
S'H4sIAAP4l0YC/zWOMQvCMBCF9/sj6WJJrKUtODgIkqWDHVwOJLlWEG0bYgrpv/eMOjzu3nsfx9G0\njG7NafZDPi7PcDfemxWufqB5egW/UACnIKPEwdR/e7eFTEsInbACwtkVbJnSBYQf2YfVDeB2kHXi\nVgtgmglGy4R1Yi+gbVu9UZDEx6yWkovjCRGjKjHKmqfCSNUBY2954aC5YTTm8vjHhLHiiFKM0bJv\n5KdkSX7O5m/lNojj5AAAAA==\n'
p686
sg16
g119
sg18
I75
ssg585
I0
sS'use_horizontal_view_angle_'
p687
I0
ssg16
g134
sg18
I70
sssS'jpeg_quality'
p688
I95
sg568
(dp689
g15
(F0.10000000000000001
F0.20000000000000001
F0.40000000000000002
tp690
sg16
g17
sg18
I56
ssS'marker'
p691
(dp692
g2
(lp693
((g4
g5
tI-1
tp694
a((g7
g5
tI-1
tp695
a((g73
g74
tI-1
tp696
a((g76
g77
tI-1
tp697
a((g79
g80
tI-1
tp698
a((S'InteractorObserver'
p699
S'tvtk_classes.interactor_observer'
p700
tI-1
tp701
a((S'OrientationMarkerWidget'
p702
S'tvtk_classes.orientation_marker_widget'
p703
tI-1
tp704
asg12
g702
sg13
(dp705
g15
Nsg16
g45
sg18
I8
ssg16
g19
sg18
I57
sg20
g703
sg15
(dp706
g15
(dp707
S'key_press_activation_value'
p708
S'i'
sS'enabled'
p709
I0
sg126
I0
sg554
I1
sS'priority'
p710
F0.55000001192092896
sg121
I0
sS'key_press_activation_'
p711
I0
sS'enabled_'
p712
I0
sg110
I0
sS'key_press_activation'
p713
I0
sg582
I1
ssg16
g134
sg18
I58
sssS'off_screen_rendering'
p714
I00
sS'polygon_smoothing'
p715
I00
sS'light_manager'
p716
(dp717
g2
(lp718
((g4
g5
tI-1
tp719
a((S'LightManager'
p720
S'enthought.pyface.tvtk.light_manager'
p721
tI0
tp722
asg12
g720
sg13
(dp723
g15
Nsg16
g45
sg18
I1
ssg16
g19
sg18
I87
sg20
g721
sg15
(dp724
g15
(dp725
S'light_mode'
p726
S'raymond'
p727
sS'lights'
p728
(dp729
g15
(lp730
(dp731
g2
(lp732
((g4
g5
tI-1
tp733
a((S'CameraLight'
p734
g721
tI0
tp735
asg12
g734
sg13
(dp736
g15
Nsg16
g45
sg18
I1
ssg16
g19
sg18
I90
sg20
g721
sg15
(dp737
g15
(dp738
S'activate'
p739
I01
sS'elevation'
p740
F45
sS'color'
p741
(dp742
g15
Nsg16
g45
sg18
I19
ssS'source'
p743
(dp744
g2
(lp745
((g4
g5
tI-1
tp746
a((g7
g5
tI-1
tp747
a((g73
g74
tI-1
tp748
a((g76
g77
tI-1
tp749
a((g79
g80
tI-1
tp750
a((S'Light'
p751
S'tvtk_classes.light'
p752
tI-1
tp753
asg12
g751
sg13
(dp754
g15
Nsg16
g45
sg18
I8
ssg16
g19
sg18
I92
sg20
g752
sg15
(dp755
g15
(dp756
g166
(dp757
g15
Nsg16
g45
sg18
I19
ssS'attenuation_values'
p758
(dp759
g15
S'H4sIAAP4l0YC/43OMQvCMBAF4P39kWQxpFbBQXDOksGsgjRpCoJtQ7yA+fce0VHB4Q3H+3hcWMqc\nqgprjmoud7oNOQ8V1xzDujwol0BIHWRoDsv47tMW0miQE16Azqnnk5XpQR85Uk0RaQfpxHQQYM2C\n6b4xJ44C1lqz6dDCY95ozcXlqfX3TPr0u/wv/K1XLxMFpQX1AAAA\n'
p760
sg16
g119
sg18
I97
ssS'switch_'
p761
I1
sS'exponent'
p762
F1
sS'switch'
p763
I1
sg152
(dp764
g15
Nsg16
g45
sg18
I19
ssg168
(dp765
g15
(F0
F0
F0
tp766
sg16
g17
sg18
I94
ssg126
I0
sS'light_type_'
p767
I2
sS'positional'
p768
I0
sg121
I0
sS'intensity'
p769
F1
sS'light_type'
p770
S'camera_light'
p771
sg110
I0
sg212
(dp772
g15
S'H4sIAAP4l0YC/23OuwrDMAwF0F0/4iwNStMnLWT2kqFeDSXxAwp5GFcB+++rpt3a4Q7SPQiZaRlD\nLs0cXTkuAz26GLsM9+jMPD0pLoYgVFCY1cFkP33YQiERSIleAN1CzSMrWQN9paUcHIQdFEr4kwDW\nLJjuV6bEVUDbtnJTwRo+1ktELnTyjuN/Y32jk7EXnY7v8cysQ53cgdeI/+Ow4Q/78gVJEEmE6QAA\nAA==\n'
p773
sg16
g119
sg18
I95
ssS'positional_'
p774
I0
sS'cone_angle'
p775
F30
sg684
(dp776
g15
S'H4sIAAP4l0YC/7XOMQoCMRAF0P5fJGkMWVfBwguk2cK0gmyyEQQ3O8QJmNs7RK9g8YvhPz4Tc12p\nmbiVZNb65MdcytxwKylu+cWlRgYN0LE75OXb0x7aWbBXQYEvNMopyo3gn1y4UQIdoL26nxREixB6\n7Myrs8I0TW43oEfGgrNWiuvb2n9GHg7mAy0aBDD4AAAA\n'
p777
sg16
g119
sg18
I96
sssg16
g134
sg18
I93
sssg769
F1
sS'azimuth'
p778
F45
sS'glyph'
p779
(dp780
g2
(lp781
((g4
g5
tI-1
tp782
a((S'LightGlyph'
p783
g721
tI0
tp784
asg12
g783
sg13
(dp785
g15
Nsg16
g45
sg18
I1
ssg16
g19
sg18
I98
sg20
g721
sg15
(dp786
g15
(dp787
S'el'
p788
F45
sS'az'
p789
F45
sg51
(dp790
g2
(lp791
((g4
g5
tI-1
tp792
a((g7
g5
tI-1
tp793
a((g73
g74
tI-1
tp794
a((g76
g77
tI-1
tp795
a((g79
g80
tI-1
tp796
a((g187
g188
tI-1
tp797
a((g190
g191
tI-1
tp798
a((g62
g193
tI-1
tp799
a((S'Follower'
p800
S'tvtk_classes.follower'
p801
tI-1
tp802
asg12
g800
sg13
(dp803
g15
Nsg16
g45
sg18
I8
ssg16
g19
sg18
I100
sg20
g801
sg15
(dp804
g15
(dp805
g198
(dp806
g15
S'H4sIAAP4l0YC/7XOMQoCMRAF0P5fJGkMWVfBwguk2cK0gmyyEQQ3O8QJmNs7RK9g8YvhPz4Tc12p\nmbiVZNb65MdcytxwKylu+cWlRgYN0LE75OXb0x7aWbBXQYEvNMopyo3gn1y4UQIdoL26nxREixB6\n7Myrs8I0TW43oEfGgrNWiuvb2n9GHg7mAy0aBDD4AAAA\n'
p807
sg16
g119
sg18
I102
ssg201
(dp808
g15
S'H4sIAAP4l0YC/53OMQvCMBAF4P39kWQxpFbBQXDOksGsgjRpCoJtQ3oB8+89oqOTwxuO9/G4sJQ5\nVRXWHNVcnvQYch4q7jmGddkol0BIHWRoDsv46dMe0miQE16Arqnnk5XpQV85Uk0R6QDpxHQSYM2C\n6bExJ84C1lqz69DCY95ozcXtpfXvTPryf8l/evUGx/o6Le8AAAA=\n'
p809
sg16
g119
sg18
I104
ssg204
(dp810
g15
S'H4sIAAP4l0YC/12OwQqCQBRF9/dHZjbJmIkFEbYcAhe5HSodjYrUYXrC2Nf3sFYtDtzLPTye7cfO\nTZEdfBt145PulffVhLNv7dC/yI+W4GJIO3vom+/ulpBagUpRC9DRJVzZ0gnoZzY0uRZuBVmK61qA\nbTZYTWetFFuBoij0IsYMH6u1UjyYoBJG/bPLTag4bVIme8vTIb88biasuTcZb/HeBKv4nzr6AK9z\noUrXAAAA\n'
p811
sg16
g119
sg18
I103
ssg110
I0
sg207
I1
sg208
I1
sg209
I1
sg210
I1
sg121
I0
sg126
I0
sg211
I1
sg212
(dp812
g15
S'H4sIAAP4l0YC/7XOMQoCMRAF0P5fJGkMWVfBwguk2cK0gmyyEQQ3O8QJmNs7RK9g8YvhPz4Tc12p\nmbiVZNb65MdcytxwKylu+cWlRgYN0LE75OXb0x7aWbBXQYEvNMopyo3gn1y4UQIdoL26nxREixB6\n7Myrs8I0TW43oEfGgrNWiuvb2n9GHg7mAy0aBDD4AAAA\n'
p813
sg16
g119
sg18
I105
ssg215
I1
ssg16
g134
sg18
I101
ssssg16
g134
sg18
I99
ssssg16
g134
sg18
I91
ssa(dp814
g2
(lp815
((g4
g5
tI-1
tp816
a((g734
g721
tI0
tp817
asg12
g734
sg13
(dp818
g15
Nsg16
g45
sg18
I1
ssg16
g19
sg18
I106
sg20
g721
sg15
(dp819
g15
(dp820
g739
I01
sg740
F-30
sg741
(dp821
g15
Nsg16
g45
sg18
I19
ssg743
(dp822
g2
(lp823
((g4
g5
tI-1
tp824
a((g7
g5
tI-1
tp825
a((g73
g74
tI-1
tp826
a((g76
g77
tI-1
tp827
a((g79
g80
tI-1
tp828
a((g751
g752
tI-1
tp829
asg12
g751
sg13
(dp830
g15
Nsg16
g45
sg18
I8
ssg16
g19
sg18
I108
sg20
g752
sg15
(dp831
g15
(dp832
g166
(dp833
g15
Nsg16
g45
sg18
I19
ssg758
(dp834
g15
S'H4sIAAP4l0YC/43OMQvCMBAF4P39kWQxpFbBQXDOksGsgjRpCoJtQ7yA+fce0VHB4Q3H+3hcWMqc\nqgprjmoud7oNOQ8V1xzDujwol0BIHWRoDsv47tMW0miQE16Azqnnk5XpQR85Uk0RaQfpxHQQYM2C\n6b4xJ44C1lqz6dDCY95ozcXlqfX3TPr0u/wv/K1XLxMFpQX1AAAA\n'
p835
sg16
g119
sg18
I112
ssg761
I1
sg762
F1
sg763
I1
sg152
(dp836
g15
Nsg16
g45
sg18
I19
ssg168
(dp837
g15
Nsg16
g45
sg18
I94
ssg126
I0
sg767
I2
sg768
I0
sg121
I0
sg769
F0.59999999999999998
sg770
g771
sg110
I0
sg212
(dp838
g15
S'H4sIAAP4l0YC/23OvQrCQBAE4H5e5NIYLkYlhWB9IClMYxGQ3B8I5nKcG0h8etfETospdudjWRPG\nPs65GZLL+/FB9y6lbsYtOTOEJ6XREGKBzCwOwa593CJTEtQILUCXWPLISpWgr7Q0R4e4Q9YIXwmw\nZsF0v7BGHAXqulabAkv4mFZSctFOUv6Pq9pJ+3byhuN/Y/3ad/Z8/egXjwde6xM/qfM3a8mLhewA\nAAA=\n'
p839
sg16
g119
sg18
I110
ssg774
I0
sg775
F30
sg684
(dp840
g15
S'H4sIAAP4l0YC/7XOMQoCMRAF0P5fJGkMWVfBwguk2cK0gmyyEQQ3O8QJmNs7RK9g8YvhPz4Tc12p\nmbiVZNb65MdcytxwKylu+cWlRgYN0LE75OXb0x7aWbBXQYEvNMopyo3gn1y4UQIdoL26nxREixB6\n7Myrs8I0TW43oEfGgrNWiuvb2n9GHg7mAy0aBDD4AAAA\n'
p841
sg16
g119
sg18
I111
sssg16
g134
sg18
I109
sssg769
F0.59999999999999998
sg778
F-60
sg779
(dp842
g2
(lp843
((g4
g5
tI-1
tp844
a((g783
g721
tI0
tp845
asg12
g783
sg13
(dp846
g15
Nsg16
g45
sg18
I1
ssg16
g19
sg18
I113
sg20
g721
sg15
(dp847
g15
(dp848
g788
F-30
sg789
F-60
sg51
(dp849
g2
(lp850
((g4
g5
tI-1
tp851
a((g7
g5
tI-1
tp852
a((g73
g74
tI-1
tp853
a((g76
g77
tI-1
tp854
a((g79
g80
tI-1
tp855
a((g187
g188
tI-1
tp856
a((g190
g191
tI-1
tp857
a((g62
g193
tI-1
tp858
a((g800
g801
tI-1
tp859
asg12
g800
sg13
(dp860
g15
Nsg16
g45
sg18
I8
ssg16
g19
sg18
I115
sg20
g801
sg15
(dp861
g15
(dp862
g198
(dp863
g15
S'H4sIAAP4l0YC/7XOMQoCMRAF0P5fJGkMWVfBwguk2cK0gmyyEQQ3O8QJmNs7RK9g8YvhPz4Tc12p\nmbiVZNb65MdcytxwKylu+cWlRgYN0LE75OXb0x7aWbBXQYEvNMopyo3gn1y4UQIdoL26nxREixB6\n7Myrs8I0TW43oEfGgrNWiuvb2n9GHg7mAy0aBDD4AAAA\n'
p864
sg16
g119
sg18
I117
ssg201
(dp865
g15
S'H4sIAAP4l0YC/53OMQvCMBAF4P39kWQxpFbBQXDOksGsgjRpCoJtQ3oB8+89oqOTwxuO9/G4sJQ5\nVRXWHNVcnvQYch4q7jmGddkol0BIHWRoDsv46dMe0miQE16Arqnnk5XpQV85Uk0R6QDpxHQSYM2C\n6bExJ84C1lqz69DCY95ozcXtpfXvTPryf8l/evUGx/o6Le8AAAA=\n'
p866
sg16
g119
sg18
I119
ssg204
(dp867
g15
S'H4sIAAP4l0YC/y2OQQ6CMBBF93ORskDSCogaL9ANJrJtQtoBjIlAU0tSjId3LC5mkv/fy2RwWka7\nZji7PhuXp39o5/QKretxnl7eLejBCkgwejB1G7d7SCQH3zDDwN9sTpEsmYP/m51fbQ+2gKRhw5EB\n2WSQWkatYRcGdV3LnYA4dMxIzgm0KvAyfX9UGIpUBeQqiI6CSO8qaFTBVNetxnxD+iBoVSqc+PlH\n6CWTfQGCo1dj2gAAAA==\n'
p868
sg16
g119
sg18
I118
ssg110
I0
sg207
I1
sg208
I1
sg209
I1
sg210
I1
sg121
I0
sg126
I0
sg211
I1
sg212
(dp869
g15
S'H4sIAAP4l0YC/7XOMQoCMRAF0P5fJGkMWVfBwguk2cK0gmyyEQQ3O8QJmNs7RK9g8YvhPz4Tc12p\nmbiVZNb65MdcytxwKylu+cWlRgYN0LE75OXb0x7aWbBXQYEvNMopyo3gn1y4UQIdoL26nxREixB6\n7Myrs8I0TW43oEfGgrNWiuvb2n9GHg7mAy0aBDD4AAAA\n'
p870
sg16
g119
sg18
I120
ssg215
I1
ssg16
g134
sg18
I116
ssssg16
g134
sg18
I114
ssssg16
g134
sg18
I107
ssa(dp871
g2
(lp872
((g4
g5
tI-1
tp873
a((g734
g721
tI0
tp874
asg12
g734
sg13
(dp875
g15
Nsg16
g45
sg18
I1
ssg16
g19
sg18
I121
sg20
g721
sg15
(dp876
g15
(dp877
g739
I01
sg740
F-30
sg741
(dp878
g15
Nsg16
g45
sg18
I19
ssg743
(dp879
g2
(lp880
((g4
g5
tI-1
tp881
a((g7
g5
tI-1
tp882
a((g73
g74
tI-1
tp883
a((g76
g77
tI-1
tp884
a((g79
g80
tI-1
tp885
a((g751
g752
tI-1
tp886
asg12
g751
sg13
(dp887
g15
Nsg16
g45
sg18
I8
ssg16
g19
sg18
I123
sg20
g752
sg15
(dp888
g15
(dp889
g166
(dp890
g15
Nsg16
g45
sg18
I19
ssg758
(dp891
g15
S'H4sIAAP4l0YC/43OMQvCMBAF4P39kWQxpFbBQXDOksGsgjRpCoJtQ7yA+fce0VHB4Q3H+3hcWMqc\nqgprjmoud7oNOQ8V1xzDujwol0BIHWRoDsv47tMW0miQE16Azqnnk5XpQR85Uk0RaQfpxHQQYM2C\n6b4xJ44C1lqz6dDCY95ozcXlqfX3TPr0u/wv/K1XLxMFpQX1AAAA\n'
p892
sg16
g119
sg18
I127
ssg761
I1
sg762
F1
sg763
I1
sg152
(dp893
g15
Nsg16
g45
sg18
I19
ssg168
(dp894
g15
Nsg16
g45
sg18
I94
ssg126
I0
sg767
I2
sg768
I0
sg121
I0
sg769
F0.5
sg770
g771
sg110
I0
sg212
(dp895
g15
S'H4sIAAP4l0YC/23OPwvCMBCH4f33RdLFklqVDkLngHSwi0NBmj8FwbYhXqHx03tGNx3e4XIPR8y0\njD7mZg4uH5c73foQ+ohrcGaeHhQWQ/AFMpMcJvvZ+y0yJUGt0AJ09iWPrFQJ+kpL0Tv4HbJWDJUA\naxZM94m14ijQNI3aFEjxMa2k5EW3Svk/V9XdOhhu+M1ymuvt6fKmTx4P/Kxr/qHOX6ES/LrpAAAA\n'
p896
sg16
g119
sg18
I125
ssg774
I0
sg775
F30
sg684
(dp897
g15
S'H4sIAAP4l0YC/7XOMQoCMRAF0P5fJGkMWVfBwguk2cK0gmyyEQQ3O8QJmNs7RK9g8YvhPz4Tc12p\nmbiVZNb65MdcytxwKylu+cWlRgYN0LE75OXb0x7aWbBXQYEvNMopyo3gn1y4UQIdoL26nxREixB6\n7Myrs8I0TW43oEfGgrNWiuvb2n9GHg7mAy0aBDD4AAAA\n'
p898
sg16
g119
sg18
I126
sssg16
g134
sg18
I124
sssg769
F0.5
sg778
F60
sg779
(dp899
g2
(lp900
((g4
g5
tI-1
tp901
a((g783
g721
tI0
tp902
asg12
g783
sg13
(dp903
g15
Nsg16
g45
sg18
I1
ssg16
g19
sg18
I128
sg20
g721
sg15
(dp904
g15
(dp905
g788
F-30
sg789
F60
sg51
(dp906
g2
(lp907
((g4
g5
tI-1
tp908
a((g7
g5
tI-1
tp909
a((g73
g74
tI-1
tp910
a((g76
g77
tI-1
tp911
a((g79
g80
tI-1
tp912
a((g187
g188
tI-1
tp913
a((g190
g191
tI-1
tp914
a((g62
g193
tI-1
tp915
a((g800
g801
tI-1
tp916
asg12
g800
sg13
(dp917
g15
Nsg16
g45
sg18
I8
ssg16
g19
sg18
I130
sg20
g801
sg15
(dp918
g15
(dp919
g198
(dp920
g15
S'H4sIAAP4l0YC/7XOMQoCMRAF0P5fJGkMWVfBwguk2cK0gmyyEQQ3O8QJmNs7RK9g8YvhPz4Tc12p\nmbiVZNb65MdcytxwKylu+cWlRgYN0LE75OXb0x7aWbBXQYEvNMopyo3gn1y4UQIdoL26nxREixB6\n7Myrs8I0TW43oEfGgrNWiuvb2n9GHg7mAy0aBDD4AAAA\n'
p921
sg16
g119
sg18
I132
ssg201
(dp922
g15
S'H4sIAAP4l0YC/53OMQvCMBAF4P39kWQxpFbBQXDOksGsgjRpCoJtQ3oB8+89oqOTwxuO9/G4sJQ5\nVRXWHNVcnvQYch4q7jmGddkol0BIHWRoDsv46dMe0miQE16Arqnnk5XpQV85Uk0R6QDpxHQSYM2C\n6bExJ84C1lqz69DCY95ozcXtpfXvTPryf8l/evUGx/o6Le8AAAA=\n'
p923
sg16
g119
sg18
I134
ssg204
(dp924
g15
S'H4sIAAP4l0YC/y3OTQuDMAwG4Hv+SD04aafObezgtRcH81qQtn4wmFq6CnHsxy/oDgkk70OInZbR\nrYmdfZeMyys8tfd6hcZ3dp7ewS82gBMQ2c3B1O65O0IkOYSaGQbh4VIaSckUwl+2YXUduAyimvVn\nBqRJEM03VrMbg6qq5EHAVnTMSM4paBTyPP58FfZZrNByhaKlQcSDQm0VmuJe0j7d9/okqBUKL/xa\n0jMm+QGDRrI11AAAAA==\n'
p925
sg16
g119
sg18
I133
ssg110
I0
sg207
I1
sg208
I1
sg209
I1
sg210
I1
sg121
I0
sg126
I0
sg211
I1
sg212
(dp926
g15
S'H4sIAAP4l0YC/7XOMQoCMRAF0P5fJGkMWVfBwguk2cK0gmyyEQQ3O8QJmNs7RK9g8YvhPz4Tc12p\nmbiVZNb65MdcytxwKylu+cWlRgYN0LE75OXb0x7aWbBXQYEvNMopyo3gn1y4UQIdoL26nxREixB6\n7Myrs8I0TW43oEfGgrNWiuvb2n9GHg7mAy0aBDD4AAAA\n'
p927
sg16
g119
sg18
I135
ssg215
I1
ssg16
g134
sg18
I131
ssssg16
g134
sg18
I129
ssssg16
g134
sg18
I122
ssa(dp928
g2
(lp929
((g4
g5
tI-1
tp930
a((g734
g721
tI0
tp931
asg12
g734
sg13
(dp932
g15
Nsg16
g45
sg18
I1
ssg16
g19
sg18
I136
sg20
g721
sg15
(dp933
g15
(dp934
g739
I00
sg740
F0
sg741
(dp935
g15
Nsg16
g45
sg18
I19
ssg743
(dp936
g2
(lp937
((g4
g5
tI-1
tp938
a((g7
g5
tI-1
tp939
a((g73
g74
tI-1
tp940
a((g76
g77
tI-1
tp941
a((g79
g80
tI-1
tp942
a((g751
g752
tI-1
tp943
asg12
g751
sg13
(dp944
g15
Nsg16
g45
sg18
I8
ssg16
g19
sg18
I138
sg20
g752
sg15
(dp945
g15
(dp946
g166
(dp947
g15
Nsg16
g45
sg18
I19
ssg758
(dp948
g15
S'H4sIAAP4l0YC/43OMQvCMBAF4P39kWQxpFbBQXDOksGsgjRpCoJtQ7yA+fce0VHB4Q3H+3hcWMqc\nqgprjmoud7oNOQ8V1xzDujwol0BIHWRoDsv47tMW0miQE16Azqnnk5XpQR85Uk0RaQfpxHQQYM2C\n6b4xJ44C1lqz6dDCY95ozcXlqfX3TPr0u/wv/K1XLxMFpQX1AAAA\n'
p949
sg16
g119
sg18
I142
ssg761
I0
sg762
F1
sg763
I0
sg152
(dp950
g15
Nsg16
g45
sg18
I19
ssg168
(dp951
g15
Nsg16
g45
sg18
I94
ssg126
I0
sg767
I2
sg768
I0
sg121
I0
sg769
F1
sg770
g771
sg110
I0
sg212
(dp952
g15
S'H4sIAAP4l0YC/7XOsQoCMRAE0H5+JGkMOU/BQrBOk8K0glxyORC8XIgbMH/vEv0FiymWeQwbUl1z\nU2ErUa31SY+plKnhXmLY0otKDYQ8QIbukOZvn/eQRoOc8AJ0zSOfrMwI+smZWo7IB0gnlpMAaxZM\nj505cRaw1prdgB4e80ZrLm5vrf+TRV/4W68+7xE3gfUAAAA=\n'
p953
sg16
g119
sg18
I140
ssg774
I0
sg775
F30
sg684
(dp954
g15
S'H4sIAAP4l0YC/7XOMQoCMRAF0P5fJGkMWVfBwguk2cK0gmyyEQQ3O8QJmNs7RK9g8YvhPz4Tc12p\nmbiVZNb65MdcytxwKylu+cWlRgYN0LE75OXb0x7aWbBXQYEvNMopyo3gn1y4UQIdoL26nxREixB6\n7Myrs8I0TW43oEfGgrNWiuvb2n9GHg7mAy0aBDD4AAAA\n'
p955
sg16
g119
sg18
I141
sssg16
g134
sg18
I139
sssg769
F1
sg778
F0
sg779
(dp956
g2
(lp957
((g4
g5
tI-1
tp958
a((g783
g721
tI0
tp959
asg12
g783
sg13
(dp960
g15
Nsg16
g45
sg18
I1
ssg16
g19
sg18
I143
sg20
g721
sg15
(dp961
g15
(dp962
g788
F0
sg789
F0
sg51
(dp963
g2
(lp964
((g4
g5
tI-1
tp965
a((g7
g5
tI-1
tp966
a((g73
g74
tI-1
tp967
a((g76
g77
tI-1
tp968
a((g79
g80
tI-1
tp969
a((g187
g188
tI-1
tp970
a((g190
g191
tI-1
tp971
a((g62
g193
tI-1
tp972
a((g800
g801
tI-1
tp973
asg12
g800
sg13
(dp974
g15
Nsg16
g45
sg18
I8
ssg16
g19
sg18
I145
sg20
g801
sg15
(dp975
g15
(dp976
g198
(dp977
g15
S'H4sIAAP4l0YC/7XOMQoCMRAF0P5fJGkMWVfBwguk2cK0gmyyEQQ3O8QJmNs7RK9g8YvhPz4Tc12p\nmbiVZNb65MdcytxwKylu+cWlRgYN0LE75OXb0x7aWbBXQYEvNMopyo3gn1y4UQIdoL26nxREixB6\n7Myrs8I0TW43oEfGgrNWiuvb2n9GHg7mAy0aBDD4AAAA\n'
p978
sg16
g119
sg18
I147
ssg201
(dp979
g15
S'H4sIAAP4l0YC/53OMQvCMBAF4P39kWQxpFbBQXDOksGsgjRpCoJtQ3oB8+89oqOTwxuO9/G4sJQ5\nVRXWHNVcnvQYch4q7jmGddkol0BIHWRoDsv46dMe0miQE16Arqnnk5XpQV85Uk0R6QDpxHQSYM2C\n6bExJ84C1lqz69DCY95ozcXtpfXvTPryf8l/evUGx/o6Le8AAAA=\n'
p980
sg16
g119
sg18
I149
ssg204
(dp981
g15
S'H4sIAAP4l0YC/53OsQoCMRAE0H5+JGkMOU/hCn8gTQrTCnLJRRC8XIgbMH/vEu0FiymWeQwbUl1z\nU2ErUa31Qfe5lLnhWmLY0pNKDYQ8QIbukJZPn/eQRoOc8AJ0ziOfrMwI+sqFWo7IB0gnbpMAaxZM\nj505cRKw1prdgB4e80ZrLi4vrf/P9NPww169AaZN3yn4AAAA\n'
p982
sg16
g119
sg18
I148
ssg110
I0
sg207
I1
sg208
I0
sg209
I1
sg210
I1
sg121
I0
sg126
I0
sg211
I0
sg212
(dp983
g15
S'H4sIAAP4l0YC/7XOMQoCMRAF0P5fJGkMWVfBwguk2cK0gmyyEQQ3O8QJmNs7RK9g8YvhPz4Tc12p\nmbiVZNb65MdcytxwKylu+cWlRgYN0LE75OXb0x7aWbBXQYEvNMopyo3gn1y4UQIdoL26nxREixB6\n7Myrs8I0TW43oEfGgrNWiuvb2n9GHg7mAy0aBDD4AAAA\n'
p984
sg16
g119
sg18
I150
ssg215
I1
ssg16
g134
sg18
I146
ssssg16
g134
sg18
I144
ssssg16
g134
sg18
I137
ssasg16
g267
sg18
I89
ssS'number_of_lights'
p985
I4
ssg16
g134
sg18
I88
sssS'jpeg_progressive'
p986
I01
sS'_def_pos'
p987
I1
ssg16
g134
sg18
I31
sssS'children'
p988
(dp989
g15
(lp990
(dp991
g2
(lp992
((g4
g5
tI-1
tp993
a((g27
g5
tI-1
tp994
a((g29
g30
tI-1
tp995
a((g32
g33
tI0
tp996
a((g35
g36
tI0
tp997
a((S'Source'
p998
S'enthought.mayavi.core.source'
p999
tI0
tp1000
a((S'FileDataSource'
p1001
S'enthought.mayavi.core.file_data_source'
p1002
tI0
tp1003
a((S'VTKFileReader'
p1004
S'enthought.mayavi.sources.vtk_file_reader'
p1005
tI0
tp1006
asg12
g1004
sg13
(dp1007
g15
Nsg16
g45
sg18
I1
ssg16
g19
sg18
I152
sg20
g1005
sg15
(dp1008
g15
(dp1009
g50
S''
sS'file_path'
p1010
(dp1011
g2
(lp1012
((S'FilePath'
p1013
S'enthought.persistence.file_path'
p1014
tI-1
tp1015
asg12
g1013
sg13
(dp1016
g15
Nsg16
g45
sg18
I1
ssg16
g19
sg18
I397
sg20
g1014
sg15
(dp1017
g15
(dp1018
S'rel_pth'
p1019
S'rsng-p0500-g0500.disp-000.vtk'
p1020
sS'abs_pth'
p1021
S'/home/laa/benchmarks/rsng-p0500-g0500.disp-000.vtk'
p1022
ssg16
g134
sg18
I398
sssg48
S''
sS'_timestep'
p1023
I0
sS'reader'
p1024
(dp1025
g2
(lp1026
((g4
g5
tI-1
tp1027
a((g7
g5
tI-1
tp1028
a((g73
g74
tI-1
tp1029
a((g76
g77
tI-1
tp1030
a((g79
g80
tI-1
tp1031
a((g82
g83
tI-1
tp1032
a((S'DataReader'
p1033
S'tvtk_classes.data_reader'
p1034
tI-1
tp1035
a((S'DataSetReader'
p1036
S'tvtk_classes.data_set_reader'
p1037
tI-1
tp1038
asg12
g1036
sg13
(dp1039
g15
Nsg16
g45
sg18
I8
ssg16
g19
sg18
I395
sg20
g1037
sg15
(dp1040
g15
(dp1041
S'read_all_tensors_'
p1042
I0
sS'file_name'
p1043
S'/home/laa/benchmarks/rsng-p0500-g0500.disp-000.vtk'
p1044
sS'read_all_vectors_'
p1045
I0
sS'read_all_vectors'
p1046
I0
sg126
I0
sS'read_all_color_scalars_'
p1047
I0
sS'read_all_t_coords'
p1048
I0
sS'read_from_input_string'
p1049
I0
sS'read_all_normals'
p1050
I0
sg113
I0
sS'read_all_scalars_'
p1051
I0
sg114
I0
sg115
F1
sg121
I0
sS'read_all_fields_'
p1052
I0
sg110
I0
sS'read_all_color_scalars'
p1053
I0
sS'read_all_fields'
p1054
I0
sS'read_from_input_string_'
p1055
I0
sS'read_all_tensors'
p1056
I0
sg124
I0
sS'read_all_normals_'
p1057
I0
sS'read_all_scalars'
p1058
I0
sS'read_all_t_coords_'
p1059
I0
sg130
I0
ssg16
g134
sg18
I396
sssS'_min_timestep'
p1060
I0
sg988
(dp1061
g15
(lp1062
(dp1063
g2
(lp1064
((g4
g5
tI-1
tp1065
a((g27
g5
tI-1
tp1066
a((g29
g30
tI-1
tp1067
a((g32
g33
tI0
tp1068
a((S'ModuleManager'
p1069
S'enthought.mayavi.core.module_manager'
p1070
tI0
tp1071
asg12
g1069
sg13
(dp1072
g15
Nsg16
g45
sg18
I1
ssg16
g19
sg18
I155
sg20
g1070
sg15
(dp1073
g15
(dp1074
g50
S''
sS'lut_data_mode'
p1075
S'auto'
p1076
sg988
(dp1077
g15
(lp1078
(dp1079
g2
(lp1080
((g4
g5
tI-1
tp1081
a((g27
g5
tI-1
tp1082
a((g29
g30
tI-1
tp1083
a((g32
g33
tI0
tp1084
a((g35
g36
tI0
tp1085
a((g38
g39
tI0
tp1086
a((S'Outline'
p1087
S'enthought.mayavi.modules.outline'
p1088
tI0
tp1089
asg12
g1087
sg13
(dp1090
g15
Nsg16
g45
sg18
I1
ssg16
g19
sg18
I158
sg20
g1088
sg15
(dp1091
g15
(dp1092
S'outline_filter'
p1093
(dp1094
g2
(lp1095
((g4
g5
tI-1
tp1096
a((g7
g5
tI-1
tp1097
a((g73
g74
tI-1
tp1098
a((g76
g77
tI-1
tp1099
a((g79
g80
tI-1
tp1100
a((g82
g83
tI-1
tp1101
a((g245
g246
tI-1
tp1102
a((S'OutlineFilter'
p1103
S'tvtk_classes.outline_filter'
p1104
tI-1
tp1105
asg12
g1103
sg13
(dp1106
g15
Nsg16
g45
sg18
I8
ssg16
g19
sg18
I173
sg20
g1104
sg15
(dp1107
g15
(dp1108
g124
I0
sg130
I0
sg126
I0
sg121
I0
sg113
I0
sg114
I0
sg110
I0
sg115
F1
ssg16
g134
sg18
I174
sssg48
S''
sg50
S''
sg51
(dp1109
g2
(lp1110
((g4
g5
tI-1
tp1111
a((g27
g5
tI-1
tp1112
a((g29
g30
tI-1
tp1113
a((g32
g33
tI0
tp1114
a((g35
g36
tI0
tp1115
a((g59
g60
tI0
tp1116
a((g62
g63
tI0
tp1117
asg12
g62
sg13
(dp1118
g15
Nsg16
g45
sg18
I1
ssg16
g19
sg18
I160
sg20
g63
sg15
(dp1119
g15
(dp1120
g68
(dp1121
g2
(lp1122
((g4
g5
tI-1
tp1123
a((g7
g5
tI-1
tp1124
a((g73
g74
tI-1
tp1125
a((g76
g77
tI-1
tp1126
a((g79
g80
tI-1
tp1127
a((g82
g83
tI-1
tp1128
a((g85
g86
tI-1
tp1129
a((g88
g89
tI-1
tp1130
a((g91
g92
tI-1
tp1131
a((g375
g376
tI-1
tp1132
asg12
g375
sg13
(dp1133
g15
Nsg16
g45
sg18
I8
ssg16
g19
sg18
I162
sg20
g376
sg15
(dp1134
g15
(dp1135
g101
I0
sg102
I0
sg103
g104
sg105
I0
sg126
I0
sg107
F0.01
sg381
I0
sg108
g104
sg109
I0
sg110
I0
sg111
I0
sg112
I1
sg113
I0
sg114
I0
sg115
F1
sg116
(dp1136
g15
S'H4sIAAP4l0YC/53OsQrCMBQF0P3+SLIY0lbBQXDOksGsgjRpCoJNQ/oC5u99VL/A4Q6Pe7i8kOqS\nmwpriWqpL3qOpYwNjxLDmjYqNRByBxl2hzR9+9xDGg1ywgvQLQ98sjI96CcnajkiHyGdmM8CrFkw\nPTEb4MRFwFprDh328Jg3WnNxf2v9X2Z95W+8+gDYoI1C1QAAAA==\n'
p1137
sg16
g119
sg18
I164
ssg120
I1
sg121
I0
sg122
I0
sg123
I1
sg124
I0
sg125
I1
sg106
I0
sg131
I0
sg127
I0
sg384
I1
sg132
g104
sg130
I0
sg385
I0
sg386
I1
sg128
g129
sg133
F0
ssg16
g134
sg18
I163
sssg48
S''
sg135
(dp1138
g2
(lp1139
((g4
g5
tI-1
tp1140
a((g7
g5
tI-1
tp1141
a((g73
g74
tI-1
tp1142
a((g76
g77
tI-1
tp1143
a((g79
g80
tI-1
tp1144
a((g143
g144
tI-1
tp1145
a((g146
g147
tI-1
tp1146
asg12
g146
sg13
(dp1147
g15
Nsg16
g45
sg18
I8
ssg16
g19
sg18
I171
sg20
g147
sg15
(dp1148
g15
(dp1149
g152
(dp1150
g15
Nsg16
g45
sg18
I19
ssg154
I0
sg155
F1
sg156
(dp1151
g15
Nsg16
g45
sg18
I19
ssg159
F0
sg160
I0
sg161
g162
sg163
F1
sg164
I0
sg165
F1
sg166
(dp1152
g15
Nsg16
g45
sg18
I19
ssg168
(dp1153
g15
Nsg16
g45
sg18
I19
ssg121
I0
sg170
I0
sg171
F1
sg172
I0
sg126
I0
sg173
F0
sg174
I0
sg175
I65535
sg110
I0
sg176
g177
sg178
I1
sg179
F1
ssg16
g134
sg18
I172
sssg50
S''
sg51
(dp1154
g2
(lp1155
((g4
g5
tI-1
tp1156
a((g7
g5
tI-1
tp1157
a((g73
g74
tI-1
tp1158
a((g76
g77
tI-1
tp1159
a((g79
g80
tI-1
tp1160
a((g187
g188
tI-1
tp1161
a((g190
g191
tI-1
tp1162
a((g62
g193
tI-1
tp1163
asg12
g62
sg13
(dp1164
g15
Nsg16
g45
sg18
I8
ssg16
g19
sg18
I165
sg20
g193
sg15
(dp1165
g15
(dp1166
g198
(dp1167
g15
S'H4sIAAP4l0YC/7XOMQoCMRAF0P5fJGkMWVfBwguk2cK0gmyyEQQ3O8QJmNs7RK9g8YvhPz4Tc12p\nmbiVZNb65MdcytxwKylu+cWlRgYN0LE75OXb0x7aWbBXQYEvNMopyo3gn1y4UQIdoL26nxREixB6\n7Myrs8I0TW43oEfGgrNWiuvb2n9GHg7mAy0aBDD4AAAA\n'
p1168
sg16
g119
sg18
I167
ssg201
(dp1169
g15
S'H4sIAAP4l0YC/53OMQvCMBAF4P39kWQxpFbBQXDOksGsgjRpCoJtQ3oB8+89oqOTwxuO9/G4sJQ5\nVRXWHNVcnvQYch4q7jmGddkol0BIHWRoDsv46dMe0miQE16Arqnnk5XpQV85Uk0R6QDpxHQSYM2C\n6bExJ84C1lqz69DCY95ozcXtpfXvTPryf8l/evUGx/o6Le8AAAA=\n'
p1170
sg16
g119
sg18
I169
ssg204
(dp1171
g15
S'H4sIAAP4l0YC/53OsQoCMRAE0H5+JGkMOU/hCn8gTQrTCnLJRRC8XIgbMH/vEu0FiymWeQwbUl1z\nU2ErUa31Qfe5lLnhWmLY0pNKDYQ8QIbukJZPn/eQRoOc8AJ0ziOfrMwI+sqFWo7IB0gnbpMAaxZM\nj505cRKw1prdgB4e80ZrLi4vrf/P9NPww169AaZN3yn4AAAA\n'
p1172
sg16
g119
sg18
I168
ssg110
I0
sg207
I1
sg208
I1
sg209
I1
sg210
I1
sg121
I0
sg126
I0
sg211
I1
sg212
(dp1173
g15
S'H4sIAAP4l0YC/7XOMQoCMRAF0P5fJGkMWVfBwguk2cK0gmyyEQQ3O8QJmNs7RK9g8YvhPz4Tc12p\nmbiVZNb65MdcytxwKylu+cWlRgYN0LE75OXb0x7aWbBXQYEvNMopyo3gn1y4UQIdoL26nxREixB6\n7Myrs8I0TW43oEfGgrNWiuvb2n9GHg7mAy0aBDD4AAAA\n'
p1174
sg16
g119
sg18
I170
ssg215
I1
ssg16
g134
sg18
I166
ssssg16
g134
sg18
I161
ssssg16
g134
sg18
I159
ssa(dp1175
g2
(lp1176
((g4
g5
tI-1
tp1177
a((g27
g5
tI-1
tp1178
a((g29
g30
tI-1
tp1179
a((g32
g33
tI0
tp1180
a((g35
g36
tI0
tp1181
a((g38
g39
tI0
tp1182
a((S'OrientationAxes'
p1183
S'enthought.mayavi.modules.orientation_axes'
p1184
tI0
tp1185
asg12
g1183
sg13
(dp1186
g15
Nsg16
g45
sg18
I1
ssg16
g19
sg18
I175
sg20
g1184
sg15
(dp1187
g15
(dp1188
S'_text_property'
p1189
(dp1190
g2
(lp1191
((g4
g5
tI-1
tp1192
a((g7
g5
tI-1
tp1193
a((g73
g74
tI-1
tp1194
a((g76
g77
tI-1
tp1195
a((g79
g80
tI-1
tp1196
a((S'TextProperty'
p1197
S'tvtk_classes.text_property'
p1198
tI-1
tp1199
asg12
g1197
sg13
(dp1200
g15
Nsg16
g45
sg18
I8
ssg16
g19
sg18
I177
sg20
g1198
sg15
(dp1201
g15
(dp1202
g163
F1
sS'justification'
p1203
S'left'
p1204
sS'font_size'
p1205
I12
sg204
F0
sS'line_offset'
p1206
F0
sS'italic_'
p1207
I0
sS'vertical_justification'
p1208
S'centered'
p1209
sS'shadow_'
p1210
I0
sg126
I0
sS'line_spacing'
p1211
F1.1000000000000001
sg741
(dp1212
g15
Nsg16
g45
sg18
I19
ssS'italic'
p1213
I0
sS'shadow_offset'
p1214
(dp1215
g15
S'H4sIAAP4l0YC/03NsQrDIBDG8f17EV0qmqRbX8DFoa6FEo2BQJOIPaG+fY+00A7/4bgfd3Gra24q\n7iWptT5oGUsZG+4lxX17UqmRkA1kPBy26bPPHaTVIC+CAF1zzyMr24G+cqKWE/IA6cUyCLBmwfTM\nrIcXFwHnnD0ZHPGxYLXmxe2lDad/zfN//DCoN80p7hW4AAAA\n'
p1216
sg16
g119
sg18
I179
ssg110
I0
sS'bold_'
p1217
I1
sS'shadow'
p1218
I0
sS'vertical_justification_'
p1219
I1
sS'font_family'
p1220
S'arial'
p1221
sg121
I0
sS'bold'
p1222
I1
ssg16
g134
sg18
I178
sssg691
(dp1223
g2
(lp1224
((g4
g5
tI-1
tp1225
a((g7
g5
tI-1
tp1226
a((g73
g74
tI-1
tp1227
a((g76
g77
tI-1
tp1228
a((g79
g80
tI-1
tp1229
a((g699
g700
tI-1
tp1230
a((g702
g703
tI-1
tp1231
asg12
g702
sg13
(dp1232
g15
Nsg16
g45
sg18
I8
ssg16
g19
sg18
I190
sg20
g703
sg15
(dp1233
g15
(dp1234
g708
S'i'
sg709
I1
sg126
I0
sg554
I1
sg710
F0.55000001192092896
sg121
I0
sg711
I0
sg712
I1
sg110
I0
sg713
I0
sg582
I1
ssg16
g134
sg18
I191
sssg48
S''
sg586
(dp1235
g2
(lp1236
((g4
g5
tI-1
tp1237
a((g7
g5
tI-1
tp1238
a((g73
g74
tI-1
tp1239
a((g76
g77
tI-1
tp1240
a((g79
g80
tI-1
tp1241
a((g187
g188
tI-1
tp1242
a((g190
g191
tI-1
tp1243
a((g596
g597
tI-1
tp1244
asg12
g596
sg13
(dp1245
g15
Nsg16
g45
sg18
I8
ssg16
g19
sg18
I180
sg20
g597
sg15
(dp1246
g15
(dp1247
g198
(dp1248
g15
S'H4sIAAT4l0YC/7XOMQoCMRAF0P5fJGkMWVfBwguk2cK0gmyyEQQ3O8QJmNs7RK9g8YvhPz4Tc12p\nmbiVZNb65MdcytxwKylu+cWlRgYN0LE75OXb0x7aWbBXQYEvNMopyo3gn1y4UQIdoL26nxREixB6\n7Myrs8I0TW43oEfGgrNWiuvb2n9GHg7mAy0aBDD4AAAA\n'
p1249
sg16
g119
sg18
I182
ssg204
(dp1250
g15
S'H4sIAAT4l0YC/53OsQoCMRAE0H5+JGkMOU/hCn8gTQrTCnLJRRC8XIgbMH/vEu0FiymWeQwbUl1z\nU2ErUa31Qfe5lLnhWmLY0pNKDYQ8QIbukJZPn/eQRoOc8AJ0ziOfrMwI+sqFWo7IB0gnbpMAaxZM\nj505cRKw1prdgB4e80ZrLi4vrf/P9NPww169AaZN3yn4AAAA\n'
p1251
sg16
g119
sg18
I183
ssg606
(dp1252
g15
S'H4sIAAT4l0YC/53OMQvCMBAF4P39ketiaK2CBcE5SwazCpImFQTbHvEC9t97VDc3hzcc7+NxcSoj\nLybOeTBjecg95BwWXPMQ5+kpuUQBN6ji6jClT89bVLaGeOoJcuZWT1W2hXxlkoUH8A6Vp9uBoFqF\n0v3KPB0Jzjm7abBGx3pb11pcXl3QdL9J3en/Uv/szRs+d+FG7wAAAA==\n'
p1253
sg16
g119
sg18
I184
ssg207
I1
sg209
I1
sg126
I0
sg211
I1
sg201
(dp1254
g15
S'H4sIAAT4l0YC/53OMQvCMBAF4P39kWQxpFbBQXDOksGsgjRpCoJtQ3oB8+89oqOTwxuO9/G4sJQ5\nVRXWHNVcnvQYch4q7jmGddkol0BIHWRoDsv46dMe0miQE16Arqnnk5XpQV85Uk0R6QDpxHQSYM2C\n6bExJ84C1lqz69DCY95ozcXtpfXvTPryf8l/evUGx/o6Le8AAAA=\n'
p1255
sg16
g119
sg18
I186
ssg612
F0.050000000000000003
sg613
I16
sg614
I16
sg615
I1
sg616
(dp1256
g15
S'H4sIAAT4l0YC/53OMQvCMBAF4P39kWQxpFbBQXDOksGsgjRpCoJtQ3oB8+89oqOTwxuO9/G4sJQ5\nVRXWHNVcnvQYch4q7jmGddkol0BIHWRoDsv46dMe0miQE16Arqnnk5XpQV85Uk0R6QDpxHQSYM2C\n6bExJ84C1lqz69DCY95ozcXtpfXvTPryf8l/evUGx/o6Le8AAAA=\n'
p1257
sg16
g119
sg18
I187
ssg215
I1
sg619
g620
sg621
S'X'
sg622
F0.40000000000000002
sg623
S'Z'
sg208
I1
sg210
I1
sg121
I0
sg624
I1
sg625
S'Y'
sg626
I0
sg627
F0.5
sg628
(dp1258
g15
S'H4sIAAT4l0YC/23NsQoCMQwG4P1/kXax9KyCg+DcpYNdBbn2KgjeXemlYN/eUB0NBBL+jyQudc5N\nxbUkNdcXPcdSxoZ7SXFdNio1EvIAGbvDMn3zvIe0GuRFEKBrNryysgb0kxO1nJAPkF48TgKsWTA9\ndubFWcA5Z3cDevOxYLXmwPS6vZO5/B/5Y1Afbh8AYbkAAAA=\n'
p1259
sg16
g119
sg18
I185
ssg631
g632
sg633
(dp1260
g15
S'H4sIAAT4l0YC/53OMQvCMBAF4P39kWQxpFbBQXDOksGsgjRpCoJtQ3oB8+89oqOTwxuO9/G4sJQ5\nVRXWHNVcnvQYch4q7jmGddkol0BIHWRoDsv46dMe0miQE16Arqnnk5XpQV85Uk0R6QDpxHQSYM2C\n6bExJ84C1lqz69DCY95ozcXtpfXvTPryf8l/evUGx/o6Le8AAAA=\n'
p1261
sg16
g119
sg18
I188
ssg110
I0
sg212
(dp1262
g15
S'H4sIAAT4l0YC/7XOMQoCMRAF0P5fJGkMWVfBwguk2cK0gmyyEQQ3O8QJmNs7RK9g8YvhPz4Tc12p\nmbiVZNb65MdcytxwKylu+cWlRgYN0LE75OXb0x7aWbBXQYEvNMopyo3gn1y4UQIdoL26nxREixB6\n7Myrs8I0TW43oEfGgrNWiuvb2n9GHg7mAy0aBDD4AAAA\n'
p1263
sg16
g119
sg18
I189
ssg609
I16
ssg16
g134
sg18
I181
sssg50
S''
ssg16
g134
sg18
I176
ssasg16
g267
sg18
I157
ssg48
S''
sS'scalar_lut_manager'
p1264
(dp1265
g2
(lp1266
((g4
g5
tI-1
tp1267
a((g27
g5
tI-1
tp1268
a((g29
g30
tI-1
tp1269
a((g32
g33
tI0
tp1270
a((S'LUTManager'
p1271
S'enthought.mayavi.core.lut_manager'
p1272
tI0
tp1273
asg12
g1271
sg13
(dp1274
g15
Nsg16
g45
sg18
I1
ssg16
g19
sg18
I192
sg20
g1272
sg15
(dp1275
g15
(dp1276
S'default_data_range'
p1277
(dp1278
g15
S'H4sIAAT4l0YC/02OuwrCQBBF+/sVdruNYfMQLIKQcpsUBjtBkk0CgkmWdQLu33uJghZnYDiHYdy8\nTj4mbglDMq0PubchtBG3MLhlfkpYncCn0G7rMPcf7zNoayCN6hTk7HOurGwG+Za9RD/AF9CNGo8K\nrFkwPTDL0ahSoa5ru0+xwWOdNYbi+jLmR0vGnoxV+W92VO7CUZz4QZe8AcJ2W+/JAAAA\n'
p1279
sg16
g119
sg18
I199
ssS'use_default_name'
p1280
I01
sS'lut'
p1281
(dp1282
g2
(lp1283
((g4
g5
tI-1
tp1284
a((g7
g5
tI-1
tp1285
a((g73
g74
tI-1
tp1286
a((g76
g77
tI-1
tp1287
a((g79
g80
tI-1
tp1288
a((S'ScalarsToColors'
p1289
S'tvtk_classes.scalars_to_colors'
p1290
tI-1
tp1291
a((S'LookupTable'
p1292
S'tvtk_classes.lookup_table'
p1293
tI-1
tp1294
asg12
g1292
sg13
(dp1295
g15
Nsg16
g45
sg18
I8
ssg16
g19
sg18
I200
sg20
g1293
sg15
(dp1296
g15
(dp1297
S'ramp_'
p1298
I2
sg201
S'linear'
p1299
sS'saturation_range'
p1300
(dp1301
g15
S'H4sIAAT4l0YC/33OMQvCMBAF4P39kWQxpK2Cg+CcJYNZBWnSFASbhngB8+89qqM4vOF4H48LqS65\nqbCWqJb6oPtYythwKzGs6UmlBkLuIMPmkKZPn3tIo0FOeAG65IFPVqYHfeVELUfkPaQT81GANQum\nB2YDnDgJWGvNrsMWHvNGay6uL61/Z9bnvyW/4tUbw9sFJ9IAAAA=\n'
p1302
sg16
g119
sg18
I202
ssS'table_range'
p1303
(dp1304
g15
S'H4sIAAT4l0YC/02OuwrCQBBF+/sVdruNYfMQLIKQcpsUBjtBkk0CgkmWdQLu33uJghZnYDiHYdy8\nTj4mbglDMq0PubchtBG3MLhlfkpYncCn0G7rMPcf7zNoayCN6hTk7HOurGwG+Za9RD/AF9CNGo8K\nrFkwPTDL0ahSoa5ru0+xwWOdNYbi+jLmR0vGnoxV+W92VO7CUZz4QZe8AcJ2W+/JAAAA\n'
p1305
sg16
g119
sg18
I204
ssS'hue_range'
p1306
(dp1307
g15
S'H4sIAAT4l0YC/33OMQvCMBAF4P39kXSxpK3FCopzEDpY3ALSpBEKNg3xCum/96jODm94vI/jrF+m\nsOZ2ji6flheNfYz9ikd0dvZvioslhAKZ3Rz88N1DiUxJUCeMAN1CxZWVKkE/OdAaHMIeWSeejQBr\nFkxrZhU6cRJo21btCmzhY0ZJycNVJ9voJA9nnY7mrpOrL1zlv/ATJv8A/YiyW8wAAAA=\n'
p1308
sg16
g119
sg18
I203
ssS'number_of_table_values'
p1309
I256
sS'ramp'
p1310
S'sqrt'
p1311
sg126
I0
sS'number_of_colors'
p1312
I256
sS'alpha_range'
p1313
(dp1314
g15
S'H4sIAAT4l0YC/33OMQvCMBAF4P39kWQxpK2Cg+CcJYNZBWnSFASbhngB8+89qqM4vOF4H48LqS65\nqbCWqJb6oPtYythwKzGs6UmlBkLuIMPmkKZPn3tIo0FOeAG65IFPVqYHfeVELUfkPaQT81GANQum\nB2YDnDgJWGvNrsMWHvNGay6uL61/Z9bnvyW/4tUbw9sFJ9IAAAA=\n'
p1315
sg16
g119
sg18
I205
ssS'vector_component'
p1316
I0
sS'value_range'
p1317
(dp1318
g15
S'H4sIAAT4l0YC/33OMQvCMBAF4P39kWQxpK2Cg+CcJYNZBWnSFASbhngB8+89qqM4vOF4H48LqS65\nqbCWqJb6oPtYythwKzGs6UmlBkLuIMPmkKZPn3tIo0FOeAG65IFPVqYHfeVELUfkPaQT81GANQum\nB2YDnDgJWGvNrsMWHvNGay6uL61/Z9bnvyW/4tUbw9sFJ9IAAAA=\n'
p1319
sg16
g119
sg18
I206
ssg110
I0
sS'alpha'
p1320
F1
sS'vector_mode'
p1321
S'component'
p1322
sg121
I0
ssg16
g134
sg18
I201
sssS'_label_text_property'
p1323
(dp1324
g2
(lp1325
((g4
g5
tI-1
tp1326
a((g7
g5
tI-1
tp1327
a((g73
g74
tI-1
tp1328
a((g76
g77
tI-1
tp1329
a((g79
g80
tI-1
tp1330
a((g1197
g1198
tI-1
tp1331
asg12
g1197
sg13
(dp1332
g15
Nsg16
g45
sg18
I8
ssg16
g19
sg18
I194
sg20
g1198
sg15
(dp1333
g15
(dp1334
g163
F1
sg1203
g1204
sg1205
I12
sg204
F0
sg1206
F0
sg1207
I1
sg1208
S'bottom'
p1335
sg1210
I0
sg126
I0
sg1211
F1.1000000000000001
sg741
(dp1336
g15
Nsg16
g45
sg18
I19
ssg1213
I1
sg1214
(dp1337
g15
S'H4sIAAT4l0YC/03NsQrDIBDG8f17EV0qmqRbX8DFoa6FEo2BQJOIPaG+fY+00A7/4bgfd3Gra24q\n7iWptT5oGUsZG+4lxX17UqmRkA1kPBy26bPPHaTVIC+CAF1zzyMr24G+cqKWE/IA6cUyCLBmwfTM\nrIcXFwHnnD0ZHPGxYLXmxe2lDad/zfN//DCoN80p7hW4AAAA\n'
p1338
sg16
g119
sg18
I196
ssg110
I0
sg1217
I1
sg1218
I0
sg1220
g1221
sg121
I0
sg1222
I1
ssg16
g134
sg18
I195
sssS'_title_text_property'
p1339
(dp1340
g2
(lp1341
((g4
g5
tI-1
tp1342
a((g7
g5
tI-1
tp1343
a((g73
g74
tI-1
tp1344
a((g76
g77
tI-1
tp1345
a((g79
g80
tI-1
tp1346
a((g1197
g1198
tI-1
tp1347
asg12
g1197
sg13
(dp1348
g15
Nsg16
g45
sg18
I8
ssg16
g19
sg18
I207
sg20
g1198
sg15
(dp1349
g15
(dp1350
g163
F1
sg1203
g1204
sg1205
I12
sg204
F0
sg1206
F0
sg1207
I1
sg1208
g1335
sg1210
I0
sg126
I0
sg1211
F1.1000000000000001
sg741
(dp1351
g15
Nsg16
g45
sg18
I19
ssg1213
I1
sg1214
(dp1352
g15
S'H4sIAAT4l0YC/03NsQrDIBDG8f17EV0qmqRbX8DFoa6FEo2BQJOIPaG+fY+00A7/4bgfd3Gra24q\n7iWptT5oGUsZG+4lxX17UqmRkA1kPBy26bPPHaTVIC+CAF1zzyMr24G+cqKWE/IA6cUyCLBmwfTM\nrIcXFwHnnD0ZHPGxYLXmxe2lDad/zfN//DCoN80p7hW4AAAA\n'
p1353
sg16
g119
sg18
I209
ssg110
I0
sg1217
I1
sg1218
I0
sg1220
g1221
sg121
I0
sg1222
I1
ssg16
g134
sg18
I208
sssS'scalar_bar_widget'
p1354
(dp1355
g2
(lp1356
((g4
g5
tI-1
tp1357
a((g7
g5
tI-1
tp1358
a((g73
g74
tI-1
tp1359
a((g76
g77
tI-1
tp1360
a((g79
g80
tI-1
tp1361
a((g699
g700
tI-1
tp1362
a((S'ScalarBarWidget'
p1363
S'tvtk_classes.scalar_bar_widget'
p1364
tI-1
tp1365
asg12
g1363
sg13
(dp1366
g15
Nsg16
g45
sg18
I8
ssg16
g19
sg18
I197
sg20
g1364
sg15
(dp1367
g15
(dp1368
g708
S'i'
sg709
I0
sg126
I0
sg710
F0.55000001192092896
sg121
I0
sg711
I0
sg712
I0
sg110
I0
sg713
I0
ssg16
g134
sg18
I198
sssg1043
S''
sS'data_name'
p1369
S'LocalResiduals'
p1370
sS'data_range'
p1371
(dp1372
g15
Nsg16
g45
sg18
I199
ssg50
S''
sg1312
I256
sS'default_data_name'
p1373
S'LocalResiduals'
p1374
sg48
S''
sS'use_default_range'
p1375
I01
sS'number_of_labels'
p1376
I8
sS'show_scalar_bar'
p1377
I00
sS'scalar_bar'
p1378
(dp1379
g2
(lp1380
((g4
g5
tI-1
tp1381
a((g7
g5
tI-1
tp1382
a((g73
g74
tI-1
tp1383
a((g76
g77
tI-1
tp1384
a((g79
g80
tI-1
tp1385
a((g187
g188
tI-1
tp1386
a((S'Actor2D'
p1387
S'tvtk_classes.actor2d'
p1388
tI-1
tp1389
a((S'ScalarBarActor'
p1390
S'tvtk_classes.scalar_bar_actor'
p1391
tI-1
tp1392
asg12
g1390
sg13
(dp1393
g15
Nsg16
g45
sg18
I8
ssg16
g19
sg18
I210
sg20
g1391
sg15
(dp1394
g15
(dp1395
g126
I0
sg215
I1
sg204
S'horizontal'
p1396
sS'width'
p1397
F0.80000000000000004
sS'label_format'
p1398
S'%-#6.3g'
p1399
sg1376
I8
sg207
I1
sg208
I1
sg209
I1
sg210
I1
sg121
I0
sS'maximum_number_of_colors'
p1400
I256
sS'orientation_'
p1401
I0
sS'position2'
p1402
(dp1403
g15
S'H4sIAAT4l0YC/2XOMQuDMBAF4P39kWSpaGxAoeCcxaGugaIxQqFqSC8Q/30P263DGx7v4zi3pTUc\nhdujL9b0oucY43jgEb3btzfF5AihgnSnwzZ/96AgTQkaxCRA91BzZWUU6CdnOoJHuEIOYmkEWLNg\nqpnVGMRNoO97c6lwho9Npix5sLkdOe1/fNvZ7GqbFy2ttblZuCqO7viLqfgAbt3QTs0AAAA=\n'
p1404
sg16
g119
sg18
I213
ssg211
I1
sg212
(dp1405
g15
S'H4sIAAT4l0YC/2XOMQuDMBAF4P39kbhUjFpQKDiWLA51DZQkplCoGtITYvvne9huHd5wvI/HuXmd\nwpa7Jfp8Wh90NzGaDdfo3TI/Ka6OECQytzvM47cPJTJVgAZhBegSKj5ZqRL0kyNtwSPUyAZxawRY\ns2B6ZFZhECeBvu/VQWIPj1lVFFzo1BpO+x/bdm+dZK2T8WedvHzp1NQdf2DzD7ndMtDJAAAA\n'
p1406
sg16
g119
sg18
I212
ssS'height'
p1407
F0.17000000000000001
sg110
I0
sS'layer_number'
p1408
I0
ssg16
g134
sg18
I211
sssS'_orig_data_range'
p1409
(dp1410
g15
S'H4sIAAT4l0YC/53OsQrCMBQF0P3+SLIY0lbBQXDOksGsgjRpCoJNQ/oC5u99VL/A4Q6Pe7i8kOqS\nmwpriWqpL3qOpYwNjxLDmjYqNRByBxl2hzR9+9xDGg1ywgvQLQ98sjI96CcnajkiHyGdmM8CrFkw\nPTEb4MRFwFprDh328Jg3WnNxf2v9X2Z95W+8+gDYoI1C1QAAAA==\n'
p1411
sg16
g119
sg18
I214
ssg1218
I00
sS'lut_mode'
p1412
S'blue-red'
p1413
sS'reverse_lut'
p1414
I00
ssg16
g134
sg18
I193
sssS'vector_lut_manager'
p1415
(dp1416
g2
(lp1417
((g4
g5
tI-1
tp1418
a((g27
g5
tI-1
tp1419
a((g29
g30
tI-1
tp1420
a((g32
g33
tI0
tp1421
a((g1271
g1272
tI0
tp1422
asg12
g1271
sg13
(dp1423
g15
Nsg16
g45
sg18
I1
ssg16
g19
sg18
I215
sg20
g1272
sg15
(dp1424
g15
(dp1425
g1277
(dp1426
g15
S'H4sIAAT4l0YC/53OsQrCMBQF0P3+SLIY0lbBQXDOksGsgjRpCoJNQ/oC5u99VL/A4Q6Pe7i8kOqS\nmwpriWqpL3qOpYwNjxLDmjYqNRByBxl2hzR9+9xDGg1ywgvQLQ98sjI96CcnajkiHyGdmM8CrFkw\nPTEb4MRFwFprDh328Jg3WnNxf2v9X2Z95W+8+gDYoI1C1QAAAA==\n'
p1427
sg16
g119
sg18
I222
ssg1280
I01
sg1281
(dp1428
g2
(lp1429
((g4
g5
tI-1
tp1430
a((g7
g5
tI-1
tp1431
a((g73
g74
tI-1
tp1432
a((g76
g77
tI-1
tp1433
a((g79
g80
tI-1
tp1434
a((g1289
g1290
tI-1
tp1435
a((g1292
g1293
tI-1
tp1436
asg12
g1292
sg13
(dp1437
g15
Nsg16
g45
sg18
I8
ssg16
g19
sg18
I223
sg20
g1293
sg15
(dp1438
g15
(dp1439
g1298
I2
sg201
g1299
sg1300
(dp1440
g15
S'H4sIAAT4l0YC/33OMQvCMBAF4P39kWQxpK2Cg+CcJYNZBWnSFASbhngB8+89qqM4vOF4H48LqS65\nqbCWqJb6oPtYythwKzGs6UmlBkLuIMPmkKZPn3tIo0FOeAG65IFPVqYHfeVELUfkPaQT81GANQum\nB2YDnDgJWGvNrsMWHvNGay6uL61/Z9bnvyW/4tUbw9sFJ9IAAAA=\n'
p1441
sg16
g119
sg18
I225
ssg1303
(dp1442
g15
S'H4sIAAT4l0YC/53OsQrCMBQF0P3+SLIY0lbBQXDOksGsgjRpCoJNQ/oC5u99VL/A4Q6Pe7i8kOqS\nmwpriWqpL3qOpYwNjxLDmjYqNRByBxl2hzR9+9xDGg1ywgvQLQ98sjI96CcnajkiHyGdmM8CrFkw\nPTEb4MRFwFprDh328Jg3WnNxf2v9X2Z95W+8+gDYoI1C1QAAAA==\n'
p1443
sg16
g119
sg18
I227
ssg1306
(dp1444
g15
S'H4sIAAT4l0YC/33OMQvCMBAF4P39kXSxpK3FCopzEDpY3ALSpBEKNg3xCum/96jODm94vI/jrF+m\nsOZ2ji6flheNfYz9ikd0dvZvioslhAKZ3Rz88N1DiUxJUCeMAN1CxZWVKkE/OdAaHMIeWSeejQBr\nFkxrZhU6cRJo21btCmzhY0ZJycNVJ9voJA9nnY7mrpOrL1zlv/ATJv8A/YiyW8wAAAA=\n'
p1445
sg16
g119
sg18
I226
ssg1309
I256
sg1310
g1311
sg126
I0
sg1312
I256
sg1313
(dp1446
g15
S'H4sIAAT4l0YC/33OMQvCMBAF4P39kWQxpK2Cg+CcJYNZBWnSFASbhngB8+89qqM4vOF4H48LqS65\nqbCWqJb6oPtYythwKzGs6UmlBkLuIMPmkKZPn3tIo0FOeAG65IFPVqYHfeVELUfkPaQT81GANQum\nB2YDnDgJWGvNrsMWHvNGay6uL61/Z9bnvyW/4tUbw9sFJ9IAAAA=\n'
p1447
sg16
g119
sg18
I228
ssg1316
I0
sg1317
(dp1448
g15
S'H4sIAAT4l0YC/33OMQvCMBAF4P39kWQxpK2Cg+CcJYNZBWnSFASbhngB8+89qqM4vOF4H48LqS65\nqbCWqJb6oPtYythwKzGs6UmlBkLuIMPmkKZPn3tIo0FOeAG65IFPVqYHfeVELUfkPaQT81GANQum\nB2YDnDgJWGvNrsMWHvNGay6uL61/Z9bnvyW/4tUbw9sFJ9IAAAA=\n'
p1449
sg16
g119
sg18
I229
ssg110
I0
sg1320
F1
sg1321
g1322
sg121
I0
ssg16
g134
sg18
I224
sssg1323
(dp1450
g2
(lp1451
((g4
g5
tI-1
tp1452
a((g7
g5
tI-1
tp1453
a((g73
g74
tI-1
tp1454
a((g76
g77
tI-1
tp1455
a((g79
g80
tI-1
tp1456
a((g1197
g1198
tI-1
tp1457
asg12
g1197
sg13
(dp1458
g15
Nsg16
g45
sg18
I8
ssg16
g19
sg18
I217
sg20
g1198
sg15
(dp1459
g15
(dp1460
g163
F1
sg1203
g1204
sg1205
I12
sg204
F0
sg1206
F0
sg1207
I1
sg1208
g1335
sg1210
I0
sg126
I0
sg1211
F1.1000000000000001
sg741
(dp1461
g15
Nsg16
g45
sg18
I19
ssg1213
I1
sg1214
(dp1462
g15
S'H4sIAAT4l0YC/03NsQrDIBDG8f17EV0qmqRbX8DFoa6FEo2BQJOIPaG+fY+00A7/4bgfd3Gra24q\n7iWptT5oGUsZG+4lxX17UqmRkA1kPBy26bPPHaTVIC+CAF1zzyMr24G+cqKWE/IA6cUyCLBmwfTM\nrIcXFwHnnD0ZHPGxYLXmxe2lDad/zfN//DCoN80p7hW4AAAA\n'
p1463
sg16
g119
sg18
I219
ssg110
I0
sg1217
I1
sg1218
I0
sg1220
g1221
sg121
I0
sg1222
I1
ssg16
g134
sg18
I218
sssg1339
(dp1464
g2
(lp1465
((g4
g5
tI-1
tp1466
a((g7
g5
tI-1
tp1467
a((g73
g74
tI-1
tp1468
a((g76
g77
tI-1
tp1469
a((g79
g80
tI-1
tp1470
a((g1197
g1198
tI-1
tp1471
asg12
g1197
sg13
(dp1472
g15
Nsg16
g45
sg18
I8
ssg16
g19
sg18
I230
sg20
g1198
sg15
(dp1473
g15
(dp1474
g163
F1
sg1203
g1204
sg1205
I12
sg204
F0
sg1206
F0
sg1207
I1
sg1208
g1335
sg1210
I0
sg126
I0
sg1211
F1.1000000000000001
sg741
(dp1475
g15
Nsg16
g45
sg18
I19
ssg1213
I1
sg1214
(dp1476
g15
S'H4sIAAT4l0YC/03NsQrDIBDG8f17EV0qmqRbX8DFoa6FEo2BQJOIPaG+fY+00A7/4bgfd3Gra24q\n7iWptT5oGUsZG+4lxX17UqmRkA1kPBy26bPPHaTVIC+CAF1zzyMr24G+cqKWE/IA6cUyCLBmwfTM\nrIcXFwHnnD0ZHPGxYLXmxe2lDad/zfN//DCoN80p7hW4AAAA\n'
p1477
sg16
g119
sg18
I232
ssg110
I0
sg1217
I1
sg1218
I0
sg1220
g1221
sg121
I0
sg1222
I1
ssg16
g134
sg18
I231
sssg1354
(dp1478
g2
(lp1479
((g4
g5
tI-1
tp1480
a((g7
g5
tI-1
tp1481
a((g73
g74
tI-1
tp1482
a((g76
g77
tI-1
tp1483
a((g79
g80
tI-1
tp1484
a((g699
g700
tI-1
tp1485
a((g1363
g1364
tI-1
tp1486
asg12
g1363
sg13
(dp1487
g15
Nsg16
g45
sg18
I8
ssg16
g19
sg18
I220
sg20
g1364
sg15
(dp1488
g15
(dp1489
g708
S'i'
sg709
I0
sg126
I0
sg710
F0.55000001192092896
sg121
I0
sg711
I0
sg712
I0
sg110
I0
sg713
I0
ssg16
g134
sg18
I221
sssg1043
S''
sg1369
S'No vectors'
p1490
sg1371
(dp1491
g15
Nsg16
g45
sg18
I222
ssg50
S''
sg1312
I256
sg1373
g1490
sg48
S''
sg1375
I01
sg1376
I8
sg1377
I00
sg1378
(dp1492
g2
(lp1493
((g4
g5
tI-1
tp1494
a((g7
g5
tI-1
tp1495
a((g73
g74
tI-1
tp1496
a((g76
g77
tI-1
tp1497
a((g79
g80
tI-1
tp1498
a((g187
g188
tI-1
tp1499
a((g1387
g1388
tI-1
tp1500
a((g1390
g1391
tI-1
tp1501
asg12
g1390
sg13
(dp1502
g15
Nsg16
g45
sg18
I8
ssg16
g19
sg18
I233
sg20
g1391
sg15
(dp1503
g15
(dp1504
g126
I0
sg215
I1
sg204
g1396
sg1397
F0.80000000000000004
sg1398
S'%-#6.3g'
p1505
sg1376
I8
sg207
I1
sg208
I1
sg209
I1
sg210
I1
sg121
I0
sg1400
I256
sg1401
I0
sg1402
(dp1506
g15
S'H4sIAAT4l0YC/2XOMQuDMBAF4P39kWSpaGxAoeCcxaGugaIxQqFqSC8Q/30P263DGx7v4zi3pTUc\nhdujL9b0oucY43jgEb3btzfF5AihgnSnwzZ/96AgTQkaxCRA91BzZWUU6CdnOoJHuEIOYmkEWLNg\nqpnVGMRNoO97c6lwho9Npix5sLkdOe1/fNvZ7GqbFy2ttblZuCqO7viLqfgAbt3QTs0AAAA=\n'
p1507
sg16
g119
sg18
I236
ssg211
I1
sg212
(dp1508
g15
S'H4sIAAT4l0YC/2XOMQuDMBAF4P39kbhUjFpQKDiWLA51DZQkplCoGtITYvvne9huHd5wvI/HuXmd\nwpa7Jfp8Wh90NzGaDdfo3TI/Ka6OECQytzvM47cPJTJVgAZhBegSKj5ZqRL0kyNtwSPUyAZxawRY\ns2B6ZFZhECeBvu/VQWIPj1lVFFzo1BpO+x/bdm+dZK2T8WedvHzp1NQdf2DzD7ndMtDJAAAA\n'
p1509
sg16
g119
sg18
I235
ssg1407
F0.17000000000000001
sg110
I0
sg1408
I0
ssg16
g134
sg18
I234
sssg1409
(dp1510
g15
S'H4sIAAT4l0YC/53OsQrCMBQF0P3+SLIY0lbBQXDOksGsgjRpCoJNQ/oC5u99VL/A4Q6Pe7i8kOqS\nmwpriWqpL3qOpYwNjxLDmjYqNRByBxl2hzR9+9xDGg1ywgvQLQ98sjI96CcnajkiHyGdmM8CrFkw\nPTEb4MRFwFprDh328Jg3WnNxf2v9X2Z95W+8+gDYoI1C1QAAAA==\n'
p1511
sg16
g119
sg18
I237
ssg1218
I00
sg1412
g1413
sg1414
I00
ssg16
g134
sg18
I216
ssssg16
g134
sg18
I156
ssa(dp1512
g2
(lp1513
((g4
g5
tI-1
tp1514
a((g27
g5
tI-1
tp1515
a((g29
g30
tI-1
tp1516
a((g32
g33
tI0
tp1517
a((g35
g36
tI0
tp1518
a((g998
g999
tI0
tp1519
a((S'Filter'
p1520
S'enthought.mayavi.core.filter'
p1521
tI0
tp1522
a((S'Threshold'
p1523
S'enthought.mayavi.filters.threshold'
p1524
tI0
tp1525
asg12
g1523
sg13
(dp1526
g15
Nsg16
g45
sg18
I1
ssg16
g19
sg18
I238
sg20
g1524
sg15
(dp1527
g15
(dp1528
S'threshold_filter'
p1529
(dp1530
g2
(lp1531
((g4
g5
tI-1
tp1532
a((g7
g5
tI-1
tp1533
a((g73
g74
tI-1
tp1534
a((g76
g77
tI-1
tp1535
a((g79
g80
tI-1
tp1536
a((g82
g83
tI-1
tp1537
a((S'UnstructuredGridAlgorithm'
p1538
S'tvtk_classes.unstructured_grid_algorithm'
p1539
tI-1
tp1540
a((g1523
S'tvtk_classes.threshold'
p1541
tI-1
tp1542
asg12
g1523
sg13
(dp1543
g15
Nsg16
g45
sg18
I8
ssg16
g19
sg18
I312
sg20
g1541
sg15
(dp1544
g15
(dp1545
S'attribute_mode'
p1546
I-1
sS'all_scalars_'
p1547
I1
sg110
I0
sg124
I0
sg126
I0
sS'component_mode'
p1548
S'use_selected'
p1549
sS'all_scalars'
p1550
I1
sg121
I0
sg113
I0
sg114
I0
sg115
F1
sg130
I0
sS'selected_component'
p1551
I0
sS'attribute_mode_'
p1552
I-1
ssg16
g134
sg18
I313
sssg50
S''
sS'_upper_threshold'
p1553
F6.0602002349696704e-07
sg48
S''
sS'_lower_threshold'
p1554
F1.9515599813659984e-18
sg988
(dp1555
g15
(lp1556
(dp1557
g2
(lp1558
((g4
g5
tI-1
tp1559
a((g27
g5
tI-1
tp1560
a((g29
g30
tI-1
tp1561
a((g32
g33
tI0
tp1562
a((g1069
g1070
tI0
tp1563
asg12
g1069
sg13
(dp1564
g15
Nsg16
g45
sg18
I1
ssg16
g19
sg18
I241
sg20
g1070
sg15
(dp1565
g15
(dp1566
g50
S''
sg1075
g1076
sg988
(dp1567
g15
(lp1568
(dp1569
g2
(lp1570
((g4
g5
tI-1
tp1571
a((g27
g5
tI-1
tp1572
a((g29
g30
tI-1
tp1573
a((g32
g33
tI0
tp1574
a((g35
g36
tI0
tp1575
a((g38
g39
tI0
tp1576
a((g41
g42
tI0
tp1577
asg12
g41
sg13
(dp1578
g15
Nsg16
g45
sg18
I1
ssg16
g19
sg18
I244
sg20
g42
sg15
(dp1579
g15
(dp1580
g48
S''
sg49
I00
sg50
S''
sg51
(dp1581
g2
(lp1582
((g4
g5
tI-1
tp1583
a((g27
g5
tI-1
tp1584
a((g29
g30
tI-1
tp1585
a((g32
g33
tI0
tp1586
a((g35
g36
tI0
tp1587
a((g59
g60
tI0
tp1588
a((g62
g63
tI0
tp1589
asg12
g62
sg13
(dp1590
g15
Nsg16
g45
sg18
I1
ssg16
g19
sg18
I246
sg20
g63
sg15
(dp1591
g15
(dp1592
g68
(dp1593
g2
(lp1594
((g4
g5
tI-1
tp1595
a((g7
g5
tI-1
tp1596
a((g73
g74
tI-1
tp1597
a((g76
g77
tI-1
tp1598
a((g79
g80
tI-1
tp1599
a((g82
g83
tI-1
tp1600
a((g85
g86
tI-1
tp1601
a((g88
g89
tI-1
tp1602
a((g91
g92
tI-1
tp1603
a((g94
g95
tI-1
tp1604
asg12
g94
sg13
(dp1605
g15
Nsg16
g45
sg18
I8
ssg16
g19
sg18
I248
sg20
g95
sg15
(dp1606
g15
(dp1607
g101
I0
sg102
I0
sg103
g104
sg105
I0
sg106
I0
sg107
F0.01
sg108
g104
sg109
I0
sg110
I0
sg111
I0
sg112
I1
sg113
I0
sg114
I0
sg115
F1
sg116
(dp1608
g15
S'H4sIAAT4l0YC/53OsQrCMBQF0P3+SLIY0lbBQXDOksGsgjRpCoJNQ/oC5u99VL/A4Q6Pe7i8kOqS\nmwpriWqpL3qOpYwNjxLDmjYqNRByBxl2hzR9+9xDGg1ywgvQLQ98sjI96CcnajkiHyGdmM8CrFkw\nPTEb4MRFwFprDh328Jg3WnNxf2v9X2Z95W+8+gDYoI1C1QAAAA==\n'
p1609
sg16
g119
sg18
I250
ssg120
I1
sg121
I0
sg122
I0
sg123
I1
sg124
I0
sg125
I1
sg126
I0
sg127
I0
sg128
g129
sg130
I0
sg131
I0
sg132
g104
sg133
F0
ssg16
g134
sg18
I249
sssg48
S''
sg135
(dp1610
g2
(lp1611
((g4
g5
tI-1
tp1612
a((g7
g5
tI-1
tp1613
a((g73
g74
tI-1
tp1614
a((g76
g77
tI-1
tp1615
a((g79
g80
tI-1
tp1616
a((g143
g144
tI-1
tp1617
a((g146
g147
tI-1
tp1618
asg12
g146
sg13
(dp1619
g15
Nsg16
g45
sg18
I8
ssg16
g19
sg18
I257
sg20
g147
sg15
(dp1620
g15
(dp1621
g152
(dp1622
g15
Nsg16
g45
sg18
I19
ssg154
I0
sg155
F1
sg156
(dp1623
g15
Nsg16
g45
sg18
I19
ssg159
F0
sg160
I0
sg161
g162
sg163
F1
sg164
I0
sg165
F1
sg166
(dp1624
g15
Nsg16
g45
sg18
I19
ssg168
(dp1625
g15
Nsg16
g45
sg18
I19
ssg121
I0
sg170
I0
sg171
F1
sg172
I0
sg126
I0
sg173
F0
sg174
I0
sg175
I65535
sg110
I0
sg176
g177
sg178
I1
sg179
F2
ssg16
g134
sg18
I258
sssg50
S''
sg51
(dp1626
g2
(lp1627
((g4
g5
tI-1
tp1628
a((g7
g5
tI-1
tp1629
a((g73
g74
tI-1
tp1630
a((g76
g77
tI-1
tp1631
a((g79
g80
tI-1
tp1632
a((g187
g188
tI-1
tp1633
a((g190
g191
tI-1
tp1634
a((g62
g193
tI-1
tp1635
asg12
g62
sg13
(dp1636
g15
Nsg16
g45
sg18
I8
ssg16
g19
sg18
I251
sg20
g193
sg15
(dp1637
g15
(dp1638
g198
(dp1639
g15
S'H4sIAAT4l0YC/7XOMQoCMRAF0P5fJGkMWVfBwguk2cK0gmyyEQQ3O8QJmNs7RK9g8YvhPz4Tc12p\nmbiVZNb65MdcytxwKylu+cWlRgYN0LE75OXb0x7aWbBXQYEvNMopyo3gn1y4UQIdoL26nxREixB6\n7Myrs8I0TW43oEfGgrNWiuvb2n9GHg7mAy0aBDD4AAAA\n'
p1640
sg16
g119
sg18
I253
ssg201
(dp1641
g15
S'H4sIAAT4l0YC/53OMQvCMBAF4P39kWQxpFbBQXDOksGsgjRpCoJtQ3oB8+89oqOTwxuO9/G4sJQ5\nVRXWHNVcnvQYch4q7jmGddkol0BIHWRoDsv46dMe0miQE16Arqnnk5XpQV85Uk0R6QDpxHQSYM2C\n6bExJ84C1lqz69DCY95ozcXtpfXvTPryf8l/evUGx/o6Le8AAAA=\n'
p1642
sg16
g119
sg18
I255
ssg204
(dp1643
g15
S'H4sIAAT4l0YC/53OsQoCMRAE0H5+JGkMOU/hCn8gTQrTCnLJRRC8XIgbMH/vEu0FiymWeQwbUl1z\nU2ErUa31Qfe5lLnhWmLY0pNKDYQ8QIbukJZPn/eQRoOc8AJ0ziOfrMwI+sqFWo7IB0gnbpMAaxZM\nj505cRKw1prdgB4e80ZrLi4vrf/P9NPww169AaZN3yn4AAAA\n'
p1644
sg16
g119
sg18
I254
ssg110
I0
sg207
I1
sg208
I0
sg209
I1
sg210
I1
sg121
I0
sg126
I0
sg211
I0
sg212
(dp1645
g15
S'H4sIAAT4l0YC/7XOMQoCMRAF0P5fJGkMWVfBwguk2cK0gmyyEQQ3O8QJmNs7RK9g8YvhPz4Tc12p\nmbiVZNb65MdcytxwKylu+cWlRgYN0LE75OXb0x7aWbBXQYEvNMopyo3gn1y4UQIdoL26nxREixB6\n7Myrs8I0TW43oEfGgrNWiuvb2n9GHg7mAy0aBDD4AAAA\n'
p1646
sg16
g119
sg18
I256
ssg215
I1
ssg16
g134
sg18
I252
ssssg16
g134
sg18
I247
sssg216
(dp1647
g2
(lp1648
((g4
g5
tI-1
tp1649
a((g27
g5
tI-1
tp1650
a((g29
g30
tI-1
tp1651
a((g32
g33
tI0
tp1652
a((g35
g36
tI0
tp1653
a((g59
g60
tI0
tp1654
a((g225
g226
tI0
tp1655
asg12
g225
sg13
(dp1656
g15
Nsg16
g45
sg18
I1
ssg16
g19
sg18
I259
sg20
g226
sg15
(dp1657
g15
(dp1658
g50
S''
sg231
I01
sg232
(dp1659
g15
Nsg16
g45
sg18
I1
ssg234
I00
sg235
F0
sg48
S''
sg236
(dp1660
g2
(lp1661
((g4
g5
tI-1
tp1662
a((g7
g5
tI-1
tp1663
a((g73
g74
tI-1
tp1664
a((g76
g77
tI-1
tp1665
a((g79
g80
tI-1
tp1666
a((g82
g83
tI-1
tp1667
a((g245
g246
tI-1
tp1668
a((g248
g249
tI-1
tp1669
asg12
g248
sg13
(dp1670
g15
Nsg16
g45
sg18
I8
ssg16
g19
sg18
I261
sg20
g249
sg15
(dp1671
g15
(dp1672
g254
I0
sg121
I0
sg255
I0
sg256
I1
sg257
I0
sg124
I0
sg258
I1
sg259
I1
sg260
I1
sg261
I0
sg262
I0
sg113
I0
sg126
I0
sg114
I0
sg130
I0
sg115
F0
sg263
I1
sg110
I0
ssg16
g134
sg18
I262
sssg264
(dp1673
g15
(lp1674
sg16
g267
sg18
I263
ssg268
(dp1675
g2
(lp1676
((g4
g5
tI-1
tp1677
a((g7
g5
tI-1
tp1678
a((g73
g74
tI-1
tp1679
a((g76
g77
tI-1
tp1680
a((g79
g80
tI-1
tp1681
a((g82
g83
tI-1
tp1682
a((g245
g246
tI-1
tp1683
a((g278
g279
tI-1
tp1684
asg12
g278
sg13
(dp1685
g15
Nsg16
g45
sg18
I8
ssg16
g19
sg18
I264
sg20
g279
sg15
(dp1686
g15
(dp1687
g126
I0
sg284
I1
sg124
I0
sg285
I1
sg103
g286
sg287
I0
sg110
I0
sg121
I0
sg113
I0
sg288
I1
sg114
I0
sg130
I0
sg115
F0
sg263
I1
sg289
I0
ssg16
g134
sg18
I265
sssg290
I01
sg263
I10
sg291
F0
ssg16
g134
sg18
I260
ssssg16
g134
sg18
I245
ssasg16
g267
sg18
I243
ssg48
S''
sg1264
(dp1688
g2
(lp1689
((g4
g5
tI-1
tp1690
a((g27
g5
tI-1
tp1691
a((g29
g30
tI-1
tp1692
a((g32
g33
tI0
tp1693
a((g1271
g1272
tI0
tp1694
asg12
g1271
sg13
(dp1695
g15
Nsg16
g45
sg18
I1
ssg16
g19
sg18
I266
sg20
g1272
sg15
(dp1696
g15
(dp1697
g1277
(dp1698
g15
S'H4sIAAT4l0YC/02OuwrCQBBF+/sVdruNYfMQLIKQcpsUBjtBkk0CgkmWdQLu33uJghZnYDiHYdy8\nTj4mbglDMq0PubchtBG3MLhlfkpYncCn0G7rMPcf7zNoayCN6hTk7HOurGwG+Za9RD/AF9CNGo8K\nrFkwPTDL0ahSoa5ru0+xwWOdNYbi+jLmR0vGnoxV+W92VO7CUZz4QZe8AcJ2W+/JAAAA\n'
p1699
sg16
g119
sg18
I273
ssg1280
I01
sg1281
(dp1700
g2
(lp1701
((g4
g5
tI-1
tp1702
a((g7
g5
tI-1
tp1703
a((g73
g74
tI-1
tp1704
a((g76
g77
tI-1
tp1705
a((g79
g80
tI-1
tp1706
a((g1289
g1290
tI-1
tp1707
a((g1292
g1293
tI-1
tp1708
asg12
g1292
sg13
(dp1709
g15
Nsg16
g45
sg18
I8
ssg16
g19
sg18
I274
sg20
g1293
sg15
(dp1710
g15
(dp1711
g1298
I2
sg201
g1299
sg1300
(dp1712
g15
S'H4sIAAT4l0YC/33OMQvCMBAF4P39kWQxpK2Cg+CcJYNZBWnSFASbhngB8+89qqM4vOF4H48LqS65\nqbCWqJb6oPtYythwKzGs6UmlBkLuIMPmkKZPn3tIo0FOeAG65IFPVqYHfeVELUfkPaQT81GANQum\nB2YDnDgJWGvNrsMWHvNGay6uL61/Z9bnvyW/4tUbw9sFJ9IAAAA=\n'
p1713
sg16
g119
sg18
I276
ssg1303
(dp1714
g15
S'H4sIAAT4l0YC/02OuwrCQBBF+/sVdruNYfMQLIKQcpsUBjtBkk0CgkmWdQLu33uJghZnYDiHYdy8\nTj4mbglDMq0PubchtBG3MLhlfkpYncCn0G7rMPcf7zNoayCN6hTk7HOurGwG+Za9RD/AF9CNGo8K\nrFkwPTDL0ahSoa5ru0+xwWOdNYbi+jLmR0vGnoxV+W92VO7CUZz4QZe8AcJ2W+/JAAAA\n'
p1715
sg16
g119
sg18
I278
ssg1306
(dp1716
g15
S'H4sIAAT4l0YC/33OMQvCMBAF4P39kXSxpK3FCopzEDpY3ALSpBEKNg3xCum/96jODm94vI/jrF+m\nsOZ2ji6flheNfYz9ikd0dvZvioslhAKZ3Rz88N1DiUxJUCeMAN1CxZWVKkE/OdAaHMIeWSeejQBr\nFkxrZhU6cRJo21btCmzhY0ZJycNVJ9voJA9nnY7mrpOrL1zlv/ATJv8A/YiyW8wAAAA=\n'
p1717
sg16
g119
sg18
I277
ssg1309
I256
sg1310
g1311
sg126
I0
sg1312
I256
sg1313
(dp1718
g15
S'H4sIAAT4l0YC/33OMQvCMBAF4P39kWQxpK2Cg+CcJYNZBWnSFASbhngB8+89qqM4vOF4H48LqS65\nqbCWqJb6oPtYythwKzGs6UmlBkLuIMPmkKZPn3tIo0FOeAG65IFPVqYHfeVELUfkPaQT81GANQum\nB2YDnDgJWGvNrsMWHvNGay6uL61/Z9bnvyW/4tUbw9sFJ9IAAAA=\n'
p1719
sg16
g119
sg18
I279
ssg1316
I0
sg1317
(dp1720
g15
S'H4sIAAT4l0YC/33OMQvCMBAF4P39kWQxpK2Cg+CcJYNZBWnSFASbhngB8+89qqM4vOF4H48LqS65\nqbCWqJb6oPtYythwKzGs6UmlBkLuIMPmkKZPn3tIo0FOeAG65IFPVqYHfeVELUfkPaQT81GANQum\nB2YDnDgJWGvNrsMWHvNGay6uL61/Z9bnvyW/4tUbw9sFJ9IAAAA=\n'
p1721
sg16
g119
sg18
I280
ssg110
I0
sg1320
F1
sg1321
g1322
sg121
I0
ssg16
g134
sg18
I275
sssg1323
(dp1722
g2
(lp1723
((g4
g5
tI-1
tp1724
a((g7
g5
tI-1
tp1725
a((g73
g74
tI-1
tp1726
a((g76
g77
tI-1
tp1727
a((g79
g80
tI-1
tp1728
a((g1197
g1198
tI-1
tp1729
asg12
g1197
sg13
(dp1730
g15
Nsg16
g45
sg18
I8
ssg16
g19
sg18
I268
sg20
g1198
sg15
(dp1731
g15
(dp1732
g163
F1
sg1203
g1204
sg1205
I12
sg204
F0
sg1206
F0
sg1207
I1
sg1208
g1335
sg1210
I0
sg126
I0
sg1211
F1.1000000000000001
sg741
(dp1733
g15
Nsg16
g45
sg18
I19
ssg1213
I1
sg1214
(dp1734
g15
S'H4sIAAT4l0YC/03NsQrDIBDG8f17EV0qmqRbX8DFoa6FEo2BQJOIPaG+fY+00A7/4bgfd3Gra24q\n7iWptT5oGUsZG+4lxX17UqmRkA1kPBy26bPPHaTVIC+CAF1zzyMr24G+cqKWE/IA6cUyCLBmwfTM\nrIcXFwHnnD0ZHPGxYLXmxe2lDad/zfN//DCoN80p7hW4AAAA\n'
p1735
sg16
g119
sg18
I270
ssg110
I0
sg1217
I1
sg1218
I0
sg1220
g1221
sg121
I0
sg1222
I1
ssg16
g134
sg18
I269
sssg1339
(dp1736
g2
(lp1737
((g4
g5
tI-1
tp1738
a((g7
g5
tI-1
tp1739
a((g73
g74
tI-1
tp1740
a((g76
g77
tI-1
tp1741
a((g79
g80
tI-1
tp1742
a((g1197
g1198
tI-1
tp1743
asg12
g1197
sg13
(dp1744
g15
Nsg16
g45
sg18
I8
ssg16
g19
sg18
I281
sg20
g1198
sg15
(dp1745
g15
(dp1746
g163
F1
sg1203
g1204
sg1205
I12
sg204
F0
sg1206
F0
sg1207
I1
sg1208
g1335
sg1210
I0
sg126
I0
sg1211
F1.1000000000000001
sg741
(dp1747
g15
Nsg16
g45
sg18
I19
ssg1213
I1
sg1214
(dp1748
g15
S'H4sIAAT4l0YC/03NsQrDIBDG8f17EV0qmqRbX8DFoa6FEo2BQJOIPaG+fY+00A7/4bgfd3Gra24q\n7iWptT5oGUsZG+4lxX17UqmRkA1kPBy26bPPHaTVIC+CAF1zzyMr24G+cqKWE/IA6cUyCLBmwfTM\nrIcXFwHnnD0ZHPGxYLXmxe2lDad/zfN//DCoN80p7hW4AAAA\n'
p1749
sg16
g119
sg18
I283
ssg110
I0
sg1217
I1
sg1218
I0
sg1220
g1221
sg121
I0
sg1222
I1
ssg16
g134
sg18
I282
sssg1354
(dp1750
g2
(lp1751
((g4
g5
tI-1
tp1752
a((g7
g5
tI-1
tp1753
a((g73
g74
tI-1
tp1754
a((g76
g77
tI-1
tp1755
a((g79
g80
tI-1
tp1756
a((g699
g700
tI-1
tp1757
a((g1363
g1364
tI-1
tp1758
asg12
g1363
sg13
(dp1759
g15
Nsg16
g45
sg18
I8
ssg16
g19
sg18
I271
sg20
g1364
sg15
(dp1760
g15
(dp1761
g708
S'i'
sg709
I0
sg126
I0
sg710
F0.55000001192092896
sg121
I0
sg711
I0
sg712
I0
sg110
I0
sg713
I0
ssg16
g134
sg18
I272
sssg1043
S''
sg1369
S'LocalResiduals'
p1762
sg1371
(dp1763
g15
Nsg16
g45
sg18
I273
ssg50
S''
sg1312
I256
sg1373
S'LocalResiduals'
p1764
sg48
S''
sg1375
I01
sg1376
I8
sg1377
I00
sg1378
(dp1765
g2
(lp1766
((g4
g5
tI-1
tp1767
a((g7
g5
tI-1
tp1768
a((g73
g74
tI-1
tp1769
a((g76
g77
tI-1
tp1770
a((g79
g80
tI-1
tp1771
a((g187
g188
tI-1
tp1772
a((g1387
g1388
tI-1
tp1773
a((g1390
g1391
tI-1
tp1774
asg12
g1390
sg13
(dp1775
g15
Nsg16
g45
sg18
I8
ssg16
g19
sg18
I284
sg20
g1391
sg15
(dp1776
g15
(dp1777
g126
I0
sg215
I1
sg204
g1396
sg1397
F0.80000000000000004
sg1398
S'%-#6.3g'
p1778
sg1376
I8
sg207
I1
sg208
I1
sg209
I1
sg210
I1
sg121
I0
sg1400
I256
sg1401
I0
sg1402
(dp1779
g15
S'H4sIAAT4l0YC/2XOMQuDMBAF4P39kWSpaGxAoeCcxaGugaIxQqFqSC8Q/30P263DGx7v4zi3pTUc\nhdujL9b0oucY43jgEb3btzfF5AihgnSnwzZ/96AgTQkaxCRA91BzZWUU6CdnOoJHuEIOYmkEWLNg\nqpnVGMRNoO97c6lwho9Npix5sLkdOe1/fNvZ7GqbFy2ttblZuCqO7viLqfgAbt3QTs0AAAA=\n'
p1780
sg16
g119
sg18
I287
ssg211
I1
sg212
(dp1781
g15
S'H4sIAAT4l0YC/2XOMQuDMBAF4P39kbhUjFpQKDiWLA51DZQkplCoGtITYvvne9huHd5wvI/HuXmd\nwpa7Jfp8Wh90NzGaDdfo3TI/Ka6OECQytzvM47cPJTJVgAZhBegSKj5ZqRL0kyNtwSPUyAZxawRY\ns2B6ZFZhECeBvu/VQWIPj1lVFFzo1BpO+x/bdm+dZK2T8WedvHzp1NQdf2DzD7ndMtDJAAAA\n'
p1782
sg16
g119
sg18
I286
ssg1407
F0.17000000000000001
sg110
I0
sg1408
I0
ssg16
g134
sg18
I285
sssg1409
(dp1783
g15
S'H4sIAAT4l0YC/53OsQrCMBQF0P3+SLIY0lbBQXDOksGsgjRpCoJNQ/oC5u99VL/A4Q6Pe7i8kOqS\nmwpriWqpL3qOpYwNjxLDmjYqNRByBxl2hzR9+9xDGg1ywgvQLQ98sjI96CcnajkiHyGdmM8CrFkw\nPTEb4MRFwFprDh328Jg3WnNxf2v9X2Z95W+8+gDYoI1C1QAAAA==\n'
p1784
sg16
g119
sg18
I288
ssg1218
I00
sg1412
g1413
sg1414
I00
ssg16
g134
sg18
I267
sssg1415
(dp1785
g2
(lp1786
((g4
g5
tI-1
tp1787
a((g27
g5
tI-1
tp1788
a((g29
g30
tI-1
tp1789
a((g32
g33
tI0
tp1790
a((g1271
g1272
tI0
tp1791
asg12
g1271
sg13
(dp1792
g15
Nsg16
g45
sg18
I1
ssg16
g19
sg18
I289
sg20
g1272
sg15
(dp1793
g15
(dp1794
g1277
(dp1795
g15
S'H4sIAAT4l0YC/53OsQrCMBQF0P3+SLIY0lbBQXDOksGsgjRpCoJNQ/oC5u99VL/A4Q6Pe7i8kOqS\nmwpriWqpL3qOpYwNjxLDmjYqNRByBxl2hzR9+9xDGg1ywgvQLQ98sjI96CcnajkiHyGdmM8CrFkw\nPTEb4MRFwFprDh328Jg3WnNxf2v9X2Z95W+8+gDYoI1C1QAAAA==\n'
p1796
sg16
g119
sg18
I296
ssg1280
I01
sg1281
(dp1797
g2
(lp1798
((g4
g5
tI-1
tp1799
a((g7
g5
tI-1
tp1800
a((g73
g74
tI-1
tp1801
a((g76
g77
tI-1
tp1802
a((g79
g80
tI-1
tp1803
a((g1289
g1290
tI-1
tp1804
a((g1292
g1293
tI-1
tp1805
asg12
g1292
sg13
(dp1806
g15
Nsg16
g45
sg18
I8
ssg16
g19
sg18
I297
sg20
g1293
sg15
(dp1807
g15
(dp1808
g1298
I2
sg201
g1299
sg1300
(dp1809
g15
S'H4sIAAT4l0YC/33OMQvCMBAF4P39kWQxpK2Cg+CcJYNZBWnSFASbhngB8+89qqM4vOF4H48LqS65\nqbCWqJb6oPtYythwKzGs6UmlBkLuIMPmkKZPn3tIo0FOeAG65IFPVqYHfeVELUfkPaQT81GANQum\nB2YDnDgJWGvNrsMWHvNGay6uL61/Z9bnvyW/4tUbw9sFJ9IAAAA=\n'
p1810
sg16
g119
sg18
I299
ssg1303
(dp1811
g15
S'H4sIAAT4l0YC/53OsQrCMBQF0P3+SLIY0lbBQXDOksGsgjRpCoJNQ/oC5u99VL/A4Q6Pe7i8kOqS\nmwpriWqpL3qOpYwNjxLDmjYqNRByBxl2hzR9+9xDGg1ywgvQLQ98sjI96CcnajkiHyGdmM8CrFkw\nPTEb4MRFwFprDh328Jg3WnNxf2v9X2Z95W+8+gDYoI1C1QAAAA==\n'
p1812
sg16
g119
sg18
I301
ssg1306
(dp1813
g15
S'H4sIAAT4l0YC/33OMQvCMBAF4P39kXSxpK3FCopzEDpY3ALSpBEKNg3xCum/96jODm94vI/jrF+m\nsOZ2ji6flheNfYz9ikd0dvZvioslhAKZ3Rz88N1DiUxJUCeMAN1CxZWVKkE/OdAaHMIeWSeejQBr\nFkxrZhU6cRJo21btCmzhY0ZJycNVJ9voJA9nnY7mrpOrL1zlv/ATJv8A/YiyW8wAAAA=\n'
p1814
sg16
g119
sg18
I300
ssg1309
I256
sg1310
g1311
sg126
I0
sg1312
I256
sg1313
(dp1815
g15
S'H4sIAAT4l0YC/33OMQvCMBAF4P39kWQxpK2Cg+CcJYNZBWnSFASbhngB8+89qqM4vOF4H48LqS65\nqbCWqJb6oPtYythwKzGs6UmlBkLuIMPmkKZPn3tIo0FOeAG65IFPVqYHfeVELUfkPaQT81GANQum\nB2YDnDgJWGvNrsMWHvNGay6uL61/Z9bnvyW/4tUbw9sFJ9IAAAA=\n'
p1816
sg16
g119
sg18
I302
ssg1316
I0
sg1317
(dp1817
g15
S'H4sIAAT4l0YC/33OMQvCMBAF4P39kWQxpK2Cg+CcJYNZBWnSFASbhngB8+89qqM4vOF4H48LqS65\nqbCWqJb6oPtYythwKzGs6UmlBkLuIMPmkKZPn3tIo0FOeAG65IFPVqYHfeVELUfkPaQT81GANQum\nB2YDnDgJWGvNrsMWHvNGay6uL61/Z9bnvyW/4tUbw9sFJ9IAAAA=\n'
p1818
sg16
g119
sg18
I303
ssg110
I0
sg1320
F1
sg1321
g1322
sg121
I0
ssg16
g134
sg18
I298
sssg1323
(dp1819
g2
(lp1820
((g4
g5
tI-1
tp1821
a((g7
g5
tI-1
tp1822
a((g73
g74
tI-1
tp1823
a((g76
g77
tI-1
tp1824
a((g79
g80
tI-1
tp1825
a((g1197
g1198
tI-1
tp1826
asg12
g1197
sg13
(dp1827
g15
Nsg16
g45
sg18
I8
ssg16
g19
sg18
I291
sg20
g1198
sg15
(dp1828
g15
(dp1829
g163
F1
sg1203
g1204
sg1205
I12
sg204
F0
sg1206
F0
sg1207
I1
sg1208
g1335
sg1210
I0
sg126
I0
sg1211
F1.1000000000000001
sg741
(dp1830
g15
Nsg16
g45
sg18
I19
ssg1213
I1
sg1214
(dp1831
g15
S'H4sIAAT4l0YC/03NsQrDIBDG8f17EV0qmqRbX8DFoa6FEo2BQJOIPaG+fY+00A7/4bgfd3Gra24q\n7iWptT5oGUsZG+4lxX17UqmRkA1kPBy26bPPHaTVIC+CAF1zzyMr24G+cqKWE/IA6cUyCLBmwfTM\nrIcXFwHnnD0ZHPGxYLXmxe2lDad/zfN//DCoN80p7hW4AAAA\n'
p1832
sg16
g119
sg18
I293
ssg110
I0
sg1217
I1
sg1218
I0
sg1220
g1221
sg121
I0
sg1222
I1
ssg16
g134
sg18
I292
sssg1339
(dp1833
g2
(lp1834
((g4
g5
tI-1
tp1835
a((g7
g5
tI-1
tp1836
a((g73
g74
tI-1
tp1837
a((g76
g77
tI-1
tp1838
a((g79
g80
tI-1
tp1839
a((g1197
g1198
tI-1
tp1840
asg12
g1197
sg13
(dp1841
g15
Nsg16
g45
sg18
I8
ssg16
g19
sg18
I304
sg20
g1198
sg15
(dp1842
g15
(dp1843
g163
F1
sg1203
g1204
sg1205
I12
sg204
F0
sg1206
F0
sg1207
I1
sg1208
g1335
sg1210
I0
sg126
I0
sg1211
F1.1000000000000001
sg741
(dp1844
g15
Nsg16
g45
sg18
I19
ssg1213
I1
sg1214
(dp1845
g15
S'H4sIAAT4l0YC/03NsQrDIBDG8f17EV0qmqRbX8DFoa6FEo2BQJOIPaG+fY+00A7/4bgfd3Gra24q\n7iWptT5oGUsZG+4lxX17UqmRkA1kPBy26bPPHaTVIC+CAF1zzyMr24G+cqKWE/IA6cUyCLBmwfTM\nrIcXFwHnnD0ZHPGxYLXmxe2lDad/zfN//DCoN80p7hW4AAAA\n'
p1846
sg16
g119
sg18
I306
ssg110
I0
sg1217
I1
sg1218
I0
sg1220
g1221
sg121
I0
sg1222
I1
ssg16
g134
sg18
I305
sssg1354
(dp1847
g2
(lp1848
((g4
g5
tI-1
tp1849
a((g7
g5
tI-1
tp1850
a((g73
g74
tI-1
tp1851
a((g76
g77
tI-1
tp1852
a((g79
g80
tI-1
tp1853
a((g699
g700
tI-1
tp1854
a((g1363
g1364
tI-1
tp1855
asg12
g1363
sg13
(dp1856
g15
Nsg16
g45
sg18
I8
ssg16
g19
sg18
I294
sg20
g1364
sg15
(dp1857
g15
(dp1858
g708
S'i'
sg709
I0
sg126
I0
sg710
F0.55000001192092896
sg121
I0
sg711
I0
sg712
I0
sg110
I0
sg713
I0
ssg16
g134
sg18
I295
sssg1043
S''
sg1369
g1490
sg1371
(dp1859
g15
Nsg16
g45
sg18
I296
ssg50
S''
sg1312
I256
sg1373
g1490
sg48
S''
sg1375
I01
sg1376
I8
sg1377
I00
sg1378
(dp1860
g2
(lp1861
((g4
g5
tI-1
tp1862
a((g7
g5
tI-1
tp1863
a((g73
g74
tI-1
tp1864
a((g76
g77
tI-1
tp1865
a((g79
g80
tI-1
tp1866
a((g187
g188
tI-1
tp1867
a((g1387
g1388
tI-1
tp1868
a((g1390
g1391
tI-1
tp1869
asg12
g1390
sg13
(dp1870
g15
Nsg16
g45
sg18
I8
ssg16
g19
sg18
I307
sg20
g1391
sg15
(dp1871
g15
(dp1872
g126
I0
sg215
I1
sg204
g1396
sg1397
F0.80000000000000004
sg1398
S'%-#6.3g'
p1873
sg1376
I8
sg207
I1
sg208
I1
sg209
I1
sg210
I1
sg121
I0
sg1400
I256
sg1401
I0
sg1402
(dp1874
g15
S'H4sIAAT4l0YC/2XOMQuDMBAF4P39kWSpaGxAoeCcxaGugaIxQqFqSC8Q/30P263DGx7v4zi3pTUc\nhdujL9b0oucY43jgEb3btzfF5AihgnSnwzZ/96AgTQkaxCRA91BzZWUU6CdnOoJHuEIOYmkEWLNg\nqpnVGMRNoO97c6lwho9Npix5sLkdOe1/fNvZ7GqbFy2ttblZuCqO7viLqfgAbt3QTs0AAAA=\n'
p1875
sg16
g119
sg18
I310
ssg211
I1
sg212
(dp1876
g15
S'H4sIAAT4l0YC/2XOMQuDMBAF4P39kbhUjFpQKDiWLA51DZQkplCoGtITYvvne9huHd5wvI/HuXmd\nwpa7Jfp8Wh90NzGaDdfo3TI/Ka6OECQytzvM47cPJTJVgAZhBegSKj5ZqRL0kyNtwSPUyAZxawRY\ns2B6ZFZhECeBvu/VQWIPj1lVFFzo1BpO+x/bdm+dZK2T8WedvHzp1NQdf2DzD7ndMtDJAAAA\n'
p1877
sg16
g119
sg18
I309
ssg1407
F0.17000000000000001
sg110
I0
sg1408
I0
ssg16
g134
sg18
I308
sssg1409
(dp1878
g15
S'H4sIAAT4l0YC/53OsQrCMBQF0P3+SLIY0lbBQXDOksGsgjRpCoJNQ/oC5u99VL/A4Q6Pe7i8kOqS\nmwpriWqpL3qOpYwNjxLDmjYqNRByBxl2hzR9+9xDGg1ywgvQLQ98sjI96CcnajkiHyGdmM8CrFkw\nPTEb4MRFwFprDh328Jg3WnNxf2v9X2Z95W+8+gDYoI1C1QAAAA==\n'
p1879
sg16
g119
sg18
I311
ssg1218
I00
sg1412
g1413
sg1414
I00
ssg16
g134
sg18
I290
ssssg16
g134
sg18
I242
ssasg16
g267
sg18
I240
sssg16
g134
sg18
I239
ssa(dp1880
g2
(lp1881
((g4
g5
tI-1
tp1882
a((g27
g5
tI-1
tp1883
a((g29
g30
tI-1
tp1884
a((g32
g33
tI0
tp1885
a((g35
g36
tI0
tp1886
a((g998
g999
tI0
tp1887
a((g1520
g1521
tI0
tp1888
a((S'FilterBase'
p1889
S'enthought.mayavi.filters.filter_base'
p1890
tI0
tp1891
a((S'CellToPointData'
p1892
S'enthought.mayavi.filters.cell_to_point_data'
p1893
tI0
tp1894
asg12
g1892
sg13
(dp1895
g15
Nsg16
g45
sg18
I1
ssg16
g19
sg18
I314
sg20
g1893
sg15
(dp1896
g15
(dp1897
S'filter'
p1898
(dp1899
g2
(lp1900
((g4
g5
tI-1
tp1901
a((g7
g5
tI-1
tp1902
a((g73
g74
tI-1
tp1903
a((g76
g77
tI-1
tp1904
a((g79
g80
tI-1
tp1905
a((g82
g83
tI-1
tp1906
a((S'DataSetAlgorithm'
p1907
S'tvtk_classes.data_set_algorithm'
p1908
tI-1
tp1909
a((S'CellDataToPointData'
p1910
S'tvtk_classes.cell_data_to_point_data'
p1911
tI-1
tp1912
asg12
g1910
sg13
(dp1913
g15
Nsg16
g45
sg18
I8
ssg16
g19
sg18
I316
sg20
g1911
sg15
(dp1914
g15
(dp1915
S'pass_cell_data'
p1916
I0
sg124
I0
sg130
I0
sg126
I0
sg121
I0
sg113
I0
sg114
I0
sg110
I0
sg115
F1
sS'pass_cell_data_'
p1917
I0
ssg16
g134
sg18
I317
sssg48
S''
sg50
S''
sg988
(dp1918
g15
(lp1919
(dp1920
g2
(lp1921
((g4
g5
tI-1
tp1922
a((g27
g5
tI-1
tp1923
a((g29
g30
tI-1
tp1924
a((g32
g33
tI0
tp1925
a((g1069
g1070
tI0
tp1926
asg12
g1069
sg13
(dp1927
g15
Nsg16
g45
sg18
I1
ssg16
g19
sg18
I319
sg20
g1070
sg15
(dp1928
g15
(dp1929
g50
S''
sg1075
g1076
sg988
(dp1930
g15
(lp1931
(dp1932
g2
(lp1933
((g4
g5
tI-1
tp1934
a((g27
g5
tI-1
tp1935
a((g29
g30
tI-1
tp1936
a((g32
g33
tI0
tp1937
a((g35
g36
tI0
tp1938
a((g38
g39
tI0
tp1939
a((S'IsoSurface'
p1940
S'enthought.mayavi.modules.iso_surface'
p1941
tI0
tp1942
asg12
g1940
sg13
(dp1943
g15
Nsg16
g45
sg18
I1
ssg16
g19
sg18
I322
sg20
g1941
sg15
(dp1944
g15
(dp1945
g50
S''
sg259
I00
sg51
(dp1946
g2
(lp1947
((g4
g5
tI-1
tp1948
a((g27
g5
tI-1
tp1949
a((g29
g30
tI-1
tp1950
a((g32
g33
tI0
tp1951
a((g35
g36
tI0
tp1952
a((g59
g60
tI0
tp1953
a((g62
g63
tI0
tp1954
asg12
g62
sg13
(dp1955
g15
Nsg16
g45
sg18
I1
ssg16
g19
sg18
I324
sg20
g63
sg15
(dp1956
g15
(dp1957
g68
(dp1958
g2
(lp1959
((g4
g5
tI-1
tp1960
a((g7
g5
tI-1
tp1961
a((g73
g74
tI-1
tp1962
a((g76
g77
tI-1
tp1963
a((g79
g80
tI-1
tp1964
a((g82
g83
tI-1
tp1965
a((g85
g86
tI-1
tp1966
a((g88
g89
tI-1
tp1967
a((g91
g92
tI-1
tp1968
a((g375
g376
tI-1
tp1969
asg12
g375
sg13
(dp1970
g15
Nsg16
g45
sg18
I8
ssg16
g19
sg18
I326
sg20
g376
sg15
(dp1971
g15
(dp1972
g101
I0
sg102
I0
sg103
g104
sg105
I0
sg126
I0
sg107
F0.01
sg381
I0
sg108
g104
sg109
I0
sg110
I0
sg111
I0
sg112
I1
sg113
I0
sg114
I0
sg115
F1
sg116
(dp1973
g15
S'H4sIAAX4l0YC/53OsQrCMBQF0P3+SLIY0lbBQXDOksGsgjRpCoJNQ/oC5u99VL/A4Q6Pe7i8kOqS\nmwpriWqpL3qOpYwNjxLDmjYqNRByBxl2hzR9+9xDGg1ywgvQLQ98sjI96CcnajkiHyGdmM8CrFkw\nPTEb4MRFwFprDh328Jg3WnNxf2v9X2Z95W+8+gDYoI1C1QAAAA==\n'
p1974
sg16
g119
sg18
I328
ssg120
I1
sg121
I0
sg122
I0
sg123
I1
sg124
I0
sg125
I1
sg106
I0
sg131
I0
sg127
I0
sg384
I1
sg132
g104
sg130
I0
sg385
I0
sg386
I1
sg128
g129
sg133
F0
ssg16
g134
sg18
I327
sssg48
S''
sg135
(dp1975
g2
(lp1976
((g4
g5
tI-1
tp1977
a((g7
g5
tI-1
tp1978
a((g73
g74
tI-1
tp1979
a((g76
g77
tI-1
tp1980
a((g79
g80
tI-1
tp1981
a((g143
g144
tI-1
tp1982
a((g146
g147
tI-1
tp1983
asg12
g146
sg13
(dp1984
g15
Nsg16
g45
sg18
I8
ssg16
g19
sg18
I335
sg20
g147
sg15
(dp1985
g15
(dp1986
g152
(dp1987
g15
Nsg16
g45
sg18
I19
ssg154
I0
sg155
F1
sg156
(dp1988
g15
Nsg16
g45
sg18
I19
ssg159
F0
sg160
I0
sg161
g162
sg163
F1
sg164
I0
sg165
F1
sg172
I0
sg168
(dp1989
g15
Nsg16
g45
sg18
I19
ssg121
I0
sg170
I0
sg166
(dp1990
g15
Nsg16
g45
sg18
I19
ssg171
F1
sg179
F1
sg126
I0
sg173
F0
sg174
I0
sS'representation_'
p1991
I0
sg175
I65535
sg110
I0
sg176
S'points'
p1992
sg178
I1
ssg16
g134
sg18
I336
sssg50
S''
sg51
(dp1993
g2
(lp1994
((g4
g5
tI-1
tp1995
a((g7
g5
tI-1
tp1996
a((g73
g74
tI-1
tp1997
a((g76
g77
tI-1
tp1998
a((g79
g80
tI-1
tp1999
a((g187
g188
tI-1
tp2000
a((g190
g191
tI-1
tp2001
a((g62
g193
tI-1
tp2002
asg12
g62
sg13
(dp2003
g15
Nsg16
g45
sg18
I8
ssg16
g19
sg18
I329
sg20
g193
sg15
(dp2004
g15
(dp2005
g198
(dp2006
g15
S'H4sIAAX4l0YC/7XOMQoCMRAF0P5fJGkMWVfBwguk2cK0gmyyEQQ3O8QJmNs7RK9g8YvhPz4Tc12p\nmbiVZNb65MdcytxwKylu+cWlRgYN0LE75OXb0x7aWbBXQYEvNMopyo3gn1y4UQIdoL26nxREixB6\n7Myrs8I0TW43oEfGgrNWiuvb2n9GHg7mAy0aBDD4AAAA\n'
p2007
sg16
g119
sg18
I331
ssg201
(dp2008
g15
S'H4sIAAX4l0YC/53OMQvCMBAF4P39kWQxpFbBQXDOksGsgjRpCoJtQ3oB8+89oqOTwxuO9/G4sJQ5\nVRXWHNVcnvQYch4q7jmGddkol0BIHWRoDsv46dMe0miQE16Arqnnk5XpQV85Uk0R6QDpxHQSYM2C\n6bExJ84C1lqz69DCY95ozcXtpfXvTPryf8l/evUGx/o6Le8AAAA=\n'
p2009
sg16
g119
sg18
I333
ssg204
(dp2010
g15
S'H4sIAAX4l0YC/53OsQoCMRAE0H5+JGkMOU/hCn8gTQrTCnLJRRC8XIgbMH/vEu0FiymWeQwbUl1z\nU2ErUa31Qfe5lLnhWmLY0pNKDYQ8QIbukJZPn/eQRoOc8AJ0ziOfrMwI+sqFWo7IB0gnbpMAaxZM\nj505cRKw1prdgB4e80ZrLi4vrf/P9NPww169AaZN3yn4AAAA\n'
p2011
sg16
g119
sg18
I332
ssg110
I0
sg207
I1
sg208
I1
sg209
I1
sg210
I1
sg121
I0
sg126
I0
sg211
I1
sg212
(dp2012
g15
S'H4sIAAX4l0YC/7XOMQoCMRAF0P5fJGkMWVfBwguk2cK0gmyyEQQ3O8QJmNs7RK9g8YvhPz4Tc12p\nmbiVZNb65MdcytxwKylu+cWlRgYN0LE75OXb0x7aWbBXQYEvNMopyo3gn1y4UQIdoL26nxREixB6\n7Myrs8I0TW43oEfGgrNWiuvb2n9GHg7mAy0aBDD4AAAA\n'
p2013
sg16
g119
sg18
I334
ssg215
I1
ssg16
g134
sg18
I330
ssssg16
g134
sg18
I325
sssg48
S''
sS'normals'
p2014
(dp2015
g2
(lp2016
((g4
g5
tI-1
tp2017
a((g27
g5
tI-1
tp2018
a((g29
g30
tI-1
tp2019
a((g32
g33
tI0
tp2020
a((g35
g36
tI0
tp2021
a((g59
g60
tI0
tp2022
a((S'PolyDataNormals'
p2023
S'enthought.mayavi.components.poly_data_normals'
p2024
tI0
tp2025
asg12
g2023
sg13
(dp2026
g15
Nsg16
g45
sg18
I1
ssg16
g19
sg18
I337
sg20
g2024
sg15
(dp2027
g15
(dp2028
g1898
(dp2029
g2
(lp2030
((g4
g5
tI-1
tp2031
a((g7
g5
tI-1
tp2032
a((g73
g74
tI-1
tp2033
a((g76
g77
tI-1
tp2034
a((g79
g80
tI-1
tp2035
a((g82
g83
tI-1
tp2036
a((g245
g246
tI-1
tp2037
a((g2023
S'tvtk_classes.poly_data_normals'
p2038
tI-1
tp2039
asg12
g2023
sg13
(dp2040
g15
Nsg16
g45
sg18
I8
ssg16
g19
sg18
I339
sg20
g2038
sg15
(dp2041
g15
(dp2042
S'flip_normals_'
p2043
I0
sS'compute_cell_normals'
p2044
I0
sS'splitting'
p2045
I1
sS'flip_normals'
p2046
I0
sS'compute_point_normals'
p2047
I1
sS'compute_cell_normals_'
p2048
I0
sS'consistency_'
p2049
I1
sS'auto_orient_normals_'
p2050
I0
sS'compute_point_normals_'
p2051
I1
sS'auto_orient_normals'
p2052
I0
sg113
I0
sg114
I0
sg115
F1
sg130
I0
sS'splitting_'
p2053
I1
sg121
I0
sg124
I0
sS'non_manifold_traversal'
p2054
I1
sg126
I0
sS'consistency'
p2055
I1
sg110
I0
sS'non_manifold_traversal_'
p2056
I1
sS'feature_angle'
p2057
F95
ssg16
g134
sg18
I340
sssg48
S''
sg50
S''
ssg16
g134
sg18
I338
sssg216
(dp2058
g2
(lp2059
((g4
g5
tI-1
tp2060
a((g27
g5
tI-1
tp2061
a((g29
g30
tI-1
tp2062
a((g32
g33
tI0
tp2063
a((g35
g36
tI0
tp2064
a((g59
g60
tI0
tp2065
a((g225
g226
tI0
tp2066
asg12
g225
sg13
(dp2067
g15
Nsg16
g45
sg18
I1
ssg16
g19
sg18
I341
sg20
g226
sg15
(dp2068
g15
(dp2069
g50
S''
sg231
I01
sg232
(dp2070
g15
(F1.1085990374721434e-17
F5.9326697510186932e-07
tp2071
sg16
g17
sg18
I343
ssg234
I00
sg235
F1.1085990374721434e-17
sg48
S''
sg236
(dp2072
g2
(lp2073
((g4
g5
tI-1
tp2074
a((g7
g5
tI-1
tp2075
a((g73
g74
tI-1
tp2076
a((g76
g77
tI-1
tp2077
a((g79
g80
tI-1
tp2078
a((g82
g83
tI-1
tp2079
a((g245
g246
tI-1
tp2080
a((g248
g249
tI-1
tp2081
asg12
g248
sg13
(dp2082
g15
Nsg16
g45
sg18
I8
ssg16
g19
sg18
I344
sg20
g249
sg15
(dp2083
g15
(dp2084
g254
I0
sg121
I0
sg255
I0
sg256
I1
sg257
I0
sg124
I0
sg258
I1
sg259
I1
sg260
I1
sg261
I0
sg262
I0
sg113
I0
sg126
I0
sg114
I0
sg130
I0
sg115
F1
sg263
I8
sg110
I0
ssg16
g134
sg18
I345
sssg264
(dp2085
g15
(lp2086
F5.9326697510186932e-07
asg16
g267
sg18
I346
ssg268
(dp2087
g2
(lp2088
((g4
g5
tI-1
tp2089
a((g7
g5
tI-1
tp2090
a((g73
g74
tI-1
tp2091
a((g76
g77
tI-1
tp2092
a((g79
g80
tI-1
tp2093
a((g82
g83
tI-1
tp2094
a((g245
g246
tI-1
tp2095
a((g278
g279
tI-1
tp2096
asg12
g278
sg13
(dp2097
g15
Nsg16
g45
sg18
I8
ssg16
g19
sg18
I347
sg20
g279
sg15
(dp2098
g15
(dp2099
g126
I0
sg284
I1
sg124
I0
sg285
I1
sg103
g286
sg287
I0
sg110
I0
sg121
I0
sg113
I0
sg288
I1
sg114
I0
sg130
I0
sg115
F0
sg263
I1
sg289
I0
ssg16
g134
sg18
I348
sssg290
I00
sg263
I8
sg291
F5.9326697510186932e-07
ssg16
g134
sg18
I342
ssssg16
g134
sg18
I323
ssasg16
g267
sg18
I321
ssg48
S''
sg1264
(dp2100
g2
(lp2101
((g4
g5
tI-1
tp2102
a((g27
g5
tI-1
tp2103
a((g29
g30
tI-1
tp2104
a((g32
g33
tI0
tp2105
a((g1271
g1272
tI0
tp2106
asg12
g1271
sg13
(dp2107
g15
Nsg16
g45
sg18
I1
ssg16
g19
sg18
I349
sg20
g1272
sg15
(dp2108
g15
(dp2109
g1277
(dp2110
g15
S'H4sIAAX4l0YC/1XOMQuDMBAF4P39kbhUomnBgnTPkqFZhaIxglA1xAvov+/VFkqHx3G8j+PcnKaw\n526JPp/Sk8Y2xnbHI3q3zCvF5AihQOYOh7n/9KFEpiXIik6A7kHxykqXoK/saQ8e4YzMiqESYM2C\n6YWZghW1gDFGnwoc4WOdlpKLZpPyl+o9VbNd5Vj/N55TDDyrZmvVjf/o8hfkDhDHzwAAAA==\n'
p2111
sg16
g119
sg18
I356
ssg1280
I01
sg1281
(dp2112
g2
(lp2113
((g4
g5
tI-1
tp2114
a((g7
g5
tI-1
tp2115
a((g73
g74
tI-1
tp2116
a((g76
g77
tI-1
tp2117
a((g79
g80
tI-1
tp2118
a((g1289
g1290
tI-1
tp2119
a((g1292
g1293
tI-1
tp2120
asg12
g1292
sg13
(dp2121
g15
Nsg16
g45
sg18
I8
ssg16
g19
sg18
I357
sg20
g1293
sg15
(dp2122
g15
(dp2123
g1298
I2
sg201
g1299
sg1300
(dp2124
g15
S'H4sIAAX4l0YC/33OMQvCMBAF4P39kWQxpK2Cg+CcJYNZBWnSFASbhngB8+89qqM4vOF4H48LqS65\nqbCWqJb6oPtYythwKzGs6UmlBkLuIMPmkKZPn3tIo0FOeAG65IFPVqYHfeVELUfkPaQT81GANQum\nB2YDnDgJWGvNrsMWHvNGay6uL61/Z9bnvyW/4tUbw9sFJ9IAAAA=\n'
p2125
sg16
g119
sg18
I359
ssg1303
(dp2126
g15
S'H4sIAAX4l0YC/1XOMQuDMBAF4P39kbhUomnBgnTPkqFZhaIxglA1xAvov+/VFkqHx3G8j+PcnKaw\n526JPp/Sk8Y2xnbHI3q3zCvF5AihQOYOh7n/9KFEpiXIik6A7kHxykqXoK/saQ8e4YzMiqESYM2C\n6YWZghW1gDFGnwoc4WOdlpKLZpPyl+o9VbNd5Vj/N55TDDyrZmvVjf/o8hfkDhDHzwAAAA==\n'
p2127
sg16
g119
sg18
I361
ssg1306
(dp2128
g15
S'H4sIAAX4l0YC/33OMQvCMBAF4P39kXSxpK3FCopzEDpY3ALSpBEKNg3xCum/96jODm94vI/jrF+m\nsOZ2ji6flheNfYz9ikd0dvZvioslhAKZ3Rz88N1DiUxJUCeMAN1CxZWVKkE/OdAaHMIeWSeejQBr\nFkxrZhU6cRJo21btCmzhY0ZJycNVJ9voJA9nnY7mrpOrL1zlv/ATJv8A/YiyW8wAAAA=\n'
p2129
sg16
g119
sg18
I360
ssg1309
I256
sg1310
g1311
sg126
I0
sg1312
I256
sg1313
(dp2130
g15
S'H4sIAAX4l0YC/33OMQvCMBAF4P39kWQxpK2Cg+CcJYNZBWnSFASbhngB8+89qqM4vOF4H48LqS65\nqbCWqJb6oPtYythwKzGs6UmlBkLuIMPmkKZPn3tIo0FOeAG65IFPVqYHfeVELUfkPaQT81GANQum\nB2YDnDgJWGvNrsMWHvNGay6uL61/Z9bnvyW/4tUbw9sFJ9IAAAA=\n'
p2131
sg16
g119
sg18
I362
ssg1316
I0
sg1317
(dp2132
g15
S'H4sIAAX4l0YC/33OMQvCMBAF4P39kWQxpK2Cg+CcJYNZBWnSFASbhngB8+89qqM4vOF4H48LqS65\nqbCWqJb6oPtYythwKzGs6UmlBkLuIMPmkKZPn3tIo0FOeAG65IFPVqYHfeVELUfkPaQT81GANQum\nB2YDnDgJWGvNrsMWHvNGay6uL61/Z9bnvyW/4tUbw9sFJ9IAAAA=\n'
p2133
sg16
g119
sg18
I363
ssg110
I0
sg1320
F1
sg1321
g1322
sg121
I0
ssg16
g134
sg18
I358
sssg1323
(dp2134
g2
(lp2135
((g4
g5
tI-1
tp2136
a((g7
g5
tI-1
tp2137
a((g73
g74
tI-1
tp2138
a((g76
g77
tI-1
tp2139
a((g79
g80
tI-1
tp2140
a((g1197
g1198
tI-1
tp2141
asg12
g1197
sg13
(dp2142
g15
Nsg16
g45
sg18
I8
ssg16
g19
sg18
I351
sg20
g1198
sg15
(dp2143
g15
(dp2144
g163
F1
sg1203
g1204
sg1205
I12
sg204
F0
sg1206
F0
sg1207
I1
sg1208
g1335
sg1210
I0
sg126
I0
sg1211
F1.1000000000000001
sg741
(dp2145
g15
Nsg16
g45
sg18
I19
ssg1213
I1
sg1214
(dp2146
g15
S'H4sIAAX4l0YC/03NsQrDIBDG8f17EV0qmqRbX8DFoa6FEo2BQJOIPaG+fY+00A7/4bgfd3Gra24q\n7iWptT5oGUsZG+4lxX17UqmRkA1kPBy26bPPHaTVIC+CAF1zzyMr24G+cqKWE/IA6cUyCLBmwfTM\nrIcXFwHnnD0ZHPGxYLXmxe2lDad/zfN//DCoN80p7hW4AAAA\n'
p2147
sg16
g119
sg18
I353
ssg110
I0
sg1217
I1
sg1218
I0
sg1220
g1221
sg121
I0
sg1222
I1
ssg16
g134
sg18
I352
sssg1339
(dp2148
g2
(lp2149
((g4
g5
tI-1
tp2150
a((g7
g5
tI-1
tp2151
a((g73
g74
tI-1
tp2152
a((g76
g77
tI-1
tp2153
a((g79
g80
tI-1
tp2154
a((g1197
g1198
tI-1
tp2155
asg12
g1197
sg13
(dp2156
g15
Nsg16
g45
sg18
I8
ssg16
g19
sg18
I364
sg20
g1198
sg15
(dp2157
g15
(dp2158
g163
F1
sg1203
g1204
sg1205
I12
sg204
F0
sg1206
F0
sg1207
I1
sg1208
g1335
sg1210
I0
sg126
I0
sg1211
F1.1000000000000001
sg741
(dp2159
g15
Nsg16
g45
sg18
I19
ssg1213
I1
sg1214
(dp2160
g15
S'H4sIAAX4l0YC/03NsQrDIBDG8f17EV0qmqRbX8DFoa6FEo2BQJOIPaG+fY+00A7/4bgfd3Gra24q\n7iWptT5oGUsZG+4lxX17UqmRkA1kPBy26bPPHaTVIC+CAF1zzyMr24G+cqKWE/IA6cUyCLBmwfTM\nrIcXFwHnnD0ZHPGxYLXmxe2lDad/zfN//DCoN80p7hW4AAAA\n'
p2161
sg16
g119
sg18
I366
ssg110
I0
sg1217
I1
sg1218
I0
sg1220
g1221
sg121
I0
sg1222
I1
ssg16
g134
sg18
I365
sssg1354
(dp2162
g2
(lp2163
((g4
g5
tI-1
tp2164
a((g7
g5
tI-1
tp2165
a((g73
g74
tI-1
tp2166
a((g76
g77
tI-1
tp2167
a((g79
g80
tI-1
tp2168
a((g699
g700
tI-1
tp2169
a((g1363
g1364
tI-1
tp2170
asg12
g1363
sg13
(dp2171
g15
Nsg16
g45
sg18
I8
ssg16
g19
sg18
I354
sg20
g1364
sg15
(dp2172
g15
(dp2173
g708
S'i'
sg709
I1
sg126
I0
sg710
F0.55000001192092896
sg121
I0
sg711
I0
sg712
I1
sg110
I0
sg713
I0
ssg16
g134
sg18
I355
sssg1043
S''
sg1369
VResiduals
p2174
sg1371
(dp2175
g15
Nsg16
g45
sg18
I356
ssg50
S''
sg1312
I256
sg1373
S'LocalResiduals'
p2176
sg48
S''
sg1375
I01
sg1376
I8
sg1377
I01
sg1378
(dp2177
g2
(lp2178
((g4
g5
tI-1
tp2179
a((g7
g5
tI-1
tp2180
a((g73
g74
tI-1
tp2181
a((g76
g77
tI-1
tp2182
a((g79
g80
tI-1
tp2183
a((g187
g188
tI-1
tp2184
a((g1387
g1388
tI-1
tp2185
a((g1390
g1391
tI-1
tp2186
asg12
g1390
sg13
(dp2187
g15
Nsg16
g45
sg18
I8
ssg16
g19
sg18
I367
sg20
g1391
sg15
(dp2188
g15
(dp2189
g126
I0
sg215
I1
sg204
S'vertical'
p2190
sg1397
F0.081237016052879252
sg1398
S'%-#6.3g'
p2191
sg1376
I8
sg207
I1
sg208
I1
sg209
I1
sg210
I1
sg121
I0
sg1400
I256
sg1401
I1
sg1402
(dp2192
g15
S'H4sIAAX4l0YC/y2OzQqDMBCE7/siEUol/mEPBc+5eKjXQJvECIWqIV0hvn2ntoeZZWc+lnXLNoc9\nd2v0+by9+GliNDvdo3fr8ua4OaZQUOYOjpbx14eSMiWJB2EF8S1UWEGpkvhPjrwHT6GmbBDTRRBo\nEEAbYBUN4iqo73t1LugQjlklJYqHTlN7+hpU6uSsTrbuYAhshbDBNDoZFF5CbYcnbP4BCYROoMwA\nAAA=\n'
p2193
sg16
g119
sg18
I370
ssg211
I1
sg212
(dp2194
g15
S'H4sIAAX4l0YC/y2NMQuDMBSE9/dH4lKJsQWFgnMWh7oGiokJFKqG+IQ49L/3sB3u4N59vHPLPsej\ndGvy5by/+TWmNB70TN6ty8Zpd0yxosKdHC3Tr4+KCi2JB2EF8SPWiKC0Iv6TEx/RU7xSMYjQCAIN\nAugNWE2DuAvq+15fKjqFZ1ZLicJkqUxuxo/JlTXZhwbmugCXhk2ecGyRAmTbDvu2/AJXUDG1xwAA\nAA==\n'
p2195
sg16
g119
sg18
I369
ssg1407
F0.74617563739376791
sg110
I0
sg1408
I0
ssg16
g134
sg18
I368
sssg1409
(dp2196
g15
S'H4sIAAX4l0YC/53OsQrCMBQF0P3+SLIY0lbBQXDOksGsgjRpCoJNQ/oC5u99VL/A4Q6Pe7i8kOqS\nmwpriWqpL3qOpYwNjxLDmjYqNRByBxl2hzR9+9xDGg1ywgvQLQ98sjI96CcnajkiHyGdmM8CrFkw\nPTEb4MRFwFprDh328Jg3WnNxf2v9X2Z95W+8+gDYoI1C1QAAAA==\n'
p2197
sg16
g119
sg18
I371
ssg1218
I00
sg1412
g1413
sg1414
I00
ssg16
g134
sg18
I350
sssg1415
(dp2198
g2
(lp2199
((g4
g5
tI-1
tp2200
a((g27
g5
tI-1
tp2201
a((g29
g30
tI-1
tp2202
a((g32
g33
tI0
tp2203
a((g1271
g1272
tI0
tp2204
asg12
g1271
sg13
(dp2205
g15
Nsg16
g45
sg18
I1
ssg16
g19
sg18
I372
sg20
g1272
sg15
(dp2206
g15
(dp2207
g1277
(dp2208
g15
S'H4sIAAX4l0YC/53OsQrCMBQF0P3+SLIY0lbBQXDOksGsgjRpCoJNQ/oC5u99VL/A4Q6Pe7i8kOqS\nmwpriWqpL3qOpYwNjxLDmjYqNRByBxl2hzR9+9xDGg1ywgvQLQ98sjI96CcnajkiHyGdmM8CrFkw\nPTEb4MRFwFprDh328Jg3WnNxf2v9X2Z95W+8+gDYoI1C1QAAAA==\n'
p2209
sg16
g119
sg18
I379
ssg1280
I01
sg1281
(dp2210
g2
(lp2211
((g4
g5
tI-1
tp2212
a((g7
g5
tI-1
tp2213
a((g73
g74
tI-1
tp2214
a((g76
g77
tI-1
tp2215
a((g79
g80
tI-1
tp2216
a((g1289
g1290
tI-1
tp2217
a((g1292
g1293
tI-1
tp2218
asg12
g1292
sg13
(dp2219
g15
Nsg16
g45
sg18
I8
ssg16
g19
sg18
I380
sg20
g1293
sg15
(dp2220
g15
(dp2221
g1298
I2
sg201
g1299
sg1300
(dp2222
g15
S'H4sIAAX4l0YC/33OMQvCMBAF4P39kWQxpK2Cg+CcJYNZBWnSFASbhngB8+89qqM4vOF4H48LqS65\nqbCWqJb6oPtYythwKzGs6UmlBkLuIMPmkKZPn3tIo0FOeAG65IFPVqYHfeVELUfkPaQT81GANQum\nB2YDnDgJWGvNrsMWHvNGay6uL61/Z9bnvyW/4tUbw9sFJ9IAAAA=\n'
p2223
sg16
g119
sg18
I382
ssg1303
(dp2224
g15
S'H4sIAAX4l0YC/53OsQrCMBQF0P3+SLIY0lbBQXDOksGsgjRpCoJNQ/oC5u99VL/A4Q6Pe7i8kOqS\nmwpriWqpL3qOpYwNjxLDmjYqNRByBxl2hzR9+9xDGg1ywgvQLQ98sjI96CcnajkiHyGdmM8CrFkw\nPTEb4MRFwFprDh328Jg3WnNxf2v9X2Z95W+8+gDYoI1C1QAAAA==\n'
p2225
sg16
g119
sg18
I384
ssg1306
(dp2226
g15
S'H4sIAAX4l0YC/33OMQvCMBAF4P39kXSxpK3FCopzEDpY3ALSpBEKNg3xCum/96jODm94vI/jrF+m\nsOZ2ji6flheNfYz9ikd0dvZvioslhAKZ3Rz88N1DiUxJUCeMAN1CxZWVKkE/OdAaHMIeWSeejQBr\nFkxrZhU6cRJo21btCmzhY0ZJycNVJ9voJA9nnY7mrpOrL1zlv/ATJv8A/YiyW8wAAAA=\n'
p2227
sg16
g119
sg18
I383
ssg1309
I256
sg1310
g1311
sg126
I0
sg1312
I256
sg1313
(dp2228
g15
S'H4sIAAX4l0YC/33OMQvCMBAF4P39kWQxpK2Cg+CcJYNZBWnSFASbhngB8+89qqM4vOF4H48LqS65\nqbCWqJb6oPtYythwKzGs6UmlBkLuIMPmkKZPn3tIo0FOeAG65IFPVqYHfeVELUfkPaQT81GANQum\nB2YDnDgJWGvNrsMWHvNGay6uL61/Z9bnvyW/4tUbw9sFJ9IAAAA=\n'
p2229
sg16
g119
sg18
I385
ssg1316
I0
sg1317
(dp2230
g15
S'H4sIAAX4l0YC/33OMQvCMBAF4P39kWQxpK2Cg+CcJYNZBWnSFASbhngB8+89qqM4vOF4H48LqS65\nqbCWqJb6oPtYythwKzGs6UmlBkLuIMPmkKZPn3tIo0FOeAG65IFPVqYHfeVELUfkPaQT81GANQum\nB2YDnDgJWGvNrsMWHvNGay6uL61/Z9bnvyW/4tUbw9sFJ9IAAAA=\n'
p2231
sg16
g119
sg18
I386
ssg110
I0
sg1320
F1
sg1321
g1322
sg121
I0
ssg16
g134
sg18
I381
sssg1323
(dp2232
g2
(lp2233
((g4
g5
tI-1
tp2234
a((g7
g5
tI-1
tp2235
a((g73
g74
tI-1
tp2236
a((g76
g77
tI-1
tp2237
a((g79
g80
tI-1
tp2238
a((g1197
g1198
tI-1
tp2239
asg12
g1197
sg13
(dp2240
g15
Nsg16
g45
sg18
I8
ssg16
g19
sg18
I374
sg20
g1198
sg15
(dp2241
g15
(dp2242
g163
F1
sg1203
g1204
sg1205
I12
sg204
F0
sg1206
F0
sg1207
I1
sg1208
g1335
sg1210
I0
sg126
I0
sg1211
F1.1000000000000001
sg741
(dp2243
g15
Nsg16
g45
sg18
I19
ssg1213
I1
sg1214
(dp2244
g15
S'H4sIAAX4l0YC/03NsQrDIBDG8f17EV0qmqRbX8DFoa6FEo2BQJOIPaG+fY+00A7/4bgfd3Gra24q\n7iWptT5oGUsZG+4lxX17UqmRkA1kPBy26bPPHaTVIC+CAF1zzyMr24G+cqKWE/IA6cUyCLBmwfTM\nrIcXFwHnnD0ZHPGxYLXmxe2lDad/zfN//DCoN80p7hW4AAAA\n'
p2245
sg16
g119
sg18
I376
ssg110
I0
sg1217
I1
sg1218
I0
sg1220
g1221
sg121
I0
sg1222
I1
ssg16
g134
sg18
I375
sssg1339
(dp2246
g2
(lp2247
((g4
g5
tI-1
tp2248
a((g7
g5
tI-1
tp2249
a((g73
g74
tI-1
tp2250
a((g76
g77
tI-1
tp2251
a((g79
g80
tI-1
tp2252
a((g1197
g1198
tI-1
tp2253
asg12
g1197
sg13
(dp2254
g15
Nsg16
g45
sg18
I8
ssg16
g19
sg18
I387
sg20
g1198
sg15
(dp2255
g15
(dp2256
g163
F1
sg1203
g1204
sg1205
I12
sg204
F0
sg1206
F0
sg1207
I1
sg1208
g1335
sg1210
I0
sg126
I0
sg1211
F1.1000000000000001
sg741
(dp2257
g15
Nsg16
g45
sg18
I19
ssg1213
I1
sg1214
(dp2258
g15
S'H4sIAAX4l0YC/03NsQrDIBDG8f17EV0qmqRbX8DFoa6FEo2BQJOIPaG+fY+00A7/4bgfd3Gra24q\n7iWptT5oGUsZG+4lxX17UqmRkA1kPBy26bPPHaTVIC+CAF1zzyMr24G+cqKWE/IA6cUyCLBmwfTM\nrIcXFwHnnD0ZHPGxYLXmxe2lDad/zfN//DCoN80p7hW4AAAA\n'
p2259
sg16
g119
sg18
I389
ssg110
I0
sg1217
I1
sg1218
I0
sg1220
g1221
sg121
I0
sg1222
I1
ssg16
g134
sg18
I388
sssg1354
(dp2260
g2
(lp2261
((g4
g5
tI-1
tp2262
a((g7
g5
tI-1
tp2263
a((g73
g74
tI-1
tp2264
a((g76
g77
tI-1
tp2265
a((g79
g80
tI-1
tp2266
a((g699
g700
tI-1
tp2267
a((g1363
g1364
tI-1
tp2268
asg12
g1363
sg13
(dp2269
g15
Nsg16
g45
sg18
I8
ssg16
g19
sg18
I377
sg20
g1364
sg15
(dp2270
g15
(dp2271
g708
S'i'
sg709
I0
sg126
I0
sg710
F0.55000001192092896
sg121
I0
sg711
I0
sg712
I0
sg110
I0
sg713
I0
ssg16
g134
sg18
I378
sssg1043
S''
sg1369
g1490
sg1371
(dp2272
g15
Nsg16
g45
sg18
I379
ssg50
S''
sg1312
I256
sg1373
g1490
sg48
S''
sg1375
I01
sg1376
I8
sg1377
I00
sg1378
(dp2273
g2
(lp2274
((g4
g5
tI-1
tp2275
a((g7
g5
tI-1
tp2276
a((g73
g74
tI-1
tp2277
a((g76
g77
tI-1
tp2278
a((g79
g80
tI-1
tp2279
a((g187
g188
tI-1
tp2280
a((g1387
g1388
tI-1
tp2281
a((g1390
g1391
tI-1
tp2282
asg12
g1390
sg13
(dp2283
g15
Nsg16
g45
sg18
I8
ssg16
g19
sg18
I390
sg20
g1391
sg15
(dp2284
g15
(dp2285
g126
I0
sg215
I1
sg204
g1396
sg1397
F0.80000000000000004
sg1398
S'%-#6.3g'
p2286
sg1376
I8
sg207
I1
sg208
I1
sg209
I1
sg210
I1
sg121
I0
sg1400
I256
sg1401
I0
sg1402
(dp2287
g15
S'H4sIAAX4l0YC/2XOMQuDMBAF4P39kWSpaGxAoeCcxaGugaIxQqFqSC8Q/30P263DGx7v4zi3pTUc\nhdujL9b0oucY43jgEb3btzfF5AihgnSnwzZ/96AgTQkaxCRA91BzZWUU6CdnOoJHuEIOYmkEWLNg\nqpnVGMRNoO97c6lwho9Npix5sLkdOe1/fNvZ7GqbFy2ttblZuCqO7viLqfgAbt3QTs0AAAA=\n'
p2288
sg16
g119
sg18
I393
ssg211
I1
sg212
(dp2289
g15
S'H4sIAAX4l0YC/2XOMQuDMBAF4P39kbhUjFpQKDiWLA51DZQkplCoGtITYvvne9huHd5wvI/HuXmd\nwpa7Jfp8Wh90NzGaDdfo3TI/Ka6OECQytzvM47cPJTJVgAZhBegSKj5ZqRL0kyNtwSPUyAZxawRY\ns2B6ZFZhECeBvu/VQWIPj1lVFFzo1BpO+x/bdm+dZK2T8WedvHzp1NQdf2DzD7ndMtDJAAAA\n'
p2290
sg16
g119
sg18
I392
ssg1407
F0.17000000000000001
sg110
I0
sg1408
I0
ssg16
g134
sg18
I391
sssg1409
(dp2291
g15
S'H4sIAAX4l0YC/53OsQrCMBQF0P3+SLIY0lbBQXDOksGsgjRpCoJNQ/oC5u99VL/A4Q6Pe7i8kOqS\nmwpriWqpL3qOpYwNjxLDmjYqNRByBxl2hzR9+9xDGg1ywgvQLQ98sjI96CcnajkiHyGdmM8CrFkw\nPTEb4MRFwFprDh328Jg3WnNxf2v9X2Z95W+8+gDYoI1C1QAAAA==\n'
p2292
sg16
g119
sg18
I394
ssg1218
I00
sg1412
g1413
sg1414
I00
ssg16
g134
sg18
I373
ssssg16
g134
sg18
I320
ssasg16
g267
sg18
I318
sssg16
g134
sg18
I315
ssasg16
g267
sg18
I154
ssS'_max_timestep'
p2293
I3
ssg16
g134
sg18
I153
ssa(dp2294
g2
(lp2295
((g4
g5
tI-1
tp2296
a((g27
g5
tI-1
tp2297
a((g29
g30
tI-1
tp2298
a((g32
g33
tI0
tp2299
a((g35
g36
tI0
tp2300
a((g998
g999
tI0
tp2301
a((g1001
g1002
tI0
tp2302
a((g1004
g1005
tI0
tp2303
asg12
g1004
sg13
(dp2304
g15
Nsg16
g45
sg18
I1
ssg16
g19
sg18
I399
sg20
g1005
sg15
(dp2305
g15
(dp2306
g50
S''
sg1010
(dp2307
g2
(lp2308
((g1013
g1014
tI-1
tp2309
asg12
g1013
sg13
(dp2310
g15
Nsg16
g45
sg18
I1
ssg16
g19
sg18
I453
sg20
g1014
sg15
(dp2311
g15
(dp2312
g1019
S'reverse-slip-fault.vtk'
p2313
sg1021
S'/home/laa/benchmarks/reverse-slip-fault.vtk'
p2314
ssg16
g134
sg18
I454
sssg48
S''
sg1023
I0
sg1024
(dp2315
g2
(lp2316
((g4
g5
tI-1
tp2317
a((g7
g5
tI-1
tp2318
a((g73
g74
tI-1
tp2319
a((g76
g77
tI-1
tp2320
a((g79
g80
tI-1
tp2321
a((g82
g83
tI-1
tp2322
a((g1033
g1034
tI-1
tp2323
a((g1036
g1037
tI-1
tp2324
asg12
g1036
sg13
(dp2325
g15
Nsg16
g45
sg18
I8
ssg16
g19
sg18
I451
sg20
g1037
sg15
(dp2326
g15
(dp2327
g1042
I0
sg1043
S'/home/laa/benchmarks/reverse-slip-fault.vtk'
p2328
sg1045
I0
sg1046
I0
sg126
I0
sg1047
I0
sg1048
I0
sg1049
I0
sg1050
I0
sg113
I0
sg1051
I0
sg114
I0
sg115
F1
sg121
I0
sg1052
I0
sg110
I0
sg1053
I0
sg1054
I0
sg1055
I0
sg1056
I0
sg124
I0
sg1057
I0
sg1058
I0
sg1059
I0
sg130
I0
ssg16
g134
sg18
I452
sssg1060
I0
sg988
(dp2329
g15
(lp2330
(dp2331
g2
(lp2332
((g4
g5
tI-1
tp2333
a((g27
g5
tI-1
tp2334
a((g29
g30
tI-1
tp2335
a((g32
g33
tI0
tp2336
a((g1069
g1070
tI0
tp2337
asg12
g1069
sg13
(dp2338
g15
Nsg16
g45
sg18
I1
ssg16
g19
sg18
I402
sg20
g1070
sg15
(dp2339
g15
(dp2340
g50
S''
sg1075
g1076
sg988
(dp2341
g15
(lp2342
(dp2343
g15
Nsg16
g45
sg18
I3
sasg16
g267
sg18
I404
ssg48
S''
sg1264
(dp2344
g2
(lp2345
((g4
g5
tI-1
tp2346
a((g27
g5
tI-1
tp2347
a((g29
g30
tI-1
tp2348
a((g32
g33
tI0
tp2349
a((g1271
g1272
tI0
tp2350
asg12
g1271
sg13
(dp2351
g15
Nsg16
g45
sg18
I1
ssg16
g19
sg18
I405
sg20
g1272
sg15
(dp2352
g15
(dp2353
g1277
(dp2354
g15
S'H4sIAAX4l0YC/53OsQrCMBQF0P3+SLIY0lbBQXDOksGsgjRpCoJNQ/oC5u99VL/A4Q6Pe7i8kOqS\nmwpriWqpL3qOpYwNjxLDmjYqNRByBxl2hzR9+9xDGg1ywgvQLQ98sjI96CcnajkiHyGdmM8CrFkw\nPTEb4MRFwFprDh328Jg3WnNxf2v9X2Z95W+8+gDYoI1C1QAAAA==\n'
p2355
sg16
g119
sg18
I412
ssg1280
I01
sg1281
(dp2356
g2
(lp2357
((g4
g5
tI-1
tp2358
a((g7
g5
tI-1
tp2359
a((g73
g74
tI-1
tp2360
a((g76
g77
tI-1
tp2361
a((g79
g80
tI-1
tp2362
a((g1289
g1290
tI-1
tp2363
a((g1292
g1293
tI-1
tp2364
asg12
g1292
sg13
(dp2365
g15
Nsg16
g45
sg18
I8
ssg16
g19
sg18
I413
sg20
g1293
sg15
(dp2366
g15
(dp2367
g1298
I2
sg201
g1299
sg1300
(dp2368
g15
S'H4sIAAX4l0YC/33OMQvCMBAF4P39kWQxpK2Cg+CcJYNZBWnSFASbhngB8+89qqM4vOF4H48LqS65\nqbCWqJb6oPtYythwKzGs6UmlBkLuIMPmkKZPn3tIo0FOeAG65IFPVqYHfeVELUfkPaQT81GANQum\nB2YDnDgJWGvNrsMWHvNGay6uL61/Z9bnvyW/4tUbw9sFJ9IAAAA=\n'
p2369
sg16
g119
sg18
I415
ssg1303
(dp2370
g15
S'H4sIAAX4l0YC/53OsQrCMBQF0P3+SLIY0lbBQXDOksGsgjRpCoJNQ/oC5u99VL/A4Q6Pe7i8kOqS\nmwpriWqpL3qOpYwNjxLDmjYqNRByBxl2hzR9+9xDGg1ywgvQLQ98sjI96CcnajkiHyGdmM8CrFkw\nPTEb4MRFwFprDh328Jg3WnNxf2v9X2Z95W+8+gDYoI1C1QAAAA==\n'
p2371
sg16
g119
sg18
I417
ssg1306
(dp2372
g15
S'H4sIAAX4l0YC/33OMQvCMBAF4P39kXSxpK3FCopzEDpY3ALSpBEKNg3xCum/96jODm94vI/jrF+m\nsOZ2ji6flheNfYz9ikd0dvZvioslhAKZ3Rz88N1DiUxJUCeMAN1CxZWVKkE/OdAaHMIeWSeejQBr\nFkxrZhU6cRJo21btCmzhY0ZJycNVJ9voJA9nnY7mrpOrL1zlv/ATJv8A/YiyW8wAAAA=\n'
p2373
sg16
g119
sg18
I416
ssg1309
I256
sg1310
g1311
sg126
I0
sg1312
I256
sg1313
(dp2374
g15
S'H4sIAAX4l0YC/33OMQvCMBAF4P39kWQxpK2Cg+CcJYNZBWnSFASbhngB8+89qqM4vOF4H48LqS65\nqbCWqJb6oPtYythwKzGs6UmlBkLuIMPmkKZPn3tIo0FOeAG65IFPVqYHfeVELUfkPaQT81GANQum\nB2YDnDgJWGvNrsMWHvNGay6uL61/Z9bnvyW/4tUbw9sFJ9IAAAA=\n'
p2375
sg16
g119
sg18
I418
ssg1316
I0
sg1317
(dp2376
g15
S'H4sIAAX4l0YC/33OMQvCMBAF4P39kWQxpK2Cg+CcJYNZBWnSFASbhngB8+89qqM4vOF4H48LqS65\nqbCWqJb6oPtYythwKzGs6UmlBkLuIMPmkKZPn3tIo0FOeAG65IFPVqYHfeVELUfkPaQT81GANQum\nB2YDnDgJWGvNrsMWHvNGay6uL61/Z9bnvyW/4tUbw9sFJ9IAAAA=\n'
p2377
sg16
g119
sg18
I419
ssg110
I0
sg1320
F1
sg1321
g1322
sg121
I0
ssg16
g134
sg18
I414
sssg1323
(dp2378
g2
(lp2379
((g4
g5
tI-1
tp2380
a((g7
g5
tI-1
tp2381
a((g73
g74
tI-1
tp2382
a((g76
g77
tI-1
tp2383
a((g79
g80
tI-1
tp2384
a((g1197
g1198
tI-1
tp2385
asg12
g1197
sg13
(dp2386
g15
Nsg16
g45
sg18
I8
ssg16
g19
sg18
I407
sg20
g1198
sg15
(dp2387
g15
(dp2388
g163
F1
sg1203
g1204
sg1205
I12
sg204
F0
sg1206
F0
sg1207
I1
sg1208
g1335
sg1210
I0
sg126
I0
sg1211
F1.1000000000000001
sg741
(dp2389
g15
Nsg16
g45
sg18
I19
ssg1213
I1
sg1214
(dp2390
g15
S'H4sIAAX4l0YC/03NsQrDIBDG8f17EV0qmqRbX8DFoa6FEo2BQJOIPaG+fY+00A7/4bgfd3Gra24q\n7iWptT5oGUsZG+4lxX17UqmRkA1kPBy26bPPHaTVIC+CAF1zzyMr24G+cqKWE/IA6cUyCLBmwfTM\nrIcXFwHnnD0ZHPGxYLXmxe2lDad/zfN//DCoN80p7hW4AAAA\n'
p2391
sg16
g119
sg18
I409
ssg110
I0
sg1217
I1
sg1218
I0
sg1220
g1221
sg121
I0
sg1222
I1
ssg16
g134
sg18
I408
sssg1339
(dp2392
g2
(lp2393
((g4
g5
tI-1
tp2394
a((g7
g5
tI-1
tp2395
a((g73
g74
tI-1
tp2396
a((g76
g77
tI-1
tp2397
a((g79
g80
tI-1
tp2398
a((g1197
g1198
tI-1
tp2399
asg12
g1197
sg13
(dp2400
g15
Nsg16
g45
sg18
I8
ssg16
g19
sg18
I420
sg20
g1198
sg15
(dp2401
g15
(dp2402
g163
F1
sg1203
g1204
sg1205
I12
sg204
F0
sg1206
F0
sg1207
I1
sg1208
g1335
sg1210
I0
sg126
I0
sg1211
F1.1000000000000001
sg741
(dp2403
g15
Nsg16
g45
sg18
I19
ssg1213
I1
sg1214
(dp2404
g15
S'H4sIAAX4l0YC/03NsQrDIBDG8f17EV0qmqRbX8DFoa6FEo2BQJOIPaG+fY+00A7/4bgfd3Gra24q\n7iWptT5oGUsZG+4lxX17UqmRkA1kPBy26bPPHaTVIC+CAF1zzyMr24G+cqKWE/IA6cUyCLBmwfTM\nrIcXFwHnnD0ZHPGxYLXmxe2lDad/zfN//DCoN80p7hW4AAAA\n'
p2405
sg16
g119
sg18
I422
ssg110
I0
sg1217
I1
sg1218
I0
sg1220
g1221
sg121
I0
sg1222
I1
ssg16
g134
sg18
I421
sssg1354
(dp2406
g2
(lp2407
((g4
g5
tI-1
tp2408
a((g7
g5
tI-1
tp2409
a((g73
g74
tI-1
tp2410
a((g76
g77
tI-1
tp2411
a((g79
g80
tI-1
tp2412
a((g699
g700
tI-1
tp2413
a((g1363
g1364
tI-1
tp2414
asg12
g1363
sg13
(dp2415
g15
Nsg16
g45
sg18
I8
ssg16
g19
sg18
I410
sg20
g1364
sg15
(dp2416
g15
(dp2417
g708
S'i'
sg709
I0
sg126
I0
sg710
F0.55000001192092896
sg121
I0
sg711
I0
sg712
I0
sg110
I0
sg713
I0
ssg16
g134
sg18
I411
sssg1043
S''
sg1369
S'No scalars'
p2418
sg1371
(dp2419
g15
Nsg16
g45
sg18
I412
ssg50
S''
sg1312
I256
sg1373
g2418
sg48
S''
sg1375
I01
sg1376
I8
sg1377
I00
sg1378
(dp2420
g2
(lp2421
((g4
g5
tI-1
tp2422
a((g7
g5
tI-1
tp2423
a((g73
g74
tI-1
tp2424
a((g76
g77
tI-1
tp2425
a((g79
g80
tI-1
tp2426
a((g187
g188
tI-1
tp2427
a((g1387
g1388
tI-1
tp2428
a((g1390
g1391
tI-1
tp2429
asg12
g1390
sg13
(dp2430
g15
Nsg16
g45
sg18
I8
ssg16
g19
sg18
I423
sg20
g1391
sg15
(dp2431
g15
(dp2432
g126
I0
sg215
I1
sg204
g1396
sg1397
F0.80000000000000004
sg1398
S'%-#6.3g'
p2433
sg1376
I8
sg207
I1
sg208
I1
sg209
I1
sg210
I1
sg121
I0
sg1400
I256
sg1401
I0
sg1402
(dp2434
g15
S'H4sIAAX4l0YC/2XOMQuDMBAF4P39kWSpaGxAoeCcxaGugaIxQqFqSC8Q/30P263DGx7v4zi3pTUc\nhdujL9b0oucY43jgEb3btzfF5AihgnSnwzZ/96AgTQkaxCRA91BzZWUU6CdnOoJHuEIOYmkEWLNg\nqpnVGMRNoO97c6lwho9Npix5sLkdOe1/fNvZ7GqbFy2ttblZuCqO7viLqfgAbt3QTs0AAAA=\n'
p2435
sg16
g119
sg18
I426
ssg211
I1
sg212
(dp2436
g15
S'H4sIAAX4l0YC/2XOMQuDMBAF4P39kbhUjFpQKDiWLA51DZQkplCoGtITYvvne9huHd5wvI/HuXmd\nwpa7Jfp8Wh90NzGaDdfo3TI/Ka6OECQytzvM47cPJTJVgAZhBegSKj5ZqRL0kyNtwSPUyAZxawRY\ns2B6ZFZhECeBvu/VQWIPj1lVFFzo1BpO+x/bdm+dZK2T8WedvHzp1NQdf2DzD7ndMtDJAAAA\n'
p2437
sg16
g119
sg18
I425
ssg1407
F0.17000000000000001
sg110
I0
sg1408
I0
ssg16
g134
sg18
I424
sssg1409
(dp2438
g15
S'H4sIAAX4l0YC/53OsQrCMBQF0P3+SLIY0lbBQXDOksGsgjRpCoJNQ/oC5u99VL/A4Q6Pe7i8kOqS\nmwpriWqpL3qOpYwNjxLDmjYqNRByBxl2hzR9+9xDGg1ywgvQLQ98sjI96CcnajkiHyGdmM8CrFkw\nPTEb4MRFwFprDh328Jg3WnNxf2v9X2Z95W+8+gDYoI1C1QAAAA==\n'
p2439
sg16
g119
sg18
I427
ssg1218
I00
sg1412
g1413
sg1414
I00
ssg16
g134
sg18
I406
sssg1415
(dp2440
g2
(lp2441
((g4
g5
tI-1
tp2442
a((g27
g5
tI-1
tp2443
a((g29
g30
tI-1
tp2444
a((g32
g33
tI0
tp2445
a((g1271
g1272
tI0
tp2446
asg12
g1271
sg13
(dp2447
g15
Nsg16
g45
sg18
I1
ssg16
g19
sg18
I428
sg20
g1272
sg15
(dp2448
g15
(dp2449
g1277
(dp2450
g15
S'H4sIAAX4l0YC/53OsQrCMBQF0P3+SLIY0lbBQXDOksGsgjRpCoJNQ/oC5u99VL/A4Q6Pe7i8kOqS\nmwpriWqpL3qOpYwNjxLDmjYqNRByBxl2hzR9+9xDGg1ywgvQLQ98sjI96CcnajkiHyGdmM8CrFkw\nPTEb4MRFwFprDh328Jg3WnNxf2v9X2Z95W+8+gDYoI1C1QAAAA==\n'
p2451
sg16
g119
sg18
I435
ssg1280
I01
sg1281
(dp2452
g2
(lp2453
((g4
g5
tI-1
tp2454
a((g7
g5
tI-1
tp2455
a((g73
g74
tI-1
tp2456
a((g76
g77
tI-1
tp2457
a((g79
g80
tI-1
tp2458
a((g1289
g1290
tI-1
tp2459
a((g1292
g1293
tI-1
tp2460
asg12
g1292
sg13
(dp2461
g15
Nsg16
g45
sg18
I8
ssg16
g19
sg18
I436
sg20
g1293
sg15
(dp2462
g15
(dp2463
g1298
I2
sg201
g1299
sg1300
(dp2464
g15
S'H4sIAAX4l0YC/33OMQvCMBAF4P39kWQxpK2Cg+CcJYNZBWnSFASbhngB8+89qqM4vOF4H48LqS65\nqbCWqJb6oPtYythwKzGs6UmlBkLuIMPmkKZPn3tIo0FOeAG65IFPVqYHfeVELUfkPaQT81GANQum\nB2YDnDgJWGvNrsMWHvNGay6uL61/Z9bnvyW/4tUbw9sFJ9IAAAA=\n'
p2465
sg16
g119
sg18
I438
ssg1303
(dp2466
g15
S'H4sIAAX4l0YC/53OsQrCMBQF0P3+SLIY0lbBQXDOksGsgjRpCoJNQ/oC5u99VL/A4Q6Pe7i8kOqS\nmwpriWqpL3qOpYwNjxLDmjYqNRByBxl2hzR9+9xDGg1ywgvQLQ98sjI96CcnajkiHyGdmM8CrFkw\nPTEb4MRFwFprDh328Jg3WnNxf2v9X2Z95W+8+gDYoI1C1QAAAA==\n'
p2467
sg16
g119
sg18
I440
ssg1306
(dp2468
g15
S'H4sIAAX4l0YC/33OMQvCMBAF4P39kXSxpK3FCopzEDpY3ALSpBEKNg3xCum/96jODm94vI/jrF+m\nsOZ2ji6flheNfYz9ikd0dvZvioslhAKZ3Rz88N1DiUxJUCeMAN1CxZWVKkE/OdAaHMIeWSeejQBr\nFkxrZhU6cRJo21btCmzhY0ZJycNVJ9voJA9nnY7mrpOrL1zlv/ATJv8A/YiyW8wAAAA=\n'
p2469
sg16
g119
sg18
I439
ssg1309
I256
sg1310
g1311
sg126
I0
sg1312
I256
sg1313
(dp2470
g15
S'H4sIAAX4l0YC/33OMQvCMBAF4P39kWQxpK2Cg+CcJYNZBWnSFASbhngB8+89qqM4vOF4H48LqS65\nqbCWqJb6oPtYythwKzGs6UmlBkLuIMPmkKZPn3tIo0FOeAG65IFPVqYHfeVELUfkPaQT81GANQum\nB2YDnDgJWGvNrsMWHvNGay6uL61/Z9bnvyW/4tUbw9sFJ9IAAAA=\n'
p2471
sg16
g119
sg18
I441
ssg1316
I0
sg1317
(dp2472
g15
S'H4sIAAX4l0YC/33OMQvCMBAF4P39kWQxpK2Cg+CcJYNZBWnSFASbhngB8+89qqM4vOF4H48LqS65\nqbCWqJb6oPtYythwKzGs6UmlBkLuIMPmkKZPn3tIo0FOeAG65IFPVqYHfeVELUfkPaQT81GANQum\nB2YDnDgJWGvNrsMWHvNGay6uL61/Z9bnvyW/4tUbw9sFJ9IAAAA=\n'
p2473
sg16
g119
sg18
I442
ssg110
I0
sg1320
F1
sg1321
g1322
sg121
I0
ssg16
g134
sg18
I437
sssg1323
(dp2474
g2
(lp2475
((g4
g5
tI-1
tp2476
a((g7
g5
tI-1
tp2477
a((g73
g74
tI-1
tp2478
a((g76
g77
tI-1
tp2479
a((g79
g80
tI-1
tp2480
a((g1197
g1198
tI-1
tp2481
asg12
g1197
sg13
(dp2482
g15
Nsg16
g45
sg18
I8
ssg16
g19
sg18
I430
sg20
g1198
sg15
(dp2483
g15
(dp2484
g163
F1
sg1203
g1204
sg1205
I12
sg204
F0
sg1206
F0
sg1207
I1
sg1208
g1335
sg1210
I0
sg126
I0
sg1211
F1.1000000000000001
sg741
(dp2485
g15
Nsg16
g45
sg18
I19
ssg1213
I1
sg1214
(dp2486
g15
S'H4sIAAX4l0YC/03NsQrDIBDG8f17EV0qmqRbX8DFoa6FEo2BQJOIPaG+fY+00A7/4bgfd3Gra24q\n7iWptT5oGUsZG+4lxX17UqmRkA1kPBy26bPPHaTVIC+CAF1zzyMr24G+cqKWE/IA6cUyCLBmwfTM\nrIcXFwHnnD0ZHPGxYLXmxe2lDad/zfN//DCoN80p7hW4AAAA\n'
p2487
sg16
g119
sg18
I432
ssg110
I0
sg1217
I1
sg1218
I0
sg1220
g1221
sg121
I0
sg1222
I1
ssg16
g134
sg18
I431
sssg1339
(dp2488
g2
(lp2489
((g4
g5
tI-1
tp2490
a((g7
g5
tI-1
tp2491
a((g73
g74
tI-1
tp2492
a((g76
g77
tI-1
tp2493
a((g79
g80
tI-1
tp2494
a((g1197
g1198
tI-1
tp2495
asg12
g1197
sg13
(dp2496
g15
Nsg16
g45
sg18
I8
ssg16
g19
sg18
I443
sg20
g1198
sg15
(dp2497
g15
(dp2498
g163
F1
sg1203
g1204
sg1205
I12
sg204
F0
sg1206
F0
sg1207
I1
sg1208
g1335
sg1210
I0
sg126
I0
sg1211
F1.1000000000000001
sg741
(dp2499
g15
Nsg16
g45
sg18
I19
ssg1213
I1
sg1214
(dp2500
g15
S'H4sIAAX4l0YC/03NsQrDIBDG8f17EV0qmqRbX8DFoa6FEo2BQJOIPaG+fY+00A7/4bgfd3Gra24q\n7iWptT5oGUsZG+4lxX17UqmRkA1kPBy26bPPHaTVIC+CAF1zzyMr24G+cqKWE/IA6cUyCLBmwfTM\nrIcXFwHnnD0ZHPGxYLXmxe2lDad/zfN//DCoN80p7hW4AAAA\n'
p2501
sg16
g119
sg18
I445
ssg110
I0
sg1217
I1
sg1218
I0
sg1220
g1221
sg121
I0
sg1222
I1
ssg16
g134
sg18
I444
sssg1354
(dp2502
g2
(lp2503
((g4
g5
tI-1
tp2504
a((g7
g5
tI-1
tp2505
a((g73
g74
tI-1
tp2506
a((g76
g77
tI-1
tp2507
a((g79
g80
tI-1
tp2508
a((g699
g700
tI-1
tp2509
a((g1363
g1364
tI-1
tp2510
asg12
g1363
sg13
(dp2511
g15
Nsg16
g45
sg18
I8
ssg16
g19
sg18
I433
sg20
g1364
sg15
(dp2512
g15
(dp2513
g708
S'i'
sg709
I0
sg126
I0
sg710
F0.55000001192092896
sg121
I0
sg711
I0
sg712
I0
sg110
I0
sg713
I0
ssg16
g134
sg18
I434
sssg1043
S''
sg1369
g1490
sg1371
(dp2514
g15
Nsg16
g45
sg18
I435
ssg50
S''
sg1312
I256
sg1373
g1490
sg48
S''
sg1375
I01
sg1376
I8
sg1377
I00
sg1378
(dp2515
g2
(lp2516
((g4
g5
tI-1
tp2517
a((g7
g5
tI-1
tp2518
a((g73
g74
tI-1
tp2519
a((g76
g77
tI-1
tp2520
a((g79
g80
tI-1
tp2521
a((g187
g188
tI-1
tp2522
a((g1387
g1388
tI-1
tp2523
a((g1390
g1391
tI-1
tp2524
asg12
g1390
sg13
(dp2525
g15
Nsg16
g45
sg18
I8
ssg16
g19
sg18
I446
sg20
g1391
sg15
(dp2526
g15
(dp2527
g126
I0
sg215
I1
sg204
g1396
sg1397
F0.80000000000000004
sg1398
S'%-#6.3g'
p2528
sg1376
I8
sg207
I1
sg208
I1
sg209
I1
sg210
I1
sg121
I0
sg1400
I256
sg1401
I0
sg1402
(dp2529
g15
S'H4sIAAX4l0YC/2XOMQuDMBAF4P39kWSpaGxAoeCcxaGugaIxQqFqSC8Q/30P263DGx7v4zi3pTUc\nhdujL9b0oucY43jgEb3btzfF5AihgnSnwzZ/96AgTQkaxCRA91BzZWUU6CdnOoJHuEIOYmkEWLNg\nqpnVGMRNoO97c6lwho9Npix5sLkdOe1/fNvZ7GqbFy2ttblZuCqO7viLqfgAbt3QTs0AAAA=\n'
p2530
sg16
g119
sg18
I449
ssg211
I1
sg212
(dp2531
g15
S'H4sIAAX4l0YC/2XOMQuDMBAF4P39kbhUjFpQKDiWLA51DZQkplCoGtITYvvne9huHd5wvI/HuXmd\nwpa7Jfp8Wh90NzGaDdfo3TI/Ka6OECQytzvM47cPJTJVgAZhBegSKj5ZqRL0kyNtwSPUyAZxawRY\ns2B6ZFZhECeBvu/VQWIPj1lVFFzo1BpO+x/bdm+dZK2T8WedvHzp1NQdf2DzD7ndMtDJAAAA\n'
p2532
sg16
g119
sg18
I448
ssg1407
F0.17000000000000001
sg110
I0
sg1408
I0
ssg16
g134
sg18
I447
sssg1409
(dp2533
g15
S'H4sIAAX4l0YC/53OsQrCMBQF0P3+SLIY0lbBQXDOksGsgjRpCoJNQ/oC5u99VL/A4Q6Pe7i8kOqS\nmwpriWqpL3qOpYwNjxLDmjYqNRByBxl2hzR9+9xDGg1ywgvQLQ98sjI96CcnajkiHyGdmM8CrFkw\nPTEb4MRFwFprDh328Jg3WnNxf2v9X2Z95W+8+gDYoI1C1QAAAA==\n'
p2534
sg16
g119
sg18
I450
ssg1218
I00
sg1412
g1413
sg1414
I00
ssg16
g134
sg18
I429
ssssg16
g134
sg18
I403
ssasg16
g267
sg18
I401
ssg2293
I0
ssg16
g134
sg18
I400
ssa(dp2535
g2
(lp2536
((g4
g5
tI-1
tp2537
a((g27
g5
tI-1
tp2538
a((g29
g30
tI-1
tp2539
a((g32
g33
tI0
tp2540
a((g35
g36
tI0
tp2541
a((g998
g999
tI0
tp2542
a((g1001
g1002
tI0
tp2543
a((g1004
g1005
tI0
tp2544
asg12
g1004
sg13
(dp2545
g15
Nsg16
g45
sg18
I1
ssg16
g19
sg18
I455
sg20
g1005
sg15
(dp2546
g15
(dp2547
g50
S''
sg1010
(dp2548
g2
(lp2549
((g1013
g1014
tI-1
tp2550
asg12
g1013
sg13
(dp2551
g15
Nsg16
g45
sg18
I1
ssg16
g19
sg18
I531
sg20
g1014
sg15
(dp2552
g15
(dp2553
g1019
S'bottom-layer.vtk'
p2554
sg1021
S'/home/laa/benchmarks/bottom-layer.vtk'
p2555
ssg16
g134
sg18
I532
sssg48
S''
sg1023
I0
sg1024
(dp2556
g2
(lp2557
((g4
g5
tI-1
tp2558
a((g7
g5
tI-1
tp2559
a((g73
g74
tI-1
tp2560
a((g76
g77
tI-1
tp2561
a((g79
g80
tI-1
tp2562
a((g82
g83
tI-1
tp2563
a((g1033
g1034
tI-1
tp2564
a((g1036
g1037
tI-1
tp2565
asg12
g1036
sg13
(dp2566
g15
Nsg16
g45
sg18
I8
ssg16
g19
sg18
I529
sg20
g1037
sg15
(dp2567
g15
(dp2568
g1042
I0
sg1043
S'/home/laa/benchmarks/bottom-layer.vtk'
p2569
sg1045
I0
sg1046
I0
sg126
I0
sg1047
I0
sg1048
I0
sg1049
I0
sg1050
I0
sg113
I0
sg1051
I0
sg114
I0
sg115
F1
sg121
I0
sg1052
I0
sg110
I0
sg1053
I0
sg1054
I0
sg1055
I0
sg1056
I0
sg124
I0
sg1057
I0
sg1058
I0
sg1059
I0
sg130
I0
ssg16
g134
sg18
I530
sssg1060
I0
sg988
(dp2570
g15
(lp2571
(dp2572
g2
(lp2573
((g4
g5
tI-1
tp2574
a((g27
g5
tI-1
tp2575
a((g29
g30
tI-1
tp2576
a((g32
g33
tI0
tp2577
a((g1069
g1070
tI0
tp2578
asg12
g1069
sg13
(dp2579
g15
Nsg16
g45
sg18
I1
ssg16
g19
sg18
I458
sg20
g1070
sg15
(dp2580
g15
(dp2581
g50
S''
sg1075
g1076
sg988
(dp2582
g15
(lp2583
(dp2584
g2
(lp2585
((g4
g5
tI-1
tp2586
a((g27
g5
tI-1
tp2587
a((g29
g30
tI-1
tp2588
a((g32
g33
tI0
tp2589
a((g35
g36
tI0
tp2590
a((g38
g39
tI0
tp2591
a((g41
g42
tI0
tp2592
asg12
g41
sg13
(dp2593
g15
Nsg16
g45
sg18
I1
ssg16
g19
sg18
I461
sg20
g42
sg15
(dp2594
g15
(dp2595
g48
S''
sg49
I00
sg50
S''
sg51
(dp2596
g2
(lp2597
((g4
g5
tI-1
tp2598
a((g27
g5
tI-1
tp2599
a((g29
g30
tI-1
tp2600
a((g32
g33
tI0
tp2601
a((g35
g36
tI0
tp2602
a((g59
g60
tI0
tp2603
a((g62
g63
tI0
tp2604
asg12
g62
sg13
(dp2605
g15
Nsg16
g45
sg18
I1
ssg16
g19
sg18
I463
sg20
g63
sg15
(dp2606
g15
(dp2607
g68
(dp2608
g2
(lp2609
((g4
g5
tI-1
tp2610
a((g7
g5
tI-1
tp2611
a((g73
g74
tI-1
tp2612
a((g76
g77
tI-1
tp2613
a((g79
g80
tI-1
tp2614
a((g82
g83
tI-1
tp2615
a((g85
g86
tI-1
tp2616
a((g88
g89
tI-1
tp2617
a((g91
g92
tI-1
tp2618
a((g94
g95
tI-1
tp2619
asg12
g94
sg13
(dp2620
g15
Nsg16
g45
sg18
I8
ssg16
g19
sg18
I465
sg20
g95
sg15
(dp2621
g15
(dp2622
g101
I0
sg102
I0
sg103
g104
sg105
I0
sg106
I0
sg107
F0.01
sg108
g104
sg109
I0
sg110
I0
sg111
I0
sg112
I1
sg113
I0
sg114
I0
sg115
F1
sg116
(dp2623
g15
S'H4sIAAX4l0YC/53OsQrCMBQF0P3+SLIY0lbBQXDOksGsgjRpCoJNQ/oC5u99VL/A4Q6Pe7i8kOqS\nmwpriWqpL3qOpYwNjxLDmjYqNRByBxl2hzR9+9xDGg1ywgvQLQ98sjI96CcnajkiHyGdmM8CrFkw\nPTEb4MRFwFprDh328Jg3WnNxf2v9X2Z95W+8+gDYoI1C1QAAAA==\n'
p2624
sg16
g119
sg18
I467
ssg120
I1
sg121
I0
sg122
I0
sg123
I1
sg124
I0
sg125
I1
sg126
I0
sg127
I0
sg128
g129
sg130
I0
sg131
I0
sg132
g104
sg133
F0
ssg16
g134
sg18
I466
sssg48
S''
sg135
(dp2625
g2
(lp2626
((g4
g5
tI-1
tp2627
a((g7
g5
tI-1
tp2628
a((g73
g74
tI-1
tp2629
a((g76
g77
tI-1
tp2630
a((g79
g80
tI-1
tp2631
a((g143
g144
tI-1
tp2632
a((g146
g147
tI-1
tp2633
asg12
g146
sg13
(dp2634
g15
Nsg16
g45
sg18
I8
ssg16
g19
sg18
I474
sg20
g147
sg15
(dp2635
g15
(dp2636
g152
(dp2637
g15
Nsg16
g45
sg18
I19
ssg154
I0
sg155
F1
sg156
(dp2638
g15
Nsg16
g45
sg18
I19
ssg159
F0
sg160
I0
sg161
g162
sg163
F0.1673
sg164
I0
sg165
F1
sg166
(dp2639
g15
Nsg16
g45
sg18
I19
ssg168
(dp2640
g15
Nsg16
g45
sg18
I19
ssg121
I0
sg170
I0
sg171
F1
sg172
I0
sg126
I0
sg173
F0
sg174
I0
sg175
I65535
sg110
I0
sg176
g177
sg178
I1
sg179
F2
ssg16
g134
sg18
I475
sssg50
S''
sg51
(dp2641
g2
(lp2642
((g4
g5
tI-1
tp2643
a((g7
g5
tI-1
tp2644
a((g73
g74
tI-1
tp2645
a((g76
g77
tI-1
tp2646
a((g79
g80
tI-1
tp2647
a((g187
g188
tI-1
tp2648
a((g190
g191
tI-1
tp2649
a((g62
g193
tI-1
tp2650
asg12
g62
sg13
(dp2651
g15
Nsg16
g45
sg18
I8
ssg16
g19
sg18
I468
sg20
g193
sg15
(dp2652
g15
(dp2653
g198
(dp2654
g15
S'H4sIAAX4l0YC/7XOMQoCMRAF0P5fJGkMWVfBwguk2cK0gmyyEQQ3O8QJmNs7RK9g8YvhPz4Tc12p\nmbiVZNb65MdcytxwKylu+cWlRgYN0LE75OXb0x7aWbBXQYEvNMopyo3gn1y4UQIdoL26nxREixB6\n7Myrs8I0TW43oEfGgrNWiuvb2n9GHg7mAy0aBDD4AAAA\n'
p2655
sg16
g119
sg18
I470
ssg201
(dp2656
g15
S'H4sIAAX4l0YC/53OMQvCMBAF4P39kWQxpFbBQXDOksGsgjRpCoJtQ3oB8+89oqOTwxuO9/G4sJQ5\nVRXWHNVcnvQYch4q7jmGddkol0BIHWRoDsv46dMe0miQE16Arqnnk5XpQV85Uk0R6QDpxHQSYM2C\n6bExJ84C1lqz69DCY95ozcXtpfXvTPryf8l/evUGx/o6Le8AAAA=\n'
p2657
sg16
g119
sg18
I472
ssg204
(dp2658
g15
S'H4sIAAX4l0YC/53OsQoCMRAE0H5+JGkMOU/hCn8gTQrTCnLJRRC8XIgbMH/vEu0FiymWeQwbUl1z\nU2ErUa31Qfe5lLnhWmLY0pNKDYQ8QIbukJZPn/eQRoOc8AJ0ziOfrMwI+sqFWo7IB0gnbpMAaxZM\nj505cRKw1prdgB4e80ZrLi4vrf/P9NPww169AaZN3yn4AAAA\n'
p2659
sg16
g119
sg18
I471
ssg110
I0
sg207
I1
sg208
I1
sg209
I1
sg210
I1
sg121
I0
sg126
I0
sg211
I1
sg212
(dp2660
g15
S'H4sIAAX4l0YC/7XOMQoCMRAF0P5fJGkMWVfBwguk2cK0gmyyEQQ3O8QJmNs7RK9g8YvhPz4Tc12p\nmbiVZNb65MdcytxwKylu+cWlRgYN0LE75OXb0x7aWbBXQYEvNMopyo3gn1y4UQIdoL26nxREixB6\n7Myrs8I0TW43oEfGgrNWiuvb2n9GHg7mAy0aBDD4AAAA\n'
p2661
sg16
g119
sg18
I473
ssg215
I1
ssg16
g134
sg18
I469
ssssg16
g134
sg18
I464
sssg216
(dp2662
g2
(lp2663
((g4
g5
tI-1
tp2664
a((g27
g5
tI-1
tp2665
a((g29
g30
tI-1
tp2666
a((g32
g33
tI0
tp2667
a((g35
g36
tI0
tp2668
a((g59
g60
tI0
tp2669
a((g225
g226
tI0
tp2670
asg12
g225
sg13
(dp2671
g15
Nsg16
g45
sg18
I1
ssg16
g19
sg18
I476
sg20
g226
sg15
(dp2672
g15
(dp2673
g50
S''
sg231
I01
sg232
(dp2674
g15
Nsg16
g45
sg18
I1
ssg234
I00
sg235
F0
sg48
S''
sg236
(dp2675
g2
(lp2676
((g4
g5
tI-1
tp2677
a((g7
g5
tI-1
tp2678
a((g73
g74
tI-1
tp2679
a((g76
g77
tI-1
tp2680
a((g79
g80
tI-1
tp2681
a((g82
g83
tI-1
tp2682
a((g245
g246
tI-1
tp2683
a((g248
g249
tI-1
tp2684
asg12
g248
sg13
(dp2685
g15
Nsg16
g45
sg18
I8
ssg16
g19
sg18
I478
sg20
g249
sg15
(dp2686
g15
(dp2687
g254
I0
sg121
I0
sg255
I0
sg256
I1
sg257
I0
sg124
I0
sg258
I1
sg259
I1
sg260
I1
sg261
I0
sg262
I0
sg113
I0
sg126
I0
sg114
I0
sg130
I0
sg115
F0
sg263
I1
sg110
I0
ssg16
g134
sg18
I479
sssg264
(dp2688
g15
(lp2689
sg16
g267
sg18
I480
ssg268
(dp2690
g2
(lp2691
((g4
g5
tI-1
tp2692
a((g7
g5
tI-1
tp2693
a((g73
g74
tI-1
tp2694
a((g76
g77
tI-1
tp2695
a((g79
g80
tI-1
tp2696
a((g82
g83
tI-1
tp2697
a((g245
g246
tI-1
tp2698
a((g278
g279
tI-1
tp2699
asg12
g278
sg13
(dp2700
g15
Nsg16
g45
sg18
I8
ssg16
g19
sg18
I481
sg20
g279
sg15
(dp2701
g15
(dp2702
g126
I0
sg284
I1
sg124
I0
sg285
I1
sg103
g286
sg287
I0
sg110
I0
sg121
I0
sg113
I0
sg288
I1
sg114
I0
sg130
I0
sg115
F0
sg263
I1
sg289
I0
ssg16
g134
sg18
I482
sssg290
I01
sg263
I10
sg291
F0
ssg16
g134
sg18
I477
ssssg16
g134
sg18
I462
ssasg16
g267
sg18
I460
ssg48
S''
sg1264
(dp2703
g2
(lp2704
((g4
g5
tI-1
tp2705
a((g27
g5
tI-1
tp2706
a((g29
g30
tI-1
tp2707
a((g32
g33
tI0
tp2708
a((g1271
g1272
tI0
tp2709
asg12
g1271
sg13
(dp2710
g15
Nsg16
g45
sg18
I1
ssg16
g19
sg18
I483
sg20
g1272
sg15
(dp2711
g15
(dp2712
g1277
(dp2713
g15
S'H4sIAAX4l0YC/53OsQrCMBQF0P3+SLIY0lbBQXDOksGsgjRpCoJNQ/oC5u99VL/A4Q6Pe7i8kOqS\nmwpriWqpL3qOpYwNjxLDmjYqNRByBxl2hzR9+9xDGg1ywgvQLQ98sjI96CcnajkiHyGdmM8CrFkw\nPTEb4MRFwFprDh328Jg3WnNxf2v9X2Z95W+8+gDYoI1C1QAAAA==\n'
p2714
sg16
g119
sg18
I490
ssg1280
I01
sg1281
(dp2715
g2
(lp2716
((g4
g5
tI-1
tp2717
a((g7
g5
tI-1
tp2718
a((g73
g74
tI-1
tp2719
a((g76
g77
tI-1
tp2720
a((g79
g80
tI-1
tp2721
a((g1289
g1290
tI-1
tp2722
a((g1292
g1293
tI-1
tp2723
asg12
g1292
sg13
(dp2724
g15
Nsg16
g45
sg18
I8
ssg16
g19
sg18
I491
sg20
g1293
sg15
(dp2725
g15
(dp2726
g1298
I2
sg201
g1299
sg1300
(dp2727
g15
S'H4sIAAX4l0YC/33OMQvCMBAF4P39kWQxpK2Cg+CcJYNZBWnSFASbhngB8+89qqM4vOF4H48LqS65\nqbCWqJb6oPtYythwKzGs6UmlBkLuIMPmkKZPn3tIo0FOeAG65IFPVqYHfeVELUfkPaQT81GANQum\nB2YDnDgJWGvNrsMWHvNGay6uL61/Z9bnvyW/4tUbw9sFJ9IAAAA=\n'
p2728
sg16
g119
sg18
I493
ssg1303
(dp2729
g15
S'H4sIAAb4l0YC/53OsQrCMBQF0P3+SLIY0lbBQXDOksGsgjRpCoJNQ/oC5u99VL/A4Q6Pe7i8kOqS\nmwpriWqpL3qOpYwNjxLDmjYqNRByBxl2hzR9+9xDGg1ywgvQLQ98sjI96CcnajkiHyGdmM8CrFkw\nPTEb4MRFwFprDh328Jg3WnNxf2v9X2Z95W+8+gDYoI1C1QAAAA==\n'
p2730
sg16
g119
sg18
I495
ssg1306
(dp2731
g15
S'H4sIAAX4l0YC/33OMQvCMBAF4P39kXSxpK3FCopzEDpY3ALSpBEKNg3xCum/96jODm94vI/jrF+m\nsOZ2ji6flheNfYz9ikd0dvZvioslhAKZ3Rz88N1DiUxJUCeMAN1CxZWVKkE/OdAaHMIeWSeejQBr\nFkxrZhU6cRJo21btCmzhY0ZJycNVJ9voJA9nnY7mrpOrL1zlv/ATJv8A/YiyW8wAAAA=\n'
p2732
sg16
g119
sg18
I494
ssg1309
I256
sg1310
g1311
sg126
I0
sg1312
I256
sg1313
(dp2733
g15
S'H4sIAAb4l0YC/33OMQvCMBAF4P39kWQxpK2Cg+CcJYNZBWnSFASbhngB8+89qqM4vOF4H48LqS65\nqbCWqJb6oPtYythwKzGs6UmlBkLuIMPmkKZPn3tIo0FOeAG65IFPVqYHfeVELUfkPaQT81GANQum\nB2YDnDgJWGvNrsMWHvNGay6uL61/Z9bnvyW/4tUbw9sFJ9IAAAA=\n'
p2734
sg16
g119
sg18
I496
ssg1316
I0
sg1317
(dp2735
g15
S'H4sIAAb4l0YC/33OMQvCMBAF4P39kWQxpK2Cg+CcJYNZBWnSFASbhngB8+89qqM4vOF4H48LqS65\nqbCWqJb6oPtYythwKzGs6UmlBkLuIMPmkKZPn3tIo0FOeAG65IFPVqYHfeVELUfkPaQT81GANQum\nB2YDnDgJWGvNrsMWHvNGay6uL61/Z9bnvyW/4tUbw9sFJ9IAAAA=\n'
p2736
sg16
g119
sg18
I497
ssg110
I0
sg1320
F1
sg1321
g1322
sg121
I0
ssg16
g134
sg18
I492
sssg1323
(dp2737
g2
(lp2738
((g4
g5
tI-1
tp2739
a((g7
g5
tI-1
tp2740
a((g73
g74
tI-1
tp2741
a((g76
g77
tI-1
tp2742
a((g79
g80
tI-1
tp2743
a((g1197
g1198
tI-1
tp2744
asg12
g1197
sg13
(dp2745
g15
Nsg16
g45
sg18
I8
ssg16
g19
sg18
I485
sg20
g1198
sg15
(dp2746
g15
(dp2747
g163
F1
sg1203
g1204
sg1205
I12
sg204
F0
sg1206
F0
sg1207
I1
sg1208
g1335
sg1210
I0
sg126
I0
sg1211
F1.1000000000000001
sg741
(dp2748
g15
Nsg16
g45
sg18
I19
ssg1213
I1
sg1214
(dp2749
g15
S'H4sIAAX4l0YC/03NsQrDIBDG8f17EV0qmqRbX8DFoa6FEo2BQJOIPaG+fY+00A7/4bgfd3Gra24q\n7iWptT5oGUsZG+4lxX17UqmRkA1kPBy26bPPHaTVIC+CAF1zzyMr24G+cqKWE/IA6cUyCLBmwfTM\nrIcXFwHnnD0ZHPGxYLXmxe2lDad/zfN//DCoN80p7hW4AAAA\n'
p2750
sg16
g119
sg18
I487
ssg110
I0
sg1217
I1
sg1218
I0
sg1220
g1221
sg121
I0
sg1222
I1
ssg16
g134
sg18
I486
sssg1339
(dp2751
g2
(lp2752
((g4
g5
tI-1
tp2753
a((g7
g5
tI-1
tp2754
a((g73
g74
tI-1
tp2755
a((g76
g77
tI-1
tp2756
a((g79
g80
tI-1
tp2757
a((g1197
g1198
tI-1
tp2758
asg12
g1197
sg13
(dp2759
g15
Nsg16
g45
sg18
I8
ssg16
g19
sg18
I498
sg20
g1198
sg15
(dp2760
g15
(dp2761
g163
F1
sg1203
g1204
sg1205
I12
sg204
F0
sg1206
F0
sg1207
I1
sg1208
g1335
sg1210
I0
sg126
I0
sg1211
F1.1000000000000001
sg741
(dp2762
g15
Nsg16
g45
sg18
I19
ssg1213
I1
sg1214
(dp2763
g15
S'H4sIAAb4l0YC/03NsQrDIBDG8f17EV0qmqRbX8DFoa6FEo2BQJOIPaG+fY+00A7/4bgfd3Gra24q\n7iWptT5oGUsZG+4lxX17UqmRkA1kPBy26bPPHaTVIC+CAF1zzyMr24G+cqKWE/IA6cUyCLBmwfTM\nrIcXFwHnnD0ZHPGxYLXmxe2lDad/zfN//DCoN80p7hW4AAAA\n'
p2764
sg16
g119
sg18
I500
ssg110
I0
sg1217
I1
sg1218
I0
sg1220
g1221
sg121
I0
sg1222
I1
ssg16
g134
sg18
I499
sssg1354
(dp2765
g2
(lp2766
((g4
g5
tI-1
tp2767
a((g7
g5
tI-1
tp2768
a((g73
g74
tI-1
tp2769
a((g76
g77
tI-1
tp2770
a((g79
g80
tI-1
tp2771
a((g699
g700
tI-1
tp2772
a((g1363
g1364
tI-1
tp2773
asg12
g1363
sg13
(dp2774
g15
Nsg16
g45
sg18
I8
ssg16
g19
sg18
I488
sg20
g1364
sg15
(dp2775
g15
(dp2776
g708
S'i'
sg709
I0
sg126
I0
sg710
F0.55000001192092896
sg121
I0
sg711
I0
sg712
I0
sg110
I0
sg713
I0
ssg16
g134
sg18
I489
sssg1043
S''
sg1369
g2418
sg1371
(dp2777
g15
Nsg16
g45
sg18
I490
ssg50
S''
sg1312
I256
sg1373
g2418
sg48
S''
sg1375
I01
sg1376
I8
sg1377
I00
sg1378
(dp2778
g2
(lp2779
((g4
g5
tI-1
tp2780
a((g7
g5
tI-1
tp2781
a((g73
g74
tI-1
tp2782
a((g76
g77
tI-1
tp2783
a((g79
g80
tI-1
tp2784
a((g187
g188
tI-1
tp2785
a((g1387
g1388
tI-1
tp2786
a((g1390
g1391
tI-1
tp2787
asg12
g1390
sg13
(dp2788
g15
Nsg16
g45
sg18
I8
ssg16
g19
sg18
I501
sg20
g1391
sg15
(dp2789
g15
(dp2790
g126
I0
sg215
I1
sg204
g1396
sg1397
F0.80000000000000004
sg1398
S'%-#6.3g'
p2791
sg1376
I8
sg207
I1
sg208
I1
sg209
I1
sg210
I1
sg121
I0
sg1400
I256
sg1401
I0
sg1402
(dp2792
g15
S'H4sIAAb4l0YC/2XOMQuDMBAF4P39kWSpaGxAoeCcxaGugaIxQqFqSC8Q/30P263DGx7v4zi3pTUc\nhdujL9b0oucY43jgEb3btzfF5AihgnSnwzZ/96AgTQkaxCRA91BzZWUU6CdnOoJHuEIOYmkEWLNg\nqpnVGMRNoO97c6lwho9Npix5sLkdOe1/fNvZ7GqbFy2ttblZuCqO7viLqfgAbt3QTs0AAAA=\n'
p2793
sg16
g119
sg18
I504
ssg211
I1
sg212
(dp2794
g15
S'H4sIAAb4l0YC/2XOMQuDMBAF4P39kbhUjFpQKDiWLA51DZQkplCoGtITYvvne9huHd5wvI/HuXmd\nwpa7Jfp8Wh90NzGaDdfo3TI/Ka6OECQytzvM47cPJTJVgAZhBegSKj5ZqRL0kyNtwSPUyAZxawRY\ns2B6ZFZhECeBvu/VQWIPj1lVFFzo1BpO+x/bdm+dZK2T8WedvHzp1NQdf2DzD7ndMtDJAAAA\n'
p2795
sg16
g119
sg18
I503
ssg1407
F0.17000000000000001
sg110
I0
sg1408
I0
ssg16
g134
sg18
I502
sssg1409
(dp2796
g15
S'H4sIAAb4l0YC/53OsQrCMBQF0P3+SLIY0lbBQXDOksGsgjRpCoJNQ/oC5u99VL/A4Q6Pe7i8kOqS\nmwpriWqpL3qOpYwNjxLDmjYqNRByBxl2hzR9+9xDGg1ywgvQLQ98sjI96CcnajkiHyGdmM8CrFkw\nPTEb4MRFwFprDh328Jg3WnNxf2v9X2Z95W+8+gDYoI1C1QAAAA==\n'
p2797
sg16
g119
sg18
I505
ssg1218
I00
sg1412
g1413
sg1414
I00
ssg16
g134
sg18
I484
sssg1415
(dp2798
g2
(lp2799
((g4
g5
tI-1
tp2800
a((g27
g5
tI-1
tp2801
a((g29
g30
tI-1
tp2802
a((g32
g33
tI0
tp2803
a((g1271
g1272
tI0
tp2804
asg12
g1271
sg13
(dp2805
g15
Nsg16
g45
sg18
I1
ssg16
g19
sg18
I506
sg20
g1272
sg15
(dp2806
g15
(dp2807
g1277
(dp2808
g15
S'H4sIAAb4l0YC/53OsQrCMBQF0P3+SLIY0lbBQXDOksGsgjRpCoJNQ/oC5u99VL/A4Q6Pe7i8kOqS\nmwpriWqpL3qOpYwNjxLDmjYqNRByBxl2hzR9+9xDGg1ywgvQLQ98sjI96CcnajkiHyGdmM8CrFkw\nPTEb4MRFwFprDh328Jg3WnNxf2v9X2Z95W+8+gDYoI1C1QAAAA==\n'
p2809
sg16
g119
sg18
I513
ssg1280
I01
sg1281
(dp2810
g2
(lp2811
((g4
g5
tI-1
tp2812
a((g7
g5
tI-1
tp2813
a((g73
g74
tI-1
tp2814
a((g76
g77
tI-1
tp2815
a((g79
g80
tI-1
tp2816
a((g1289
g1290
tI-1
tp2817
a((g1292
g1293
tI-1
tp2818
asg12
g1292
sg13
(dp2819
g15
Nsg16
g45
sg18
I8
ssg16
g19
sg18
I514
sg20
g1293
sg15
(dp2820
g15
(dp2821
g1298
I2
sg201
g1299
sg1300
(dp2822
g15
S'H4sIAAb4l0YC/33OMQvCMBAF4P39kWQxpK2Cg+CcJYNZBWnSFASbhngB8+89qqM4vOF4H48LqS65\nqbCWqJb6oPtYythwKzGs6UmlBkLuIMPmkKZPn3tIo0FOeAG65IFPVqYHfeVELUfkPaQT81GANQum\nB2YDnDgJWGvNrsMWHvNGay6uL61/Z9bnvyW/4tUbw9sFJ9IAAAA=\n'
p2823
sg16
g119
sg18
I516
ssg1303
(dp2824
g15
S'H4sIAAb4l0YC/53OsQrCMBQF0P3+SLIY0lbBQXDOksGsgjRpCoJNQ/oC5u99VL/A4Q6Pe7i8kOqS\nmwpriWqpL3qOpYwNjxLDmjYqNRByBxl2hzR9+9xDGg1ywgvQLQ98sjI96CcnajkiHyGdmM8CrFkw\nPTEb4MRFwFprDh328Jg3WnNxf2v9X2Z95W+8+gDYoI1C1QAAAA==\n'
p2825
sg16
g119
sg18
I518
ssg1306
(dp2826
g15
S'H4sIAAb4l0YC/33OMQvCMBAF4P39kXSxpK3FCopzEDpY3ALSpBEKNg3xCum/96jODm94vI/jrF+m\nsOZ2ji6flheNfYz9ikd0dvZvioslhAKZ3Rz88N1DiUxJUCeMAN1CxZWVKkE/OdAaHMIeWSeejQBr\nFkxrZhU6cRJo21btCmzhY0ZJycNVJ9voJA9nnY7mrpOrL1zlv/ATJv8A/YiyW8wAAAA=\n'
p2827
sg16
g119
sg18
I517
ssg1309
I256
sg1310
g1311
sg126
I0
sg1312
I256
sg1313
(dp2828
g15
S'H4sIAAb4l0YC/33OMQvCMBAF4P39kWQxpK2Cg+CcJYNZBWnSFASbhngB8+89qqM4vOF4H48LqS65\nqbCWqJb6oPtYythwKzGs6UmlBkLuIMPmkKZPn3tIo0FOeAG65IFPVqYHfeVELUfkPaQT81GANQum\nB2YDnDgJWGvNrsMWHvNGay6uL61/Z9bnvyW/4tUbw9sFJ9IAAAA=\n'
p2829
sg16
g119
sg18
I519
ssg1316
I0
sg1317
(dp2830
g15
S'H4sIAAb4l0YC/33OMQvCMBAF4P39kWQxpK2Cg+CcJYNZBWnSFASbhngB8+89qqM4vOF4H48LqS65\nqbCWqJb6oPtYythwKzGs6UmlBkLuIMPmkKZPn3tIo0FOeAG65IFPVqYHfeVELUfkPaQT81GANQum\nB2YDnDgJWGvNrsMWHvNGay6uL61/Z9bnvyW/4tUbw9sFJ9IAAAA=\n'
p2831
sg16
g119
sg18
I520
ssg110
I0
sg1320
F1
sg1321
g1322
sg121
I0
ssg16
g134
sg18
I515
sssg1323
(dp2832
g2
(lp2833
((g4
g5
tI-1
tp2834
a((g7
g5
tI-1
tp2835
a((g73
g74
tI-1
tp2836
a((g76
g77
tI-1
tp2837
a((g79
g80
tI-1
tp2838
a((g1197
g1198
tI-1
tp2839
asg12
g1197
sg13
(dp2840
g15
Nsg16
g45
sg18
I8
ssg16
g19
sg18
I508
sg20
g1198
sg15
(dp2841
g15
(dp2842
g163
F1
sg1203
g1204
sg1205
I12
sg204
F0
sg1206
F0
sg1207
I1
sg1208
g1335
sg1210
I0
sg126
I0
sg1211
F1.1000000000000001
sg741
(dp2843
g15
Nsg16
g45
sg18
I19
ssg1213
I1
sg1214
(dp2844
g15
S'H4sIAAb4l0YC/03NsQrDIBDG8f17EV0qmqRbX8DFoa6FEo2BQJOIPaG+fY+00A7/4bgfd3Gra24q\n7iWptT5oGUsZG+4lxX17UqmRkA1kPBy26bPPHaTVIC+CAF1zzyMr24G+cqKWE/IA6cUyCLBmwfTM\nrIcXFwHnnD0ZHPGxYLXmxe2lDad/zfN//DCoN80p7hW4AAAA\n'
p2845
sg16
g119
sg18
I510
ssg110
I0
sg1217
I1
sg1218
I0
sg1220
g1221
sg121
I0
sg1222
I1
ssg16
g134
sg18
I509
sssg1339
(dp2846
g2
(lp2847
((g4
g5
tI-1
tp2848
a((g7
g5
tI-1
tp2849
a((g73
g74
tI-1
tp2850
a((g76
g77
tI-1
tp2851
a((g79
g80
tI-1
tp2852
a((g1197
g1198
tI-1
tp2853
asg12
g1197
sg13
(dp2854
g15
Nsg16
g45
sg18
I8
ssg16
g19
sg18
I521
sg20
g1198
sg15
(dp2855
g15
(dp2856
g163
F1
sg1203
g1204
sg1205
I12
sg204
F0
sg1206
F0
sg1207
I1
sg1208
g1335
sg1210
I0
sg126
I0
sg1211
F1.1000000000000001
sg741
(dp2857
g15
Nsg16
g45
sg18
I19
ssg1213
I1
sg1214
(dp2858
g15
S'H4sIAAb4l0YC/03NsQrDIBDG8f17EV0qmqRbX8DFoa6FEo2BQJOIPaG+fY+00A7/4bgfd3Gra24q\n7iWptT5oGUsZG+4lxX17UqmRkA1kPBy26bPPHaTVIC+CAF1zzyMr24G+cqKWE/IA6cUyCLBmwfTM\nrIcXFwHnnD0ZHPGxYLXmxe2lDad/zfN//DCoN80p7hW4AAAA\n'
p2859
sg16
g119
sg18
I523
ssg110
I0
sg1217
I1
sg1218
I0
sg1220
g1221
sg121
I0
sg1222
I1
ssg16
g134
sg18
I522
sssg1354
(dp2860
g2
(lp2861
((g4
g5
tI-1
tp2862
a((g7
g5
tI-1
tp2863
a((g73
g74
tI-1
tp2864
a((g76
g77
tI-1
tp2865
a((g79
g80
tI-1
tp2866
a((g699
g700
tI-1
tp2867
a((g1363
g1364
tI-1
tp2868
asg12
g1363
sg13
(dp2869
g15
Nsg16
g45
sg18
I8
ssg16
g19
sg18
I511
sg20
g1364
sg15
(dp2870
g15
(dp2871
g708
S'i'
sg709
I0
sg126
I0
sg710
F0.55000001192092896
sg121
I0
sg711
I0
sg712
I0
sg110
I0
sg713
I0
ssg16
g134
sg18
I512
sssg1043
S''
sg1369
g1490
sg1371
(dp2872
g15
Nsg16
g45
sg18
I513
ssg50
S''
sg1312
I256
sg1373
g1490
sg48
S''
sg1375
I01
sg1376
I8
sg1377
I00
sg1378
(dp2873
g2
(lp2874
((g4
g5
tI-1
tp2875
a((g7
g5
tI-1
tp2876
a((g73
g74
tI-1
tp2877
a((g76
g77
tI-1
tp2878
a((g79
g80
tI-1
tp2879
a((g187
g188
tI-1
tp2880
a((g1387
g1388
tI-1
tp2881
a((g1390
g1391
tI-1
tp2882
asg12
g1390
sg13
(dp2883
g15
Nsg16
g45
sg18
I8
ssg16
g19
sg18
I524
sg20
g1391
sg15
(dp2884
g15
(dp2885
g126
I0
sg215
I1
sg204
g1396
sg1397
F0.80000000000000004
sg1398
S'%-#6.3g'
p2886
sg1376
I8
sg207
I1
sg208
I1
sg209
I1
sg210
I1
sg121
I0
sg1400
I256
sg1401
I0
sg1402
(dp2887
g15
S'H4sIAAb4l0YC/2XOMQuDMBAF4P39kWSpaGxAoeCcxaGugaIxQqFqSC8Q/30P263DGx7v4zi3pTUc\nhdujL9b0oucY43jgEb3btzfF5AihgnSnwzZ/96AgTQkaxCRA91BzZWUU6CdnOoJHuEIOYmkEWLNg\nqpnVGMRNoO97c6lwho9Npix5sLkdOe1/fNvZ7GqbFy2ttblZuCqO7viLqfgAbt3QTs0AAAA=\n'
p2888
sg16
g119
sg18
I527
ssg211
I1
sg212
(dp2889
g15
S'H4sIAAb4l0YC/2XOMQuDMBAF4P39kbhUjFpQKDiWLA51DZQkplCoGtITYvvne9huHd5wvI/HuXmd\nwpa7Jfp8Wh90NzGaDdfo3TI/Ka6OECQytzvM47cPJTJVgAZhBegSKj5ZqRL0kyNtwSPUyAZxawRY\ns2B6ZFZhECeBvu/VQWIPj1lVFFzo1BpO+x/bdm+dZK2T8WedvHzp1NQdf2DzD7ndMtDJAAAA\n'
p2890
sg16
g119
sg18
I526
ssg1407
F0.17000000000000001
sg110
I0
sg1408
I0
ssg16
g134
sg18
I525
sssg1409
(dp2891
g15
S'H4sIAAb4l0YC/53OsQrCMBQF0P3+SLIY0lbBQXDOksGsgjRpCoJNQ/oC5u99VL/A4Q6Pe7i8kOqS\nmwpriWqpL3qOpYwNjxLDmjYqNRByBxl2hzR9+9xDGg1ywgvQLQ98sjI96CcnajkiHyGdmM8CrFkw\nPTEb4MRFwFprDh328Jg3WnNxf2v9X2Z95W+8+gDYoI1C1QAAAA==\n'
p2892
sg16
g119
sg18
I528
ssg1218
I00
sg1412
g1413
sg1414
I00
ssg16
g134
sg18
I507
ssssg16
g134
sg18
I459
ssasg16
g267
sg18
I457
ssg2293
I0
ssg16
g134
sg18
I456
ssasg16
g267
sg18
I151
sssg16
g134
sg18
I29
ssasg16
g267
sg18
I27
sssg16
g134
sg18
I2
ss.