(dp1
S'version'
p2
(lp3
((S'HasTraits'
p4
S'enthought.traits.has_traits'
p5
tI-1
tp6
a((S'HasStrictTraits'
p7
g5
tI-1
tp8
a((S'Engine'
p9
S'enthought.mayavi.engine'
p10
tI0
tp11
asS'class_name'
p12
g9
sS'initargs'
p13
(dp14
S'data'
p15
(tsS'type'
p16
S'tuple'
p17
sS'id'
p18
I1
ssg16
S'instance'
p19
sg18
I0
sS'module'
p20
g10
sg15
(dp21
g15
(dp22
S'_current_selection'
p23
(dp24
g2
(lp25
((g4
g5
tI-1
tp26
a((S'HasPrivateTraits'
p27
g5
tI-1
tp28
a((S'TreeNodeObject'
p29
S'enthought.traits.ui.tree_node'
p30
tI-1
tp31
a((S'Base'
p32
S'enthought.mayavi.core.base'
p33
tI0
tp34
a((S'PipelineBase'
p35
S'enthought.mayavi.core.pipeline_base'
p36
tI0
tp37
a((S'Source'
p38
S'enthought.mayavi.core.source'
p39
tI0
tp40
a((S'FileDataSource'
p41
S'enthought.mayavi.core.file_data_source'
p42
tI0
tp43
a((S'VTKFileReader'
p44
S'enthought.mayavi.sources.vtk_file_reader'
p45
tI0
tp46
asg12
g44
sg13
(dp47
g15
Nsg16
S'reference'
p48
sg18
I1
ssg16
g19
sg18
I3
sg20
g45
sg15
(dp49
g15
(dp50
S'name'
p51
S''
sS'file_path'
p52
(dp53
g2
(lp54
((S'FilePath'
p55
S'enthought.persistence.file_path'
p56
tI-1
tp57
asg12
g55
sg13
(dp58
g15
Nsg16
g48
sg18
I1
ssg16
g19
sg18
I169
sg20
g56
sg15
(dp59
g15
(dp60
S'rel_pth'
p61
S'rsng-p0500-g0500.velo-000.vtk'
p62
sS'abs_pth'
p63
S'/home/laa/benchmarks/rsng-p0500-g0500.velo-000.vtk'
p64
ssg16
S'dict'
p65
sg18
I170
sssS'_saved_state'
p66
S''
sS'_timestep'
p67
I0
sS'reader'
p68
(dp69
g2
(lp70
((g4
g5
tI-1
tp71
a((g7
g5
tI-1
tp72
a((S'TVTKBase'
p73
S'enthought.tvtk.tvtk_base'
p74
tI-1
tp75
a((S'ObjectBase'
p76
S'tvtk_classes.object_base'
p77
tI-1
tp78
a((S'Object'
p79
S'tvtk_classes.object'
p80
tI-1
tp81
a((S'Algorithm'
p82
S'tvtk_classes.algorithm'
p83
tI-1
tp84
a((S'DataReader'
p85
S'tvtk_classes.data_reader'
p86
tI-1
tp87
a((S'DataSetReader'
p88
S'tvtk_classes.data_set_reader'
p89
tI-1
tp90
asg12
g88
sg13
(dp91
g15
Nsg16
g48
sg18
I14
ssg16
g19
sg18
I167
sg20
g89
sg15
(dp92
g15
(dp93
S'read_all_tensors_'
p94
I0
sS'file_name'
p95
S'/home/laa/benchmarks/rsng-p0500-g0500.velo-000.vtk'
p96
sS'read_all_vectors_'
p97
I0
sS'read_all_vectors'
p98
I0
sS'debug_'
p99
I0
sS'read_all_color_scalars_'
p100
I0
sS'read_all_t_coords'
p101
I0
sS'read_from_input_string'
p102
I0
sS'read_all_normals'
p103
I0
sS'abort_execute'
p104
I0
sS'read_all_scalars_'
p105
I0
sS'release_data_flag'
p106
I0
sS'progress'
p107
F1
sS'global_warning_display_'
p108
I0
sS'read_all_fields_'
p109
I0
sS'debug'
p110
I0
sS'read_all_color_scalars'
p111
I0
sS'read_all_fields'
p112
I0
sS'read_from_input_string_'
p113
I0
sS'read_all_tensors'
p114
I0
sS'abort_execute_'
p115
I0
sS'read_all_normals_'
p116
I0
sS'read_all_scalars'
p117
I0
sS'read_all_t_coords_'
p118
I0
sS'release_data_flag_'
p119
I0
ssg16
g65
sg18
I168
sssS'_min_timestep'
p120
I0
sS'children'
p121
(dp122
g15
(lp123
(dp124
g2
(lp125
((g4
g5
tI-1
tp126
a((g27
g5
tI-1
tp127
a((g29
g30
tI-1
tp128
a((g32
g33
tI0
tp129
a((S'ModuleManager'
p130
S'enthought.mayavi.core.module_manager'
p131
tI0
tp132
asg12
g130
sg13
(dp133
g15
Nsg16
g48
sg18
I1
ssg16
g19
sg18
I6
sg20
g131
sg15
(dp134
g15
(dp135
g51
S''
sS'lut_data_mode'
p136
S'auto'
p137
sg121
(dp138
g15
(lp139
(dp140
g2
(lp141
((g4
g5
tI-1
tp142
a((g27
g5
tI-1
tp143
a((g29
g30
tI-1
tp144
a((g32
g33
tI0
tp145
a((g35
g36
tI0
tp146
a((S'Module'
p147
S'enthought.mayavi.core.module'
p148
tI0
tp149
a((S'Outline'
p150
S'enthought.mayavi.modules.outline'
p151
tI0
tp152
asg12
g150
sg13
(dp153
g15
Nsg16
g48
sg18
I1
ssg16
g19
sg18
I9
sg20
g151
sg15
(dp154
g15
(dp155
S'outline_filter'
p156
(dp157
g2
(lp158
((g4
g5
tI-1
tp159
a((g7
g5
tI-1
tp160
a((g73
g74
tI-1
tp161
a((g76
g77
tI-1
tp162
a((g79
g80
tI-1
tp163
a((g82
g83
tI-1
tp164
a((S'PolyDataAlgorithm'
p165
S'tvtk_classes.poly_data_algorithm'
p166
tI-1
tp167
a((S'OutlineFilter'
p168
S'tvtk_classes.outline_filter'
p169
tI-1
tp170
asg12
g168
sg13
(dp171
g15
Nsg16
g48
sg18
I14
ssg16
g19
sg18
I26
sg20
g169
sg15
(dp172
g15
(dp173
g115
I0
sg119
I0
sg99
I0
sg108
I0
sg104
I0
sg106
I0
sg110
I0
sg107
F1
ssg16
g65
sg18
I27
sssg66
S''
sg51
S''
sS'actor'
p174
(dp175
g2
(lp176
((g4
g5
tI-1
tp177
a((g27
g5
tI-1
tp178
a((g29
g30
tI-1
tp179
a((g32
g33
tI0
tp180
a((g35
g36
tI0
tp181
a((S'Component'
p182
S'enthought.mayavi.core.component'
p183
tI0
tp184
a((S'Actor'
p185
S'enthought.mayavi.components.actor'
p186
tI0
tp187
asg12
g185
sg13
(dp188
g15
Nsg16
g48
sg18
I1
ssg16
g19
sg18
I11
sg20
g186
sg15
(dp189
g15
(dp190
S'mapper'
p191
(dp192
g2
(lp193
((g4
g5
tI-1
tp194
a((g7
g5
tI-1
tp195
a((g73
g74
tI-1
tp196
a((g76
g77
tI-1
tp197
a((g79
g80
tI-1
tp198
a((g82
g83
tI-1
tp199
a((S'AbstractMapper'
p200
S'tvtk_classes.abstract_mapper'
p201
tI-1
tp202
a((S'AbstractMapper3D'
p203
S'tvtk_classes.abstract_mapper3d'
p204
tI-1
tp205
a((S'Mapper'
p206
S'tvtk_classes.mapper'
p207
tI-1
tp208
a((S'PolyDataMapper'
p209
S'tvtk_classes.poly_data_mapper'
p210
tI-1
tp211
asg12
g209
sg13
(dp212
g15
(NI0
tp213
sg16
g17
sg18
I14
ssg16
g19
sg18
I13
sg20
g210
sg15
(dp214
g15
(dp215
S'immediate_mode_rendering'
p216
I0
sS'immediate_mode_rendering_'
p217
I0
sS'scalar_mode'
p218
S'default'
p219
sS'static'
p220
I0
sg99
I0
sS'resolve_coincident_topology_z_shift'
p221
F0.01
sS'ghost_level'
p222
I0
sS'color_mode'
p223
g219
sS'interpolate_scalars_before_mapping'
p224
I0
sg110
I0
sS'resolve_coincident_topology_'
p225
I0
sS'use_lookup_table_scalar_range'
p226
I1
sg104
I0
sg106
I0
sg107
F1
sS'scalar_range'
p227
(dp228
g15
S'H4sIAMYbmEYC/53OsQrCMBQF0P3+SLIY0lbBQXDOksGsgjRpCoJNQ/oC5u99VL/A4Q6Pe7i8kOqS\nmwpriWqpL3qOpYwNjxLDmjYqNRByBxl2hzR9+9xDGg1ywgvQLQ98sjI96CcnajkiHyGdmM8CrFkw\nPTEb4MRFwFprDh328Jg3WnNxf2v9X2Z95W+8+gDYoI1C1QAAAA==\n'
p229
sg16
S'numeric'
p230
sg18
I16
ssS'use_lookup_table_scalar_range_'
p231
I1
sg108
I0
sS'global_immediate_mode_rendering_'
p232
I0
sS'scalar_visibility'
p233
I1
sg115
I0
sS'scalar_visibility_'
p234
I1
sS'static_'
p235
I0
sS'global_immediate_mode_rendering'
p236
I0
sS'interpolate_scalars_before_mapping_'
p237
I0
sS'number_of_sub_pieces'
p238
I1
sS'scalar_material_mode'
p239
g219
sg119
I0
sS'piece'
p240
I0
sS'number_of_pieces'
p241
I1
sS'resolve_coincident_topology'
p242
S'off'
p243
sS'render_time'
p244
F0
ssg16
g65
sg18
I15
sssg66
S''
sS'property'
p245
(dp246
g2
(lp247
((g4
g5
tI-1
tp248
a((g7
g5
tI-1
tp249
a((g73
g74
tI-1
tp250
a((g76
g77
tI-1
tp251
a((g79
g80
tI-1
tp252
a((S'Property'
p253
S'tvtk_classes.property'
p254
tI-1
tp255
a((S'OpenGLProperty'
p256
S'tvtk_classes.open_gl_property'
p257
tI-1
tp258
asg12
g256
sg13
(dp259
g15
Nsg16
g48
sg18
I14
ssg16
g19
sg18
I23
sg20
g257
sg15
(dp260
g15
(dp261
S'diffuse_color'
p262
(dp263
g15
Nsg16
g48
sg18
I25
ssS'backface_culling'
p264
I0
sS'specular_power'
p265
F1
sS'edge_color'
p266
(dp267
g15
(F1
F1
F1
tp268
sg16
g17
sg18
I25
ssS'ambient'
p269
F0
sS'edge_visibility'
p270
I0
sS'interpolation'
p271
S'gouraud'
p272
sS'opacity'
p273
F1
sS'frontface_culling'
p274
I0
sS'point_size'
p275
F1
sS'specular_color'
p276
(dp277
g15
Nsg16
g48
sg18
I25
ssS'ambient_color'
p278
(dp279
g15
Nsg16
g48
sg18
I25
ssg108
I0
sS'backface_culling_'
p280
I0
sS'diffuse'
p281
F1
sS'edge_visibility_'
p282
I0
sg99
I0
sS'specular'
p283
F0
sS'frontface_culling_'
p284
I0
sS'line_stipple_pattern'
p285
I65535
sg110
I0
sS'representation'
p286
S'surface'
p287
sS'line_stipple_repeat_factor'
p288
I1
sS'line_width'
p289
F1
ssg16
g65
sg18
I24
sssg51
S''
sg174
(dp290
g2
(lp291
((g4
g5
tI-1
tp292
a((g7
g5
tI-1
tp293
a((g73
g74
tI-1
tp294
a((g76
g77
tI-1
tp295
a((g79
g80
tI-1
tp296
a((S'Prop'
p297
S'tvtk_classes.prop'
p298
tI-1
tp299
a((S'Prop3D'
p300
S'tvtk_classes.prop3d'
p301
tI-1
tp302
a((g185
S'tvtk_classes.actor'
p303
tI-1
tp304
asg12
g185
sg13
(dp305
g15
Nsg16
g48
sg18
I14
ssg16
g19
sg18
I17
sg20
g303
sg15
(dp306
g15
(dp307
S'origin'
p308
(dp309
g15
S'H4sIAMYbmEYC/7XOMQoCMRAF0P5fJGkMWVfBwguk2cK0gmyyEQQ3O8QJmNs7RK9g8YvhPz4Tc12p\nmbiVZNb65MdcytxwKylu+cWlRgYN0LE75OXb0x7aWbBXQYEvNMopyo3gn1y4UQIdoL26nxREixB6\n7Myrs8I0TW43oEfGgrNWiuvb2n9GHg7mAy0aBDD4AAAA\n'
p310
sg16
g230
sg18
I19
ssS'scale'
p311
(dp312
g15
S'H4sIAMYbmEYC/53OMQvCMBAF4P39kWQxpFbBQXDOksGsgjRpCoJtQ3oB8+89oqOTwxuO9/G4sJQ5\nVRXWHNVcnvQYch4q7jmGddkol0BIHWRoDsv46dMe0miQE16Arqnnk5XpQV85Uk0R6QDpxHQSYM2C\n6bExJ84C1lqz69DCY95ozcXtpfXvTPryf8l/evUGx/o6Le8AAAA=\n'
p313
sg16
g230
sg18
I21
ssS'orientation'
p314
(dp315
g15
S'H4sIAMYbmEYC/53OsQoCMRAE0H5+JGkMOU/hCn8gTQrTCnLJRRC8XIgbMH/vEu0FiymWeQwbUl1z\nU2ErUa31Qfe5lLnhWmLY0pNKDYQ8QIbukJZPn/eQRoOc8AJ0ziOfrMwI+sqFWo7IB0gnbpMAaxZM\nj505cRKw1prdgB4e80ZrLi4vrf/P9NPww169AaZN3yn4AAAA\n'
p316
sg16
g230
sg18
I20
ssg110
I0
sS'dragable'
p317
I1
sS'visibility'
p318
I1
sS'pickable_'
p319
I1
sS'dragable_'
p320
I1
sg108
I0
sg99
I0
sS'visibility_'
p321
I1
sS'position'
p322
(dp323
g15
S'H4sIAMYbmEYC/7XOMQoCMRAF0P5fJGkMWVfBwguk2cK0gmyyEQQ3O8QJmNs7RK9g8YvhPz4Tc12p\nmbiVZNb65MdcytxwKylu+cWlRgYN0LE75OXb0x7aWbBXQYEvNMopyo3gn1y4UQIdoL26nxREixB6\n7Myrs8I0TW43oEfGgrNWiuvb2n9GHg7mAy0aBDD4AAAA\n'
p324
sg16
g230
sg18
I22
ssS'pickable'
p325
I1
ssg16
g65
sg18
I18
ssssg16
g65
sg18
I12
ssssg16
g65
sg18
I10
ssa(dp326
g2
(lp327
((g4
g5
tI-1
tp328
a((g27
g5
tI-1
tp329
a((g29
g30
tI-1
tp330
a((g32
g33
tI0
tp331
a((g35
g36
tI0
tp332
a((g147
g148
tI0
tp333
a((S'OrientationAxes'
p334
S'enthought.mayavi.modules.orientation_axes'
p335
tI0
tp336
asg12
g334
sg13
(dp337
g15
Nsg16
g48
sg18
I1
ssg16
g19
sg18
I28
sg20
g335
sg15
(dp338
g15
(dp339
S'_text_property'
p340
(dp341
g2
(lp342
((g4
g5
tI-1
tp343
a((g7
g5
tI-1
tp344
a((g73
g74
tI-1
tp345
a((g76
g77
tI-1
tp346
a((g79
g80
tI-1
tp347
a((S'TextProperty'
p348
S'tvtk_classes.text_property'
p349
tI-1
tp350
asg12
g348
sg13
(dp351
g15
Nsg16
g48
sg18
I14
ssg16
g19
sg18
I30
sg20
g349
sg15
(dp352
g15
(dp353
g273
F1
sS'justification'
p354
S'left'
p355
sS'font_size'
p356
I12
sg314
F0
sS'line_offset'
p357
F0
sS'italic_'
p358
I0
sS'vertical_justification'
p359
S'centered'
p360
sS'shadow_'
p361
I0
sg99
I0
sS'line_spacing'
p362
F1.1000000000000001
sS'color'
p363
(dp364
g15
Nsg16
g48
sg18
I25
ssS'italic'
p365
I0
sS'shadow_offset'
p366
(dp367
g15
S'H4sIAMYbmEYC/03NsQrDIBDG8f17EV0qmqRbX8DFoa6FEo2BQJOIPaG+fY+00A7/4bgfd3Gra24q\n7iWptT5oGUsZG+4lxX17UqmRkA1kPBy26bPPHaTVIC+CAF1zzyMr24G+cqKWE/IA6cUyCLBmwfTM\nrIcXFwHnnD0ZHPGxYLXmxe2lDad/zfN//DCoN80p7hW4AAAA\n'
p368
sg16
g230
sg18
I32
ssg110
I0
sS'bold_'
p369
I1
sS'shadow'
p370
I0
sS'vertical_justification_'
p371
I1
sS'font_family'
p372
S'arial'
p373
sg108
I0
sS'bold'
p374
I1
ssg16
g65
sg18
I31
sssS'marker'
p375
(dp376
g2
(lp377
((g4
g5
tI-1
tp378
a((g7
g5
tI-1
tp379
a((g73
g74
tI-1
tp380
a((g76
g77
tI-1
tp381
a((g79
g80
tI-1
tp382
a((S'InteractorObserver'
p383
S'tvtk_classes.interactor_observer'
p384
tI-1
tp385
a((S'OrientationMarkerWidget'
p386
S'tvtk_classes.orientation_marker_widget'
p387
tI-1
tp388
asg12
g386
sg13
(dp389
g15
Nsg16
g48
sg18
I14
ssg16
g19
sg18
I43
sg20
g387
sg15
(dp390
g15
(dp391
S'key_press_activation_value'
p392
S'i'
sS'enabled'
p393
I1
sg99
I0
sS'interactive_'
p394
I1
sS'priority'
p395
F0.55000001192092896
sg108
I0
sS'key_press_activation_'
p396
I0
sS'enabled_'
p397
I1
sg110
I0
sS'key_press_activation'
p398
I0
sS'interactive'
p399
I1
ssg16
g65
sg18
I44
sssg66
S''
sS'axes'
p400
(dp401
g2
(lp402
((g4
g5
tI-1
tp403
a((g7
g5
tI-1
tp404
a((g73
g74
tI-1
tp405
a((g76
g77
tI-1
tp406
a((g79
g80
tI-1
tp407
a((g297
g298
tI-1
tp408
a((g300
g301
tI-1
tp409
a((S'AxesActor'
p410
S'tvtk_classes.axes_actor'
p411
tI-1
tp412
asg12
g410
sg13
(dp413
g15
Nsg16
g48
sg18
I14
ssg16
g19
sg18
I33
sg20
g411
sg15
(dp414
g15
(dp415
g308
(dp416
g15
S'H4sIAMcbmEYC/7XOMQoCMRAF0P5fJGkMWVfBwguk2cK0gmyyEQQ3O8QJmNs7RK9g8YvhPz4Tc12p\nmbiVZNb65MdcytxwKylu+cWlRgYN0LE75OXb0x7aWbBXQYEvNMopyo3gn1y4UQIdoL26nxREixB6\n7Myrs8I0TW43oEfGgrNWiuvb2n9GHg7mAy0aBDD4AAAA\n'
p417
sg16
g230
sg18
I35
ssg314
(dp418
g15
S'H4sIAMcbmEYC/53OsQoCMRAE0H5+JGkMOU/hCn8gTQrTCnLJRRC8XIgbMH/vEu0FiymWeQwbUl1z\nU2ErUa31Qfe5lLnhWmLY0pNKDYQ8QIbukJZPn/eQRoOc8AJ0ziOfrMwI+sqFWo7IB0gnbpMAaxZM\nj505cRKw1prdgB4e80ZrLi4vrf/P9NPww169AaZN3yn4AAAA\n'
p419
sg16
g230
sg18
I36
ssS'normalized_tip_length'
p420
(dp421
g15
S'H4sIAMcbmEYC/53OMQvCMBAF4P39ketiaK2CBcE5SwazCpImFQTbHvEC9t97VDc3hzcc7+NxcSoj\nLybOeTBjecg95BwWXPMQ5+kpuUQBN6ji6jClT89bVLaGeOoJcuZWT1W2hXxlkoUH8A6Vp9uBoFqF\n0v3KPB0Jzjm7abBGx3pb11pcXl3QdL9J3en/Uv/szRs+d+FG7wAAAA==\n'
p422
sg16
g230
sg18
I37
ssg317
I1
sg319
I1
sg99
I0
sg321
I1
sg311
(dp423
g15
S'H4sIAMcbmEYC/53OMQvCMBAF4P39kWQxpFbBQXDOksGsgjRpCoJtQ3oB8+89oqOTwxuO9/G4sJQ5\nVRXWHNVcnvQYch4q7jmGddkol0BIHWRoDsv46dMe0miQE16Arqnnk5XpQV85Uk0R6QDpxHQSYM2C\n6bExJ84C1lqz69DCY95ozcXtpfXvTPryf8l/evUGx/o6Le8AAAA=\n'
p424
sg16
g230
sg18
I39
ssS'cylinder_radius'
p425
F0.050000000000000003
sS'cone_resolution'
p426
I16
sS'cylinder_resolution'
p427
I16
sS'axis_labels'
p428
I1
sS'total_length'
p429
(dp430
g15
S'H4sIAMcbmEYC/53OMQvCMBAF4P39kWQxpFbBQXDOksGsgjRpCoJtQ3oB8+89oqOTwxuO9/G4sJQ5\nVRXWHNVcnvQYch4q7jmGddkol0BIHWRoDsv46dMe0miQE16Arqnnk5XpQV85Uk0R6QDpxHQSYM2C\n6bExJ84C1lqz69DCY95ozcXtpfXvTPryf8l/evUGx/o6Le8AAAA=\n'
p431
sg16
g230
sg18
I40
ssg325
I1
sS'tip_type'
p432
S'cone'
p433
sS'x_axis_label_text'
p434
S'X'
sS'cone_radius'
p435
F0.40000000000000002
sS'z_axis_label_text'
p436
S'Z'
sg318
I1
sg320
I1
sg108
I0
sS'axis_labels_'
p437
I1
sS'y_axis_label_text'
p438
S'Y'
sS'shaft_type_'
p439
I0
sS'sphere_radius'
p440
F0.5
sS'normalized_shaft_length'
p441
(dp442
g15
S'H4sIAMcbmEYC/23NsQoCMQwG4P1/kXax9KyCg+DcpYNdBbn2KgjeXemlYN/eUB0NBBL+jyQudc5N\nxbUkNdcXPcdSxoZ7SXFdNio1EvIAGbvDMn3zvIe0GuRFEKBrNryysgb0kxO1nJAPkF48TgKsWTA9\ndubFWcA5Z3cDevOxYLXmwPS6vZO5/B/5Y1Afbh8AYbkAAAA=\n'
p443
sg16
g230
sg18
I38
ssS'shaft_type'
p444
S'cylinder'
p445
sS'normalized_label_position'
p446
(dp447
g15
S'H4sIAMcbmEYC/53OMQvCMBAF4P39kWQxpFbBQXDOksGsgjRpCoJtQ3oB8+89oqOTwxuO9/G4sJQ5\nVRXWHNVcnvQYch4q7jmGddkol0BIHWRoDsv46dMe0miQE16Arqnnk5XpQV85Uk0R6QDpxHQSYM2C\n6bExJ84C1lqz69DCY95ozcXtpfXvTPryf8l/evUGx/o6Le8AAAA=\n'
p448
sg16
g230
sg18
I41
ssg110
I0
sg322
(dp449
g15
S'H4sIAMcbmEYC/7XOMQoCMRAF0P5fJGkMWVfBwguk2cK0gmyyEQQ3O8QJmNs7RK9g8YvhPz4Tc12p\nmbiVZNb65MdcytxwKylu+cWlRgYN0LE75OXb0x7aWbBXQYEvNMopyo3gn1y4UQIdoL26nxREixB6\n7Myrs8I0TW43oEfGgrNWiuvb2n9GHg7mAy0aBDD4AAAA\n'
p450
sg16
g230
sg18
I42
ssS'sphere_resolution'
p451
I16
ssg16
g65
sg18
I34
sssg51
S''
ssg16
g65
sg18
I29
ssasg16
S'list'
p452
sg18
I8
ssg66
S''
sS'scalar_lut_manager'
p453
(dp454
g2
(lp455
((g4
g5
tI-1
tp456
a((g27
g5
tI-1
tp457
a((g29
g30
tI-1
tp458
a((g32
g33
tI0
tp459
a((S'LUTManager'
p460
S'enthought.mayavi.core.lut_manager'
p461
tI0
tp462
asg12
g460
sg13
(dp463
g15
Nsg16
g48
sg18
I1
ssg16
g19
sg18
I45
sg20
g461
sg15
(dp464
g15
(dp465
S'default_data_range'
p466
(dp467
g15
S'H4sIAMcbmEYC/1WOTQuDMBBE7/NH4qUhfhQ8SO+55FChJ6GYaKBQNcQN6L/v1hZKDw9mmMeybk5T\n2KVb4iin9KRHH2O/4x5Ht8wrxeQIIUfmDg/z8NlDgUwrUCusAF1DyZUtXYC+5kB7GBEqZK3wtQDb\nbLB6Zq1EKxoBY4w+5TjgY1YrxUO3KfXDMd4ynrtv/sde3bqtfofqwn9Y+QKmFGdCzwAAAA==\n'
p468
sg16
g230
sg18
I52
ssS'use_default_name'
p469
I01
sS'lut'
p470
(dp471
g2
(lp472
((g4
g5
tI-1
tp473
a((g7
g5
tI-1
tp474
a((g73
g74
tI-1
tp475
a((g76
g77
tI-1
tp476
a((g79
g80
tI-1
tp477
a((S'ScalarsToColors'
p478
S'tvtk_classes.scalars_to_colors'
p479
tI-1
tp480
a((S'LookupTable'
p481
S'tvtk_classes.lookup_table'
p482
tI-1
tp483
asg12
g481
sg13
(dp484
g15
Nsg16
g48
sg18
I14
ssg16
g19
sg18
I53
sg20
g482
sg15
(dp485
g15
(dp486
S'ramp_'
p487
I2
sg311
S'linear'
p488
sS'saturation_range'
p489
(dp490
g15
S'H4sIAMcbmEYC/33OMQvCMBAF4P39kWQxpK2Cg+CcJYNZBWnSFASbhngB8+89qqM4vOF4H48LqS65\nqbCWqJb6oPtYythwKzGs6UmlBkLuIMPmkKZPn3tIo0FOeAG65IFPVqYHfeVELUfkPaQT81GANQum\nB2YDnDgJWGvNrsMWHvNGay6uL61/Z9bnvyW/4tUbw9sFJ9IAAAA=\n'
p491
sg16
g230
sg18
I55
ssS'table_range'
p492
(dp493
g15
S'H4sIAMcbmEYC/1WOTQuDMBBE7/NH4qUhfhQ8SO+55FChJ6GYaKBQNcQN6L/v1hZKDw9mmMeybk5T\n2KVb4iin9KRHH2O/4x5Ht8wrxeQIIUfmDg/z8NlDgUwrUCusAF1DyZUtXYC+5kB7GBEqZK3wtQDb\nbLB6Zq1EKxoBY4w+5TjgY1YrxUO3KfXDMd4ynrtv/sde3bqtfofqwn9Y+QKmFGdCzwAAAA==\n'
p494
sg16
g230
sg18
I57
ssS'hue_range'
p495
(dp496
g15
S'H4sIAMcbmEYC/33OMQvCMBAF4P39kXSxpK3FCopzEDpY3ALSpBEKNg3xCum/96jODm94vI/jrF+m\nsOZ2ji6flheNfYz9ikd0dvZvioslhAKZ3Rz88N1DiUxJUCeMAN1CxZWVKkE/OdAaHMIeWSeejQBr\nFkxrZhU6cRJo21btCmzhY0ZJycNVJ9voJA9nnY7mrpOrL1zlv/ATJv8A/YiyW8wAAAA=\n'
p497
sg16
g230
sg18
I56
ssS'number_of_table_values'
p498
I256
sS'ramp'
p499
S'sqrt'
p500
sg99
I0
sS'number_of_colors'
p501
I256
sS'alpha_range'
p502
(dp503
g15
S'H4sIAMcbmEYC/33OMQvCMBAF4P39kWQxpK2Cg+CcJYNZBWnSFASbhngB8+89qqM4vOF4H48LqS65\nqbCWqJb6oPtYythwKzGs6UmlBkLuIMPmkKZPn3tIo0FOeAG65IFPVqYHfeVELUfkPaQT81GANQum\nB2YDnDgJWGvNrsMWHvNGay6uL61/Z9bnvyW/4tUbw9sFJ9IAAAA=\n'
p504
sg16
g230
sg18
I58
ssS'vector_component'
p505
I0
sS'value_range'
p506
(dp507
g15
S'H4sIAMcbmEYC/33OMQvCMBAF4P39kWQxpK2Cg+CcJYNZBWnSFASbhngB8+89qqM4vOF4H48LqS65\nqbCWqJb6oPtYythwKzGs6UmlBkLuIMPmkKZPn3tIo0FOeAG65IFPVqYHfeVELUfkPaQT81GANQum\nB2YDnDgJWGvNrsMWHvNGay6uL61/Z9bnvyW/4tUbw9sFJ9IAAAA=\n'
p508
sg16
g230
sg18
I59
ssg110
I0
sS'alpha'
p509
F1
sS'vector_mode'
p510
S'component'
p511
sg108
I0
ssg16
g65
sg18
I54
sssS'_label_text_property'
p512
(dp513
g2
(lp514
((g4
g5
tI-1
tp515
a((g7
g5
tI-1
tp516
a((g73
g74
tI-1
tp517
a((g76
g77
tI-1
tp518
a((g79
g80
tI-1
tp519
a((g348
g349
tI-1
tp520
asg12
g348
sg13
(dp521
g15
Nsg16
g48
sg18
I14
ssg16
g19
sg18
I47
sg20
g349
sg15
(dp522
g15
(dp523
g273
F1
sg354
g355
sg356
I12
sg314
F0
sg357
F0
sg358
I1
sg359
S'bottom'
p524
sg361
I0
sg99
I0
sg362
F1.1000000000000001
sg363
(dp525
g15
Nsg16
g48
sg18
I25
ssg365
I1
sg366
(dp526
g15
S'H4sIAMcbmEYC/03NsQrDIBDG8f17EV0qmqRbX8DFoa6FEo2BQJOIPaG+fY+00A7/4bgfd3Gra24q\n7iWptT5oGUsZG+4lxX17UqmRkA1kPBy26bPPHaTVIC+CAF1zzyMr24G+cqKWE/IA6cUyCLBmwfTM\nrIcXFwHnnD0ZHPGxYLXmxe2lDad/zfN//DCoN80p7hW4AAAA\n'
p527
sg16
g230
sg18
I49
ssg110
I0
sg369
I1
sg370
I0
sg372
g373
sg108
I0
sg374
I1
ssg16
g65
sg18
I48
sssS'_title_text_property'
p528
(dp529
g2
(lp530
((g4
g5
tI-1
tp531
a((g7
g5
tI-1
tp532
a((g73
g74
tI-1
tp533
a((g76
g77
tI-1
tp534
a((g79
g80
tI-1
tp535
a((g348
g349
tI-1
tp536
asg12
g348
sg13
(dp537
g15
Nsg16
g48
sg18
I14
ssg16
g19
sg18
I60
sg20
g349
sg15
(dp538
g15
(dp539
g273
F1
sg354
g355
sg356
I12
sg314
F0
sg357
F0
sg358
I1
sg359
g524
sg361
I0
sg99
I0
sg362
F1.1000000000000001
sg363
(dp540
g15
Nsg16
g48
sg18
I25
ssg365
I1
sg366
(dp541
g15
S'H4sIAMcbmEYC/03NsQrDIBDG8f17EV0qmqRbX8DFoa6FEo2BQJOIPaG+fY+00A7/4bgfd3Gra24q\n7iWptT5oGUsZG+4lxX17UqmRkA1kPBy26bPPHaTVIC+CAF1zzyMr24G+cqKWE/IA6cUyCLBmwfTM\nrIcXFwHnnD0ZHPGxYLXmxe2lDad/zfN//DCoN80p7hW4AAAA\n'
p542
sg16
g230
sg18
I62
ssg110
I0
sg369
I1
sg370
I0
sg372
g373
sg108
I0
sg374
I1
ssg16
g65
sg18
I61
sssS'scalar_bar_widget'
p543
(dp544
g2
(lp545
((g4
g5
tI-1
tp546
a((g7
g5
tI-1
tp547
a((g73
g74
tI-1
tp548
a((g76
g77
tI-1
tp549
a((g79
g80
tI-1
tp550
a((g383
g384
tI-1
tp551
a((S'ScalarBarWidget'
p552
S'tvtk_classes.scalar_bar_widget'
p553
tI-1
tp554
asg12
g552
sg13
(dp555
g15
Nsg16
g48
sg18
I14
ssg16
g19
sg18
I50
sg20
g553
sg15
(dp556
g15
(dp557
g392
S'i'
sg393
I0
sg99
I0
sg395
F0.55000001192092896
sg108
I0
sg396
I0
sg397
I0
sg110
I0
sg398
I0
ssg16
g65
sg18
I51
sssg95
S''
sS'data_name'
p558
S'LocalResiduals'
p559
sS'data_range'
p560
(dp561
g15
Nsg16
g48
sg18
I52
ssg51
S''
sg501
I256
sS'default_data_name'
p562
S'LocalResiduals'
p563
sg66
S''
sS'use_default_range'
p564
I01
sS'number_of_labels'
p565
I8
sS'show_scalar_bar'
p566
I00
sS'scalar_bar'
p567
(dp568
g2
(lp569
((g4
g5
tI-1
tp570
a((g7
g5
tI-1
tp571
a((g73
g74
tI-1
tp572
a((g76
g77
tI-1
tp573
a((g79
g80
tI-1
tp574
a((g297
g298
tI-1
tp575
a((S'Actor2D'
p576
S'tvtk_classes.actor2d'
p577
tI-1
tp578
a((S'ScalarBarActor'
p579
S'tvtk_classes.scalar_bar_actor'
p580
tI-1
tp581
asg12
g579
sg13
(dp582
g15
Nsg16
g48
sg18
I14
ssg16
g19
sg18
I63
sg20
g580
sg15
(dp583
g15
(dp584
g99
I0
sg325
I1
sg314
S'horizontal'
p585
sS'width'
p586
F0.80000000000000004
sS'label_format'
p587
S'%-#6.3g'
p588
sg565
I8
sg317
I1
sg318
I1
sg319
I1
sg320
I1
sg108
I0
sS'maximum_number_of_colors'
p589
I256
sS'orientation_'
p590
I0
sS'position2'
p591
(dp592
g15
S'H4sIAMcbmEYC/2XOMQuDMBAF4P39kWSpaGxAoeCcxaGugaIxQqFqSC8Q/30P263DGx7v4zi3pTUc\nhdujL9b0oucY43jgEb3btzfF5AihgnSnwzZ/96AgTQkaxCRA91BzZWUU6CdnOoJHuEIOYmkEWLNg\nqpnVGMRNoO97c6lwho9Npix5sLkdOe1/fNvZ7GqbFy2ttblZuCqO7viLqfgAbt3QTs0AAAA=\n'
p593
sg16
g230
sg18
I66
ssg321
I1
sg322
(dp594
g15
S'H4sIAMcbmEYC/2XOMQuDMBAF4P39kbhUjFpQKDiWLA51DZQkplCoGtITYvvne9huHd5wvI/HuXmd\nwpa7Jfp8Wh90NzGaDdfo3TI/Ka6OECQytzvM47cPJTJVgAZhBegSKj5ZqRL0kyNtwSPUyAZxawRY\ns2B6ZFZhECeBvu/VQWIPj1lVFFzo1BpO+x/bdm+dZK2T8WedvHzp1NQdf2DzD7ndMtDJAAAA\n'
p595
sg16
g230
sg18
I65
ssS'height'
p596
F0.17000000000000001
sg110
I0
sS'layer_number'
p597
I0
ssg16
g65
sg18
I64
sssS'_orig_data_range'
p598
(dp599
g15
S'H4sIAMcbmEYC/53OsQrCMBQF0P3+SLIY0lbBQXDOksGsgjRpCoJNQ/oC5u99VL/A4Q6Pe7i8kOqS\nmwpriWqpL3qOpYwNjxLDmjYqNRByBxl2hzR9+9xDGg1ywgvQLQ98sjI96CcnajkiHyGdmM8CrFkw\nPTEb4MRFwFprDh328Jg3WnNxf2v9X2Z95W+8+gDYoI1C1QAAAA==\n'
p600
sg16
g230
sg18
I67
ssg370
I00
sS'lut_mode'
p601
S'blue-red'
p602
sS'reverse_lut'
p603
I00
ssg16
g65
sg18
I46
sssS'vector_lut_manager'
p604
(dp605
g2
(lp606
((g4
g5
tI-1
tp607
a((g27
g5
tI-1
tp608
a((g29
g30
tI-1
tp609
a((g32
g33
tI0
tp610
a((g460
g461
tI0
tp611
asg12
g460
sg13
(dp612
g15
Nsg16
g48
sg18
I1
ssg16
g19
sg18
I68
sg20
g461
sg15
(dp613
g15
(dp614
g466
(dp615
g15
S'H4sIAMcbmEYC/53OsQrCMBQF0P3+SLIY0lbBQXDOksGsgjRpCoJNQ/oC5u99VL/A4Q6Pe7i8kOqS\nmwpriWqpL3qOpYwNjxLDmjYqNRByBxl2hzR9+9xDGg1ywgvQLQ98sjI96CcnajkiHyGdmM8CrFkw\nPTEb4MRFwFprDh328Jg3WnNxf2v9X2Z95W+8+gDYoI1C1QAAAA==\n'
p616
sg16
g230
sg18
I75
ssg469
I01
sg470
(dp617
g2
(lp618
((g4
g5
tI-1
tp619
a((g7
g5
tI-1
tp620
a((g73
g74
tI-1
tp621
a((g76
g77
tI-1
tp622
a((g79
g80
tI-1
tp623
a((g478
g479
tI-1
tp624
a((g481
g482
tI-1
tp625
asg12
g481
sg13
(dp626
g15
Nsg16
g48
sg18
I14
ssg16
g19
sg18
I76
sg20
g482
sg15
(dp627
g15
(dp628
g487
I2
sg311
g488
sg489
(dp629
g15
S'H4sIAMcbmEYC/33OMQvCMBAF4P39kWQxpK2Cg+CcJYNZBWnSFASbhngB8+89qqM4vOF4H48LqS65\nqbCWqJb6oPtYythwKzGs6UmlBkLuIMPmkKZPn3tIo0FOeAG65IFPVqYHfeVELUfkPaQT81GANQum\nB2YDnDgJWGvNrsMWHvNGay6uL61/Z9bnvyW/4tUbw9sFJ9IAAAA=\n'
p630
sg16
g230
sg18
I78
ssg492
(dp631
g15
S'H4sIAMcbmEYC/53OsQrCMBQF0P3+SLIY0lbBQXDOksGsgjRpCoJNQ/oC5u99VL/A4Q6Pe7i8kOqS\nmwpriWqpL3qOpYwNjxLDmjYqNRByBxl2hzR9+9xDGg1ywgvQLQ98sjI96CcnajkiHyGdmM8CrFkw\nPTEb4MRFwFprDh328Jg3WnNxf2v9X2Z95W+8+gDYoI1C1QAAAA==\n'
p632
sg16
g230
sg18
I80
ssg495
(dp633
g15
S'H4sIAMcbmEYC/33OMQvCMBAF4P39kXSxpK3FCopzEDpY3ALSpBEKNg3xCum/96jODm94vI/jrF+m\nsOZ2ji6flheNfYz9ikd0dvZvioslhAKZ3Rz88N1DiUxJUCeMAN1CxZWVKkE/OdAaHMIeWSeejQBr\nFkxrZhU6cRJo21btCmzhY0ZJycNVJ9voJA9nnY7mrpOrL1zlv/ATJv8A/YiyW8wAAAA=\n'
p634
sg16
g230
sg18
I79
ssg498
I256
sg499
g500
sg99
I0
sg501
I256
sg502
(dp635
g15
S'H4sIAMcbmEYC/33OMQvCMBAF4P39kWQxpK2Cg+CcJYNZBWnSFASbhngB8+89qqM4vOF4H48LqS65\nqbCWqJb6oPtYythwKzGs6UmlBkLuIMPmkKZPn3tIo0FOeAG65IFPVqYHfeVELUfkPaQT81GANQum\nB2YDnDgJWGvNrsMWHvNGay6uL61/Z9bnvyW/4tUbw9sFJ9IAAAA=\n'
p636
sg16
g230
sg18
I81
ssg505
I0
sg506
(dp637
g15
S'H4sIAMcbmEYC/33OMQvCMBAF4P39kWQxpK2Cg+CcJYNZBWnSFASbhngB8+89qqM4vOF4H48LqS65\nqbCWqJb6oPtYythwKzGs6UmlBkLuIMPmkKZPn3tIo0FOeAG65IFPVqYHfeVELUfkPaQT81GANQum\nB2YDnDgJWGvNrsMWHvNGay6uL61/Z9bnvyW/4tUbw9sFJ9IAAAA=\n'
p638
sg16
g230
sg18
I82
ssg110
I0
sg509
F1
sg510
g511
sg108
I0
ssg16
g65
sg18
I77
sssg512
(dp639
g2
(lp640
((g4
g5
tI-1
tp641
a((g7
g5
tI-1
tp642
a((g73
g74
tI-1
tp643
a((g76
g77
tI-1
tp644
a((g79
g80
tI-1
tp645
a((g348
g349
tI-1
tp646
asg12
g348
sg13
(dp647
g15
Nsg16
g48
sg18
I14
ssg16
g19
sg18
I70
sg20
g349
sg15
(dp648
g15
(dp649
g273
F1
sg354
g355
sg356
I12
sg314
F0
sg357
F0
sg358
I1
sg359
g524
sg361
I0
sg99
I0
sg362
F1.1000000000000001
sg363
(dp650
g15
Nsg16
g48
sg18
I25
ssg365
I1
sg366
(dp651
g15
S'H4sIAMcbmEYC/03NsQrDIBDG8f17EV0qmqRbX8DFoa6FEo2BQJOIPaG+fY+00A7/4bgfd3Gra24q\n7iWptT5oGUsZG+4lxX17UqmRkA1kPBy26bPPHaTVIC+CAF1zzyMr24G+cqKWE/IA6cUyCLBmwfTM\nrIcXFwHnnD0ZHPGxYLXmxe2lDad/zfN//DCoN80p7hW4AAAA\n'
p652
sg16
g230
sg18
I72
ssg110
I0
sg369
I1
sg370
I0
sg372
g373
sg108
I0
sg374
I1
ssg16
g65
sg18
I71
sssg528
(dp653
g2
(lp654
((g4
g5
tI-1
tp655
a((g7
g5
tI-1
tp656
a((g73
g74
tI-1
tp657
a((g76
g77
tI-1
tp658
a((g79
g80
tI-1
tp659
a((g348
g349
tI-1
tp660
asg12
g348
sg13
(dp661
g15
Nsg16
g48
sg18
I14
ssg16
g19
sg18
I83
sg20
g349
sg15
(dp662
g15
(dp663
g273
F1
sg354
g355
sg356
I12
sg314
F0
sg357
F0
sg358
I1
sg359
g524
sg361
I0
sg99
I0
sg362
F1.1000000000000001
sg363
(dp664
g15
Nsg16
g48
sg18
I25
ssg365
I1
sg366
(dp665
g15
S'H4sIAMcbmEYC/03NsQrDIBDG8f17EV0qmqRbX8DFoa6FEo2BQJOIPaG+fY+00A7/4bgfd3Gra24q\n7iWptT5oGUsZG+4lxX17UqmRkA1kPBy26bPPHaTVIC+CAF1zzyMr24G+cqKWE/IA6cUyCLBmwfTM\nrIcXFwHnnD0ZHPGxYLXmxe2lDad/zfN//DCoN80p7hW4AAAA\n'
p666
sg16
g230
sg18
I85
ssg110
I0
sg369
I1
sg370
I0
sg372
g373
sg108
I0
sg374
I1
ssg16
g65
sg18
I84
sssg543
(dp667
g2
(lp668
((g4
g5
tI-1
tp669
a((g7
g5
tI-1
tp670
a((g73
g74
tI-1
tp671
a((g76
g77
tI-1
tp672
a((g79
g80
tI-1
tp673
a((g383
g384
tI-1
tp674
a((g552
g553
tI-1
tp675
asg12
g552
sg13
(dp676
g15
Nsg16
g48
sg18
I14
ssg16
g19
sg18
I73
sg20
g553
sg15
(dp677
g15
(dp678
g392
S'i'
sg393
I0
sg99
I0
sg395
F0.55000001192092896
sg108
I0
sg396
I0
sg397
I0
sg110
I0
sg398
I0
ssg16
g65
sg18
I74
sssg95
S''
sg558
S'No vectors'
p679
sg560
(dp680
g15
Nsg16
g48
sg18
I75
ssg51
S''
sg501
I256
sg562
g679
sg66
S''
sg564
I01
sg565
I8
sg566
I00
sg567
(dp681
g2
(lp682
((g4
g5
tI-1
tp683
a((g7
g5
tI-1
tp684
a((g73
g74
tI-1
tp685
a((g76
g77
tI-1
tp686
a((g79
g80
tI-1
tp687
a((g297
g298
tI-1
tp688
a((g576
g577
tI-1
tp689
a((g579
g580
tI-1
tp690
asg12
g579
sg13
(dp691
g15
Nsg16
g48
sg18
I14
ssg16
g19
sg18
I86
sg20
g580
sg15
(dp692
g15
(dp693
g99
I0
sg325
I1
sg314
g585
sg586
F0.80000000000000004
sg587
S'%-#6.3g'
p694
sg565
I8
sg317
I1
sg318
I1
sg319
I1
sg320
I1
sg108
I0
sg589
I256
sg590
I0
sg591
(dp695
g15
S'H4sIAMcbmEYC/2XOMQuDMBAF4P39kWSpaGxAoeCcxaGugaIxQqFqSC8Q/30P263DGx7v4zi3pTUc\nhdujL9b0oucY43jgEb3btzfF5AihgnSnwzZ/96AgTQkaxCRA91BzZWUU6CdnOoJHuEIOYmkEWLNg\nqpnVGMRNoO97c6lwho9Npix5sLkdOe1/fNvZ7GqbFy2ttblZuCqO7viLqfgAbt3QTs0AAAA=\n'
p696
sg16
g230
sg18
I89
ssg321
I1
sg322
(dp697
g15
S'H4sIAMcbmEYC/2XOMQuDMBAF4P39kbhUjFpQKDiWLA51DZQkplCoGtITYvvne9huHd5wvI/HuXmd\nwpa7Jfp8Wh90NzGaDdfo3TI/Ka6OECQytzvM47cPJTJVgAZhBegSKj5ZqRL0kyNtwSPUyAZxawRY\ns2B6ZFZhECeBvu/VQWIPj1lVFFzo1BpO+x/bdm+dZK2T8WedvHzp1NQdf2DzD7ndMtDJAAAA\n'
p698
sg16
g230
sg18
I88
ssg596
F0.17000000000000001
sg110
I0
sg597
I0
ssg16
g65
sg18
I87
sssg598
(dp699
g15
S'H4sIAMcbmEYC/53OsQrCMBQF0P3+SLIY0lbBQXDOksGsgjRpCoJNQ/oC5u99VL/A4Q6Pe7i8kOqS\nmwpriWqpL3qOpYwNjxLDmjYqNRByBxl2hzR9+9xDGg1ywgvQLQ98sjI96CcnajkiHyGdmM8CrFkw\nPTEb4MRFwFprDh328Jg3WnNxf2v9X2Z95W+8+gDYoI1C1QAAAA==\n'
p700
sg16
g230
sg18
I90
ssg370
I00
sg601
g602
sg603
I00
ssg16
g65
sg18
I69
ssssg16
g65
sg18
I7
ssa(dp701
g2
(lp702
((g4
g5
tI-1
tp703
a((g27
g5
tI-1
tp704
a((g29
g30
tI-1
tp705
a((g32
g33
tI0
tp706
a((g35
g36
tI0
tp707
a((g38
g39
tI0
tp708
a((S'Filter'
p709
S'enthought.mayavi.core.filter'
p710
tI0
tp711
a((S'Threshold'
p712
S'enthought.mayavi.filters.threshold'
p713
tI0
tp714
asg12
g712
sg13
(dp715
g15
Nsg16
g48
sg18
I1
ssg16
g19
sg18
I91
sg20
g713
sg15
(dp716
g15
(dp717
S'threshold_filter'
p718
(dp719
g2
(lp720
((g4
g5
tI-1
tp721
a((g7
g5
tI-1
tp722
a((g73
g74
tI-1
tp723
a((g76
g77
tI-1
tp724
a((g79
g80
tI-1
tp725
a((g82
g83
tI-1
tp726
a((S'UnstructuredGridAlgorithm'
p727
S'tvtk_classes.unstructured_grid_algorithm'
p728
tI-1
tp729
a((g712
S'tvtk_classes.threshold'
p730
tI-1
tp731
asg12
g712
sg13
(dp732
g15
Nsg16
g48
sg18
I14
ssg16
g19
sg18
I165
sg20
g730
sg15
(dp733
g15
(dp734
S'attribute_mode'
p735
I-1
sS'all_scalars_'
p736
I1
sg110
I0
sg115
I0
sg99
I0
sS'component_mode'
p737
S'use_selected'
p738
sS'all_scalars'
p739
I1
sg108
I0
sg104
I0
sg106
I0
sg107
F1
sg119
I0
sS'selected_component'
p740
I0
sS'attribute_mode_'
p741
I-1
ssg16
g65
sg18
I166
sssg51
S''
sS'_upper_threshold'
p742
F6.1098700143702445e-07
sg66
S''
sS'_lower_threshold'
p743
F9.9999999999999995e-08
sS'reset_lower'
p744
I00
sg121
(dp745
g15
(lp746
(dp747
g2
(lp748
((g4
g5
tI-1
tp749
a((g27
g5
tI-1
tp750
a((g29
g30
tI-1
tp751
a((g32
g33
tI0
tp752
a((g130
g131
tI0
tp753
asg12
g130
sg13
(dp754
g15
Nsg16
g48
sg18
I1
ssg16
g19
sg18
I94
sg20
g131
sg15
(dp755
g15
(dp756
g51
S''
sg136
g137
sg121
(dp757
g15
(lp758
(dp759
g2
(lp760
((g4
g5
tI-1
tp761
a((g27
g5
tI-1
tp762
a((g29
g30
tI-1
tp763
a((g32
g33
tI0
tp764
a((g35
g36
tI0
tp765
a((g147
g148
tI0
tp766
a((S'Surface'
p767
S'enthought.mayavi.modules.surface'
p768
tI0
tp769
asg12
g767
sg13
(dp770
g15
Nsg16
g48
sg18
I1
ssg16
g19
sg18
I97
sg20
g768
sg15
(dp771
g15
(dp772
g66
S''
sS'enable_contours'
p773
I00
sg51
S''
sg174
(dp774
g2
(lp775
((g4
g5
tI-1
tp776
a((g27
g5
tI-1
tp777
a((g29
g30
tI-1
tp778
a((g32
g33
tI0
tp779
a((g35
g36
tI0
tp780
a((g182
g183
tI0
tp781
a((g185
g186
tI0
tp782
asg12
g185
sg13
(dp783
g15
Nsg16
g48
sg18
I1
ssg16
g19
sg18
I99
sg20
g186
sg15
(dp784
g15
(dp785
g191
(dp786
g2
(lp787
((g4
g5
tI-1
tp788
a((g7
g5
tI-1
tp789
a((g73
g74
tI-1
tp790
a((g76
g77
tI-1
tp791
a((g79
g80
tI-1
tp792
a((g82
g83
tI-1
tp793
a((g200
g201
tI-1
tp794
a((g203
g204
tI-1
tp795
a((g206
g207
tI-1
tp796
a((S'DataSetMapper'
p797
S'tvtk_classes.data_set_mapper'
p798
tI-1
tp799
asg12
g797
sg13
(dp800
g15
Nsg16
g48
sg18
I14
ssg16
g19
sg18
I101
sg20
g798
sg15
(dp801
g15
(dp802
g216
I0
sg217
I0
sg218
g219
sg220
I0
sg235
I0
sg221
F0.01
sg223
g219
sg224
I0
sg110
I0
sg225
I0
sg226
I1
sg104
I0
sg106
I0
sg107
F1
sg227
(dp803
g15
S'H4sIAMcbmEYC/53OsQrCMBQF0P3+SLIY0lbBQXDOksGsgjRpCoJNQ/oC5u99VL/A4Q6Pe7i8kOqS\nmwpriWqpL3qOpYwNjxLDmjYqNRByBxl2hzR9+9xDGg1ywgvQLQ98sjI96CcnajkiHyGdmM8CrFkw\nPTEb4MRFwFprDh328Jg3WnNxf2v9X2Z95W+8+gDYoI1C1QAAAA==\n'
p804
sg16
g230
sg18
I103
ssg231
I1
sg108
I0
sg232
I0
sg233
I1
sg115
I0
sg234
I1
sg99
I0
sg237
I0
sg242
g243
sg119
I0
sg236
I0
sg239
g219
sg244
F0
ssg16
g65
sg18
I102
sssg66
S''
sg245
(dp805
g2
(lp806
((g4
g5
tI-1
tp807
a((g7
g5
tI-1
tp808
a((g73
g74
tI-1
tp809
a((g76
g77
tI-1
tp810
a((g79
g80
tI-1
tp811
a((g253
g254
tI-1
tp812
a((g256
g257
tI-1
tp813
asg12
g256
sg13
(dp814
g15
Nsg16
g48
sg18
I14
ssg16
g19
sg18
I110
sg20
g257
sg15
(dp815
g15
(dp816
g262
(dp817
g15
Nsg16
g48
sg18
I25
ssg264
I0
sg265
F1
sg266
(dp818
g15
Nsg16
g48
sg18
I25
ssg269
F0
sg270
I0
sg271
g272
sg273
F1
sg274
I0
sg275
F1
sg276
(dp819
g15
Nsg16
g48
sg18
I25
ssg278
(dp820
g15
Nsg16
g48
sg18
I25
ssg108
I0
sg280
I0
sg281
F1
sg282
I0
sg99
I0
sg283
F0
sg284
I0
sg285
I65535
sg110
I0
sg286
g287
sg288
I1
sg289
F2
ssg16
g65
sg18
I111
sssg51
S''
sg174
(dp821
g2
(lp822
((g4
g5
tI-1
tp823
a((g7
g5
tI-1
tp824
a((g73
g74
tI-1
tp825
a((g76
g77
tI-1
tp826
a((g79
g80
tI-1
tp827
a((g297
g298
tI-1
tp828
a((g300
g301
tI-1
tp829
a((g185
g303
tI-1
tp830
asg12
g185
sg13
(dp831
g15
Nsg16
g48
sg18
I14
ssg16
g19
sg18
I104
sg20
g303
sg15
(dp832
g15
(dp833
g308
(dp834
g15
S'H4sIAMcbmEYC/7XOMQoCMRAF0P5fJGkMWVfBwguk2cK0gmyyEQQ3O8QJmNs7RK9g8YvhPz4Tc12p\nmbiVZNb65MdcytxwKylu+cWlRgYN0LE75OXb0x7aWbBXQYEvNMopyo3gn1y4UQIdoL26nxREixB6\n7Myrs8I0TW43oEfGgrNWiuvb2n9GHg7mAy0aBDD4AAAA\n'
p835
sg16
g230
sg18
I106
ssg311
(dp836
g15
S'H4sIAMcbmEYC/53OMQvCMBAF4P39kWQxpFbBQXDOksGsgjRpCoJtQ3oB8+89oqOTwxuO9/G4sJQ5\nVRXWHNVcnvQYch4q7jmGddkol0BIHWRoDsv46dMe0miQE16Arqnnk5XpQV85Uk0R6QDpxHQSYM2C\n6bExJ84C1lqz69DCY95ozcXtpfXvTPryf8l/evUGx/o6Le8AAAA=\n'
p837
sg16
g230
sg18
I108
ssg314
(dp838
g15
S'H4sIAMcbmEYC/53OsQoCMRAE0H5+JGkMOU/hCn8gTQrTCnLJRRC8XIgbMH/vEu0FiymWeQwbUl1z\nU2ErUa31Qfe5lLnhWmLY0pNKDYQ8QIbukJZPn/eQRoOc8AJ0ziOfrMwI+sqFWo7IB0gnbpMAaxZM\nj505cRKw1prdgB4e80ZrLi4vrf/P9NPww169AaZN3yn4AAAA\n'
p839
sg16
g230
sg18
I107
ssg110
I0
sg317
I1
sg318
I1
sg319
I1
sg320
I1
sg108
I0
sg99
I0
sg321
I1
sg322
(dp840
g15
S'H4sIAMcbmEYC/7XOMQoCMRAF0P5fJGkMWVfBwguk2cK0gmyyEQQ3O8QJmNs7RK9g8YvhPz4Tc12p\nmbiVZNb65MdcytxwKylu+cWlRgYN0LE75OXb0x7aWbBXQYEvNMopyo3gn1y4UQIdoL26nxREixB6\n7Myrs8I0TW43oEfGgrNWiuvb2n9GHg7mAy0aBDD4AAAA\n'
p841
sg16
g230
sg18
I109
ssg325
I1
ssg16
g65
sg18
I105
ssssg16
g65
sg18
I100
sssS'contour'
p842
(dp843
g2
(lp844
((g4
g5
tI-1
tp845
a((g27
g5
tI-1
tp846
a((g29
g30
tI-1
tp847
a((g32
g33
tI0
tp848
a((g35
g36
tI0
tp849
a((g182
g183
tI0
tp850
a((S'Contour'
p851
S'enthought.mayavi.components.contour'
p852
tI0
tp853
asg12
g851
sg13
(dp854
g15
Nsg16
g48
sg18
I1
ssg16
g19
sg18
I112
sg20
g852
sg15
(dp855
g15
(dp856
g51
S''
sS'auto_contours'
p857
I01
sS'_current_range'
p858
(dp859
g15
Nsg16
g48
sg18
I1
ssS'filled_contours'
p860
I00
sS'minimum_contour'
p861
F0
sg66
S''
sS'_cont_filt'
p862
(dp863
g2
(lp864
((g4
g5
tI-1
tp865
a((g7
g5
tI-1
tp866
a((g73
g74
tI-1
tp867
a((g76
g77
tI-1
tp868
a((g79
g80
tI-1
tp869
a((g82
g83
tI-1
tp870
a((g165
g166
tI-1
tp871
a((S'ContourFilter'
p872
S'tvtk_classes.contour_filter'
p873
tI-1
tp874
asg12
g872
sg13
(dp875
g15
Nsg16
g48
sg18
I14
ssg16
g19
sg18
I114
sg20
g873
sg15
(dp876
g15
(dp877
S'compute_gradients'
p878
I0
sg108
I0
sS'array_component'
p879
I0
sS'compute_normals_'
p880
I1
sS'use_scalar_tree_'
p881
I0
sg115
I0
sS'compute_scalars_'
p882
I1
sS'compute_normals'
p883
I1
sS'compute_scalars'
p884
I1
sS'use_scalar_tree'
p885
I0
sS'compute_gradients_'
p886
I0
sg104
I0
sg99
I0
sg106
I0
sg119
I0
sg107
F0
sS'number_of_contours'
p887
I1
sg110
I0
ssg16
g65
sg18
I115
sssS'contours'
p888
(dp889
g15
(lp890
sg16
g452
sg18
I116
ssS'_fill_cont_filt'
p891
(dp892
g2
(lp893
((g4
g5
tI-1
tp894
a((g7
g5
tI-1
tp895
a((g73
g74
tI-1
tp896
a((g76
g77
tI-1
tp897
a((g79
g80
tI-1
tp898
a((g82
g83
tI-1
tp899
a((g165
g166
tI-1
tp900
a((S'BandedPolyDataContourFilter'
p901
S'tvtk_classes.banded_poly_data_contour_filter'
p902
tI-1
tp903
asg12
g901
sg13
(dp904
g15
Nsg16
g48
sg18
I14
ssg16
g19
sg18
I117
sg20
g902
sg15
(dp905
g15
(dp906
g99
I0
sS'clipping'
p907
I1
sg115
I0
sS'clipping_'
p908
I1
sg218
S'value'
p909
sS'generate_contour_edges'
p910
I0
sg110
I0
sg108
I0
sg104
I0
sS'scalar_mode_'
p911
I1
sg106
I0
sg119
I0
sg107
F0
sg887
I1
sS'generate_contour_edges_'
p912
I0
ssg16
g65
sg18
I118
sssS'show_filled_contours'
p913
I01
sg887
I10
sS'maximum_contour'
p914
F0
ssg16
g65
sg18
I113
ssssg16
g65
sg18
I98
ssasg16
g452
sg18
I96
ssg66
S''
sg453
(dp915
g2
(lp916
((g4
g5
tI-1
tp917
a((g27
g5
tI-1
tp918
a((g29
g30
tI-1
tp919
a((g32
g33
tI0
tp920
a((g460
g461
tI0
tp921
asg12
g460
sg13
(dp922
g15
Nsg16
g48
sg18
I1
ssg16
g19
sg18
I119
sg20
g461
sg15
(dp923
g15
(dp924
g466
(dp925
g15
S'H4sIAMcbmEYC/13OMQuDMBAF4P39kWSpxGipQ3HPkqFCJ6FojFCoGuIJ2l/fqy0UOjy4430c58Zl\nCFvipuiTYXnQvYmx2XCL3k3jTHFxhJBCut1h7D590JBGgSrRCtAlZLyyMhr0lR1twSPkkJXoCwHW\nLJgemWWoxFnAWmsOKfbwsdYoxUW9KvVLw+l1vXanZ/nfXOu1eA95yU+0yQuCBpjUzAAAAA==\n'
p926
sg16
g230
sg18
I126
ssg469
I01
sg470
(dp927
g2
(lp928
((g4
g5
tI-1
tp929
a((g7
g5
tI-1
tp930
a((g73
g74
tI-1
tp931
a((g76
g77
tI-1
tp932
a((g79
g80
tI-1
tp933
a((g478
g479
tI-1
tp934
a((g481
g482
tI-1
tp935
asg12
g481
sg13
(dp936
g15
Nsg16
g48
sg18
I14
ssg16
g19
sg18
I127
sg20
g482
sg15
(dp937
g15
(dp938
g487
I2
sg311
g488
sg489
(dp939
g15
S'H4sIAMcbmEYC/33OMQvCMBAF4P39kWQxpK2Cg+CcJYNZBWnSFASbhngB8+89qqM4vOF4H48LqS65\nqbCWqJb6oPtYythwKzGs6UmlBkLuIMPmkKZPn3tIo0FOeAG65IFPVqYHfeVELUfkPaQT81GANQum\nB2YDnDgJWGvNrsMWHvNGay6uL61/Z9bnvyW/4tUbw9sFJ9IAAAA=\n'
p940
sg16
g230
sg18
I129
ssg492
(dp941
g15
S'H4sIAMcbmEYC/13OMQuDMBAF4P39kWSpxGipQ3HPkqFCJ6FojFCoGuIJ2l/fqy0UOjy4430c58Zl\nCFvipuiTYXnQvYmx2XCL3k3jTHFxhJBCut1h7D590JBGgSrRCtAlZLyyMhr0lR1twSPkkJXoCwHW\nLJgemWWoxFnAWmsOKfbwsdYoxUW9KvVLw+l1vXanZ/nfXOu1eA95yU+0yQuCBpjUzAAAAA==\n'
p942
sg16
g230
sg18
I131
ssg495
(dp943
g15
S'H4sIAMcbmEYC/33OMQvCMBAF4P39kXSxpK3FCopzEDpY3ALSpBEKNg3xCum/96jODm94vI/jrF+m\nsOZ2ji6flheNfYz9ikd0dvZvioslhAKZ3Rz88N1DiUxJUCeMAN1CxZWVKkE/OdAaHMIeWSeejQBr\nFkxrZhU6cRJo21btCmzhY0ZJycNVJ9voJA9nnY7mrpOrL1zlv/ATJv8A/YiyW8wAAAA=\n'
p944
sg16
g230
sg18
I130
ssg498
I256
sg499
g500
sg99
I0
sg501
I256
sg502
(dp945
g15
S'H4sIAMcbmEYC/33OMQvCMBAF4P39kWQxpK2Cg+CcJYNZBWnSFASbhngB8+89qqM4vOF4H48LqS65\nqbCWqJb6oPtYythwKzGs6UmlBkLuIMPmkKZPn3tIo0FOeAG65IFPVqYHfeVELUfkPaQT81GANQum\nB2YDnDgJWGvNrsMWHvNGay6uL61/Z9bnvyW/4tUbw9sFJ9IAAAA=\n'
p946
sg16
g230
sg18
I132
ssg505
I0
sg506
(dp947
g15
S'H4sIAMcbmEYC/33OMQvCMBAF4P39kWQxpK2Cg+CcJYNZBWnSFASbhngB8+89qqM4vOF4H48LqS65\nqbCWqJb6oPtYythwKzGs6UmlBkLuIMPmkKZPn3tIo0FOeAG65IFPVqYHfeVELUfkPaQT81GANQum\nB2YDnDgJWGvNrsMWHvNGay6uL61/Z9bnvyW/4tUbw9sFJ9IAAAA=\n'
p948
sg16
g230
sg18
I133
ssg110
I0
sg509
F1
sg510
g511
sg108
I0
ssg16
g65
sg18
I128
sssg512
(dp949
g2
(lp950
((g4
g5
tI-1
tp951
a((g7
g5
tI-1
tp952
a((g73
g74
tI-1
tp953
a((g76
g77
tI-1
tp954
a((g79
g80
tI-1
tp955
a((g348
g349
tI-1
tp956
asg12
g348
sg13
(dp957
g15
Nsg16
g48
sg18
I14
ssg16
g19
sg18
I121
sg20
g349
sg15
(dp958
g15
(dp959
g273
F1
sg354
g355
sg356
I12
sg314
F0
sg357
F0
sg358
I1
sg359
g524
sg361
I0
sg99
I0
sg362
F1.1000000000000001
sg363
(dp960
g15
Nsg16
g48
sg18
I25
ssg365
I1
sg366
(dp961
g15
S'H4sIAMcbmEYC/03NsQrDIBDG8f17EV0qmqRbX8DFoa6FEo2BQJOIPaG+fY+00A7/4bgfd3Gra24q\n7iWptT5oGUsZG+4lxX17UqmRkA1kPBy26bPPHaTVIC+CAF1zzyMr24G+cqKWE/IA6cUyCLBmwfTM\nrIcXFwHnnD0ZHPGxYLXmxe2lDad/zfN//DCoN80p7hW4AAAA\n'
p962
sg16
g230
sg18
I123
ssg110
I0
sg369
I1
sg370
I0
sg372
g373
sg108
I0
sg374
I1
ssg16
g65
sg18
I122
sssg528
(dp963
g2
(lp964
((g4
g5
tI-1
tp965
a((g7
g5
tI-1
tp966
a((g73
g74
tI-1
tp967
a((g76
g77
tI-1
tp968
a((g79
g80
tI-1
tp969
a((g348
g349
tI-1
tp970
asg12
g348
sg13
(dp971
g15
Nsg16
g48
sg18
I14
ssg16
g19
sg18
I134
sg20
g349
sg15
(dp972
g15
(dp973
g273
F1
sg354
g355
sg356
I12
sg314
F0
sg357
F0
sg358
I1
sg359
g524
sg361
I0
sg99
I0
sg362
F1.1000000000000001
sg363
(dp974
g15
Nsg16
g48
sg18
I25
ssg365
I1
sg366
(dp975
g15
S'H4sIAMcbmEYC/03NsQrDIBDG8f17EV0qmqRbX8DFoa6FEo2BQJOIPaG+fY+00A7/4bgfd3Gra24q\n7iWptT5oGUsZG+4lxX17UqmRkA1kPBy26bPPHaTVIC+CAF1zzyMr24G+cqKWE/IA6cUyCLBmwfTM\nrIcXFwHnnD0ZHPGxYLXmxe2lDad/zfN//DCoN80p7hW4AAAA\n'
p976
sg16
g230
sg18
I136
ssg110
I0
sg369
I1
sg370
I0
sg372
g373
sg108
I0
sg374
I1
ssg16
g65
sg18
I135
sssg543
(dp977
g2
(lp978
((g4
g5
tI-1
tp979
a((g7
g5
tI-1
tp980
a((g73
g74
tI-1
tp981
a((g76
g77
tI-1
tp982
a((g79
g80
tI-1
tp983
a((g383
g384
tI-1
tp984
a((g552
g553
tI-1
tp985
asg12
g552
sg13
(dp986
g15
Nsg16
g48
sg18
I14
ssg16
g19
sg18
I124
sg20
g553
sg15
(dp987
g15
(dp988
g392
S'i'
sg393
I1
sg99
I0
sg395
F0.55000001192092896
sg108
I0
sg396
I0
sg397
I1
sg110
I0
sg398
I0
ssg16
g65
sg18
I125
sssg95
S''
sg558
VResiduals
p989
sg560
(dp990
g15
Nsg16
g48
sg18
I126
ssg51
S''
sg501
I256
sg562
S'LocalResiduals'
p991
sg66
S''
sg564
I01
sg565
I8
sg566
I01
sg567
(dp992
g2
(lp993
((g4
g5
tI-1
tp994
a((g7
g5
tI-1
tp995
a((g73
g74
tI-1
tp996
a((g76
g77
tI-1
tp997
a((g79
g80
tI-1
tp998
a((g297
g298
tI-1
tp999
a((g576
g577
tI-1
tp1000
a((g579
g580
tI-1
tp1001
asg12
g579
sg13
(dp1002
g15
Nsg16
g48
sg18
I14
ssg16
g19
sg18
I137
sg20
g580
sg15
(dp1003
g15
(dp1004
g99
I0
sg325
I1
sg314
S'vertical'
p1005
sg586
F0.064239848914069753
sg587
S'%-#6.3g'
p1006
sg565
I8
sg317
I1
sg318
I1
sg319
I1
sg320
I1
sg108
I0
sg589
I256
sg590
I1
sg591
(dp1007
g15
S'H4sIAMcbmEYC/y3OsQqDQAwG4D0vci61p9bWQsH5Foe6BooXr1CoelwjxLdvsB0CSf6PEJrXKW45\nLSnk0/rm15DSsMEjBVrmD6eVGGIBGe0O5vGXxxIyZ4F74w3wPVY6qnIl8F+OvMUA8QRZb56NAdUq\nlNbKKujNzUDXde5QwF56zDtrNUAZG5Tr5ahNiWLrhOJtqzsbUIhQBo9S1FpnlFC1+oHPv+F49+PJ\nAAAA\n'
p1008
sg16
g230
sg18
I140
ssg321
I1
sg322
(dp1009
g15
S'H4sIAMcbmEYC/y3NwQqDMAwG4Pv/IvWy0toJGww8dwcP67UwbK0wmFq6OurbL+gOf0LIR+LndYob\n90sKfFrf+dWn1G94puCX+ZPT6jOiROV3h3k49rFGpQWyYY4hP6KikZSukf9yyFsMiGdUho0XBtIk\niDbEFAy7MXRdp08Se+iY00LQwhapjvTybosI3Jbg2i9VZWzxjjLacm2oi5beO/4DN1bOIcYAAAA=\n'
p1010
sg16
g230
sg18
I139
ssg596
F0.59644588045234226
sg110
I0
sg597
I0
ssg16
g65
sg18
I138
sssg598
(dp1011
g15
S'H4sIAMcbmEYC/53OsQrCMBQF0P3+SLIY0lbBQXDOksGsgjRpCoJNQ/oC5u99VL/A4Q6Pe7i8kOqS\nmwpriWqpL3qOpYwNjxLDmjYqNRByBxl2hzR9+9xDGg1ywgvQLQ98sjI96CcnajkiHyGdmM8CrFkw\nPTEb4MRFwFprDh328Jg3WnNxf2v9X2Z95W+8+gDYoI1C1QAAAA==\n'
p1012
sg16
g230
sg18
I141
ssg370
I00
sg601
g602
sg603
I00
ssg16
g65
sg18
I120
sssg604
(dp1013
g2
(lp1014
((g4
g5
tI-1
tp1015
a((g27
g5
tI-1
tp1016
a((g29
g30
tI-1
tp1017
a((g32
g33
tI0
tp1018
a((g460
g461
tI0
tp1019
asg12
g460
sg13
(dp1020
g15
Nsg16
g48
sg18
I1
ssg16
g19
sg18
I142
sg20
g461
sg15
(dp1021
g15
(dp1022
g466
(dp1023
g15
S'H4sIAMcbmEYC/53OsQrCMBQF0P3+SLIY0lbBQXDOksGsgjRpCoJNQ/oC5u99VL/A4Q6Pe7i8kOqS\nmwpriWqpL3qOpYwNjxLDmjYqNRByBxl2hzR9+9xDGg1ywgvQLQ98sjI96CcnajkiHyGdmM8CrFkw\nPTEb4MRFwFprDh328Jg3WnNxf2v9X2Z95W+8+gDYoI1C1QAAAA==\n'
p1024
sg16
g230
sg18
I149
ssg469
I01
sg470
(dp1025
g2
(lp1026
((g4
g5
tI-1
tp1027
a((g7
g5
tI-1
tp1028
a((g73
g74
tI-1
tp1029
a((g76
g77
tI-1
tp1030
a((g79
g80
tI-1
tp1031
a((g478
g479
tI-1
tp1032
a((g481
g482
tI-1
tp1033
asg12
g481
sg13
(dp1034
g15
Nsg16
g48
sg18
I14
ssg16
g19
sg18
I150
sg20
g482
sg15
(dp1035
g15
(dp1036
g487
I2
sg311
g488
sg489
(dp1037
g15
S'H4sIAMcbmEYC/33OMQvCMBAF4P39kWQxpK2Cg+CcJYNZBWnSFASbhngB8+89qqM4vOF4H48LqS65\nqbCWqJb6oPtYythwKzGs6UmlBkLuIMPmkKZPn3tIo0FOeAG65IFPVqYHfeVELUfkPaQT81GANQum\nB2YDnDgJWGvNrsMWHvNGay6uL61/Z9bnvyW/4tUbw9sFJ9IAAAA=\n'
p1038
sg16
g230
sg18
I152
ssg492
(dp1039
g15
S'H4sIAMcbmEYC/53OsQrCMBQF0P3+SLIY0lbBQXDOksGsgjRpCoJNQ/oC5u99VL/A4Q6Pe7i8kOqS\nmwpriWqpL3qOpYwNjxLDmjYqNRByBxl2hzR9+9xDGg1ywgvQLQ98sjI96CcnajkiHyGdmM8CrFkw\nPTEb4MRFwFprDh328Jg3WnNxf2v9X2Z95W+8+gDYoI1C1QAAAA==\n'
p1040
sg16
g230
sg18
I154
ssg495
(dp1041
g15
S'H4sIAMcbmEYC/33OMQvCMBAF4P39kXSxpK3FCopzEDpY3ALSpBEKNg3xCum/96jODm94vI/jrF+m\nsOZ2ji6flheNfYz9ikd0dvZvioslhAKZ3Rz88N1DiUxJUCeMAN1CxZWVKkE/OdAaHMIeWSeejQBr\nFkxrZhU6cRJo21btCmzhY0ZJycNVJ9voJA9nnY7mrpOrL1zlv/ATJv8A/YiyW8wAAAA=\n'
p1042
sg16
g230
sg18
I153
ssg498
I256
sg499
g500
sg99
I0
sg501
I256
sg502
(dp1043
g15
S'H4sIAMcbmEYC/33OMQvCMBAF4P39kWQxpK2Cg+CcJYNZBWnSFASbhngB8+89qqM4vOF4H48LqS65\nqbCWqJb6oPtYythwKzGs6UmlBkLuIMPmkKZPn3tIo0FOeAG65IFPVqYHfeVELUfkPaQT81GANQum\nB2YDnDgJWGvNrsMWHvNGay6uL61/Z9bnvyW/4tUbw9sFJ9IAAAA=\n'
p1044
sg16
g230
sg18
I155
ssg505
I0
sg506
(dp1045
g15
S'H4sIAMcbmEYC/33OMQvCMBAF4P39kWQxpK2Cg+CcJYNZBWnSFASbhngB8+89qqM4vOF4H48LqS65\nqbCWqJb6oPtYythwKzGs6UmlBkLuIMPmkKZPn3tIo0FOeAG65IFPVqYHfeVELUfkPaQT81GANQum\nB2YDnDgJWGvNrsMWHvNGay6uL61/Z9bnvyW/4tUbw9sFJ9IAAAA=\n'
p1046
sg16
g230
sg18
I156
ssg110
I0
sg509
F1
sg510
g511
sg108
I0
ssg16
g65
sg18
I151
sssg512
(dp1047
g2
(lp1048
((g4
g5
tI-1
tp1049
a((g7
g5
tI-1
tp1050
a((g73
g74
tI-1
tp1051
a((g76
g77
tI-1
tp1052
a((g79
g80
tI-1
tp1053
a((g348
g349
tI-1
tp1054
asg12
g348
sg13
(dp1055
g15
Nsg16
g48
sg18
I14
ssg16
g19
sg18
I144
sg20
g349
sg15
(dp1056
g15
(dp1057
g273
F1
sg354
g355
sg356
I12
sg314
F0
sg357
F0
sg358
I1
sg359
g524
sg361
I0
sg99
I0
sg362
F1.1000000000000001
sg363
(dp1058
g15
Nsg16
g48
sg18
I25
ssg365
I1
sg366
(dp1059
g15
S'H4sIAMcbmEYC/03NsQrDIBDG8f17EV0qmqRbX8DFoa6FEo2BQJOIPaG+fY+00A7/4bgfd3Gra24q\n7iWptT5oGUsZG+4lxX17UqmRkA1kPBy26bPPHaTVIC+CAF1zzyMr24G+cqKWE/IA6cUyCLBmwfTM\nrIcXFwHnnD0ZHPGxYLXmxe2lDad/zfN//DCoN80p7hW4AAAA\n'
p1060
sg16
g230
sg18
I146
ssg110
I0
sg369
I1
sg370
I0
sg372
g373
sg108
I0
sg374
I1
ssg16
g65
sg18
I145
sssg528
(dp1061
g2
(lp1062
((g4
g5
tI-1
tp1063
a((g7
g5
tI-1
tp1064
a((g73
g74
tI-1
tp1065
a((g76
g77
tI-1
tp1066
a((g79
g80
tI-1
tp1067
a((g348
g349
tI-1
tp1068
asg12
g348
sg13
(dp1069
g15
Nsg16
g48
sg18
I14
ssg16
g19
sg18
I157
sg20
g349
sg15
(dp1070
g15
(dp1071
g273
F1
sg354
g355
sg356
I12
sg314
F0
sg357
F0
sg358
I1
sg359
g524
sg361
I0
sg99
I0
sg362
F1.1000000000000001
sg363
(dp1072
g15
Nsg16
g48
sg18
I25
ssg365
I1
sg366
(dp1073
g15
S'H4sIAMcbmEYC/03NsQrDIBDG8f17EV0qmqRbX8DFoa6FEo2BQJOIPaG+fY+00A7/4bgfd3Gra24q\n7iWptT5oGUsZG+4lxX17UqmRkA1kPBy26bPPHaTVIC+CAF1zzyMr24G+cqKWE/IA6cUyCLBmwfTM\nrIcXFwHnnD0ZHPGxYLXmxe2lDad/zfN//DCoN80p7hW4AAAA\n'
p1074
sg16
g230
sg18
I159
ssg110
I0
sg369
I1
sg370
I0
sg372
g373
sg108
I0
sg374
I1
ssg16
g65
sg18
I158
sssg543
(dp1075
g2
(lp1076
((g4
g5
tI-1
tp1077
a((g7
g5
tI-1
tp1078
a((g73
g74
tI-1
tp1079
a((g76
g77
tI-1
tp1080
a((g79
g80
tI-1
tp1081
a((g383
g384
tI-1
tp1082
a((g552
g553
tI-1
tp1083
asg12
g552
sg13
(dp1084
g15
Nsg16
g48
sg18
I14
ssg16
g19
sg18
I147
sg20
g553
sg15
(dp1085
g15
(dp1086
g392
S'i'
sg393
I0
sg99
I0
sg395
F0.55000001192092896
sg108
I0
sg396
I0
sg397
I0
sg110
I0
sg398
I0
ssg16
g65
sg18
I148
sssg95
S''
sg558
g679
sg560
(dp1087
g15
Nsg16
g48
sg18
I149
ssg51
S''
sg501
I256
sg562
g679
sg66
S''
sg564
I01
sg565
I8
sg566
I00
sg567
(dp1088
g2
(lp1089
((g4
g5
tI-1
tp1090
a((g7
g5
tI-1
tp1091
a((g73
g74
tI-1
tp1092
a((g76
g77
tI-1
tp1093
a((g79
g80
tI-1
tp1094
a((g297
g298
tI-1
tp1095
a((g576
g577
tI-1
tp1096
a((g579
g580
tI-1
tp1097
asg12
g579
sg13
(dp1098
g15
Nsg16
g48
sg18
I14
ssg16
g19
sg18
I160
sg20
g580
sg15
(dp1099
g15
(dp1100
g99
I0
sg325
I1
sg314
g585
sg586
F0.80000000000000004
sg587
S'%-#6.3g'
p1101
sg565
I8
sg317
I1
sg318
I1
sg319
I1
sg320
I1
sg108
I0
sg589
I256
sg590
I0
sg591
(dp1102
g15
S'H4sIAMcbmEYC/2XOMQuDMBAF4P39kWSpaGxAoeCcxaGugaIxQqFqSC8Q/30P263DGx7v4zi3pTUc\nhdujL9b0oucY43jgEb3btzfF5AihgnSnwzZ/96AgTQkaxCRA91BzZWUU6CdnOoJHuEIOYmkEWLNg\nqpnVGMRNoO97c6lwho9Npix5sLkdOe1/fNvZ7GqbFy2ttblZuCqO7viLqfgAbt3QTs0AAAA=\n'
p1103
sg16
g230
sg18
I163
ssg321
I1
sg322
(dp1104
g15
S'H4sIAMcbmEYC/2XOMQuDMBAF4P39kbhUjFpQKDiWLA51DZQkplCoGtITYvvne9huHd5wvI/HuXmd\nwpa7Jfp8Wh90NzGaDdfo3TI/Ka6OECQytzvM47cPJTJVgAZhBegSKj5ZqRL0kyNtwSPUyAZxawRY\ns2B6ZFZhECeBvu/VQWIPj1lVFFzo1BpO+x/bdm+dZK2T8WedvHzp1NQdf2DzD7ndMtDJAAAA\n'
p1105
sg16
g230
sg18
I162
ssg596
F0.17000000000000001
sg110
I0
sg597
I0
ssg16
g65
sg18
I161
sssg598
(dp1106
g15
S'H4sIAMcbmEYC/53OsQrCMBQF0P3+SLIY0lbBQXDOksGsgjRpCoJNQ/oC5u99VL/A4Q6Pe7i8kOqS\nmwpriWqpL3qOpYwNjxLDmjYqNRByBxl2hzR9+9xDGg1ywgvQLQ98sjI96CcnajkiHyGdmM8CrFkw\nPTEb4MRFwFprDh328Jg3WnNxf2v9X2Z95W+8+gDYoI1C1QAAAA==\n'
p1107
sg16
g230
sg18
I164
ssg370
I00
sg601
g602
sg603
I00
ssg16
g65
sg18
I143
ssssg16
g65
sg18
I95
ssasg16
g452
sg18
I93
ssS'reset_upper'
p1108
I01
ssg16
g65
sg18
I92
ssasg16
g452
sg18
I5
ssS'_max_timestep'
p1109
I3
ssg16
g65
sg18
I4
sssg51
S'MayaVi Engine'
p1110
sS'preference_manager'
p1111
(dp1112
g2
(lp1113
((g4
g5
tI-1
tp1114
a((S'PreferenceManager'
p1115
S'enthought.mayavi.preference_manager'
p1116
tI-1
tp1117
asg12
g1115
sg13
(dp1118
g15
Nsg16
g48
sg18
I1
ssg16
g19
sg18
I452
sg20
g1116
sg15
(dp1119
g15
(dp1120
S'engine'
p1121
(dp1122
g15
Nsg16
g48
sg18
I0
ssS'preferences'
p1123
(dp1124
g2
(lp1125
((g4
g5
tI-1
tp1126
a((S'Preferences'
p1127
S'enthought.envisage.core.preferences'
p1128
tI-1
tp1129
asg12
g1127
sg13
(dp1130
g15
Nsg16
g48
sg18
I1
ssg16
g19
sg18
I454
sg20
g1128
sg15
(dp1131
g15
(dp1132
S'user'
p1133
(dp1134
g15
(dp1135
sg16
g65
sg18
I456
ssS'defaults'
p1136
(dp1137
g15
(dp1138
S'confirm_delete'
p1139
I01
ssg16
g65
sg18
I457
sssg16
g65
sg18
I455
ssssg16
g65
sg18
I453
sssS'scenes'
p1140
(dp1141
g15
(lp1142
(dp1143
g2
(lp1144
((g4
g5
tI-1
tp1145
a((g27
g5
tI-1
tp1146
a((g29
g30
tI-1
tp1147
a((g32
g33
tI0
tp1148
a((S'Scene'
p1149
S'enthought.mayavi.core.scene'
p1150
tI0
tp1151
asg12
g1149
sg13
(dp1152
g15
Nsg16
g48
sg18
I1
ssg16
g19
sg18
I172
sg20
g1150
sg15
(dp1153
g15
(dp1154
g66
S''
sS'scene'
p1155
(dp1156
g2
(lp1157
((g4
g5
tI-1
tp1158
a((g27
g5
tI-1
tp1159
a((S'Widget'
p1160
S'enthought.pyface.widget'
p1161
tI-1
tp1162
a((g1149
S'enthought.pyface.tvtk.scene'
p1163
tI0
tp1164
a((S'DecoratedScene'
p1165
S'enthought.pyface.tvtk.decorated_scene'
p1166
tI0
tp1167
asg12
g1165
sg13
(dp1168
g15
Nsg16
g48
sg18
I1
ssg16
g19
sg18
I174
sg20
g1166
sg15
(dp1169
g15
(dp1170
S'picker'
p1171
(dp1172
g2
(lp1173
((g4
g5
tI-1
tp1174
a((S'Picker'
p1175
S'enthought.pyface.tvtk.picker'
p1176
tI0
tp1177
asg12
g1175
sg13
(dp1178
g15
Nsg16
g48
sg18
I1
ssg16
g19
sg18
I176
sg20
g1176
sg15
(dp1179
g15
(dp1180
S'p_mapper'
p1181
(dp1182
g2
(lp1183
((g4
g5
tI-1
tp1184
a((g7
g5
tI-1
tp1185
a((g73
g74
tI-1
tp1186
a((g76
g77
tI-1
tp1187
a((g79
g80
tI-1
tp1188
a((g82
g83
tI-1
tp1189
a((g200
g201
tI-1
tp1190
a((g203
g204
tI-1
tp1191
a((g206
g207
tI-1
tp1192
a((g209
g210
tI-1
tp1193
asg12
g209
sg13
(dp1194
g15
Nsg16
g48
sg18
I14
ssg16
g19
sg18
I178
sg20
g210
sg15
(dp1195
g15
(dp1196
g216
I0
sg217
I0
sg218
g219
sg220
I0
sg99
I0
sg221
F0.01
sg222
I0
sg223
g219
sg224
I0
sg110
I0
sg225
I0
sg226
I0
sg104
I0
sg106
I0
sg107
F0
sg227
(dp1197
g15
S'H4sIAMcbmEYC/53OsQrCMBQF0P3+SLIY0lbBQXDOksGsgjRpCoJNQ/oC5u99VL/A4Q6Pe7i8kOqS\nmwpriWqpL3qOpYwNjxLDmjYqNRByBxl2hzR9+9xDGg1ywgvQLQ98sjI96CcnajkiHyGdmM8CrFkw\nPTEb4MRFwFprDh328Jg3WnNxf2v9X2Z95W+8+gDYoI1C1QAAAA==\n'
p1198
sg16
g230
sg18
I180
ssg231
I0
sg108
I0
sg232
I0
sg233
I1
sg115
I0
sg234
I1
sg235
I0
sg236
I0
sg237
I0
sg238
I1
sg239
g219
sg119
I0
sg240
I0
sg241
I1
sg242
g243
sg244
F0
ssg16
g65
sg18
I179
sssS'worldpicker'
p1199
(dp1200
g2
(lp1201
((g4
g5
tI-1
tp1202
a((g7
g5
tI-1
tp1203
a((g73
g74
tI-1
tp1204
a((g76
g77
tI-1
tp1205
a((g79
g80
tI-1
tp1206
a((S'AbstractPicker'
p1207
S'tvtk_classes.abstract_picker'
p1208
tI-1
tp1209
a((S'WorldPointPicker'
p1210
S'tvtk_classes.world_point_picker'
p1211
tI-1
tp1212
asg12
g1210
sg13
(dp1213
g15
Nsg16
g48
sg18
I14
ssg16
g19
sg18
I181
sg20
g1211
sg15
(dp1214
g15
(dp1215
g110
I0
sg108
I0
sS'pick_from_list_'
p1216
I0
sg99
I0
sS'pick_from_list'
p1217
I0
ssg16
g65
sg18
I182
sssS'probe_data'
p1218
(dp1219
g2
(lp1220
((g4
g5
tI-1
tp1221
a((g7
g5
tI-1
tp1222
a((g73
g74
tI-1
tp1223
a((g76
g77
tI-1
tp1224
a((g79
g80
tI-1
tp1225
a((S'DataObject'
p1226
S'tvtk_classes.data_object'
p1227
tI-1
tp1228
a((S'DataSet'
p1229
S'tvtk_classes.data_set'
p1230
tI-1
tp1231
a((S'PointSet'
p1232
S'tvtk_classes.point_set'
p1233
tI-1
tp1234
a((S'PolyData'
p1235
S'tvtk_classes.poly_data'
p1236
tI-1
tp1237
asg12
g1235
sg13
(dp1238
g15
Nsg16
g48
sg18
I14
ssg16
g19
sg18
I183
sg20
g1236
sg15
(dp1239
g15
(dp1240
S'update_piece'
p1241
I0
sS'whole_extent'
p1242
(dp1243
g15
S'H4sIAMcbmEYC/6XOsQrCMBQF0P3+SLIYUlud/IEsGcwqSJOmULBpSF/B/L2P6tLZ4Q6Pe7i8kLY5\nVxWWEtW8vWjqS+krniWGJa1UtkDIDWTYHdLw7fMZ0miQE16A7rnlk5W5gn5yoJojcgfpxNQJsGbB\n9MKshRM3AWutOTXYw2PeaM3F4631MeN4zH89P+zVB24aZ/74AAAA\n'
p1244
sg16
g230
sg18
I185
ssS'update_number_of_pieces'
p1245
I1
sg110
I0
sS'update_ghost_level'
p1246
I0
sS'global_release_data_flag_'
p1247
I0
sg99
I0
sS'update_extent'
p1248
(dp1249
g15
S'H4sIAMcbmEYC/6XOsQrCMBQF0P3+SLIYUlud/IEsGcwqSJOmULBpSF/B/L2P6tLZ4Q6Pe7i8kLY5\nVxWWEtW8vWjqS+krniWGJa1UtkDIDWTYHdLw7fMZ0miQE16A7rnlk5W5gn5yoJojcgfpxNQJsGbB\n9MKshRM3AWutOTXYw2PeaM3F4631MeN4zH89P+zVB24aZ/74AAAA\n'
p1250
sg16
g230
sg18
I186
ssS'request_exact_extent_'
p1251
I0
sg108
I0
sg106
I0
sS'global_release_data_flag'
p1252
I0
sg119
I0
sS'maximum_number_of_pieces'
p1253
I-1
sS'request_exact_extent'
p1254
I0
ssg16
g65
sg18
I184
sssS'cellpicker'
p1255
(dp1256
g2
(lp1257
((g4
g5
tI-1
tp1258
a((g7
g5
tI-1
tp1259
a((g73
g74
tI-1
tp1260
a((g76
g77
tI-1
tp1261
a((g79
g80
tI-1
tp1262
a((g1207
g1208
tI-1
tp1263
a((S'AbstractPropPicker'
p1264
S'tvtk_classes.abstract_prop_picker'
p1265
tI-1
tp1266
a((g1175
S'tvtk_classes.picker'
p1267
tI-1
tp1268
a((S'CellPicker'
p1269
S'tvtk_classes.cell_picker'
p1270
tI-1
tp1271
asg12
g1269
sg13
(dp1272
g15
Nsg16
g48
sg18
I14
ssg16
g19
sg18
I187
sg20
g1270
sg15
(dp1273
g15
(dp1274
g99
I0
sg1217
I0
sg108
I0
sg1216
I0
sg110
I0
sS'tolerance'
p1275
F0.025000000000000001
ssg16
g65
sg18
I188
sssS'p_actor'
p1276
(dp1277
g2
(lp1278
((g4
g5
tI-1
tp1279
a((g7
g5
tI-1
tp1280
a((g73
g74
tI-1
tp1281
a((g76
g77
tI-1
tp1282
a((g79
g80
tI-1
tp1283
a((g297
g298
tI-1
tp1284
a((g300
g301
tI-1
tp1285
a((g185
g303
tI-1
tp1286
asg12
g185
sg13
(dp1287
g15
Nsg16
g48
sg18
I14
ssg16
g19
sg18
I189
sg20
g303
sg15
(dp1288
g15
(dp1289
g308
(dp1290
g15
S'H4sIAMcbmEYC/7XOMQoCMRAF0P5fJGkMWVfBwguk2cK0gmyyEQQ3O8QJmNs7RK9g8YvhPz4Tc12p\nmbiVZNb65MdcytxwKylu+cWlRgYN0LE75OXb0x7aWbBXQYEvNMopyo3gn1y4UQIdoL26nxREixB6\n7Myrs8I0TW43oEfGgrNWiuvb2n9GHg7mAy0aBDD4AAAA\n'
p1291
sg16
g230
sg18
I191
ssg311
(dp1292
g15
S'H4sIAMcbmEYC/53OMQvCMBAF4P39kWQxpFbBQXDOksGsgjRpCoJtQ3oB8+89oqOTwxuO9/G4sJQ5\nVRXWHNVcnvQYch4q7jmGddkol0BIHWRoDsv46dMe0miQE16Arqnnk5XpQV85Uk0R6QDpxHQSYM2C\n6bExJ84C1lqz69DCY95ozcXtpfXvTPryf8l/evUGx/o6Le8AAAA=\n'
p1293
sg16
g230
sg18
I193
ssg314
(dp1294
g15
S'H4sIAMcbmEYC/53OsQoCMRAE0H5+JGkMOU/hCn8gTQrTCnLJRRC8XIgbMH/vEu0FiymWeQwbUl1z\nU2ErUa31Qfe5lLnhWmLY0pNKDYQ8QIbukJZPn/eQRoOc8AJ0ziOfrMwI+sqFWo7IB0gnbpMAaxZM\nj505cRKw1prdgB4e80ZrLi4vrf/P9NPww169AaZN3yn4AAAA\n'
p1295
sg16
g230
sg18
I192
ssg110
I0
sg317
I1
sg318
I0
sg319
I0
sg320
I1
sg108
I0
sg99
I0
sg321
I0
sg322
(dp1296
g15
S'H4sIAMcbmEYC/7XOMQoCMRAF0P5fJGkMWVfBwguk2cK0gmyyEQQ3O8QJmNs7RK9g8YvhPz4Tc12p\nmbiVZNb65MdcytxwKylu+cWlRgYN0LE75OXb0x7aWbBXQYEvNMopyo3gn1y4UQIdoL26nxREixB6\n7Myrs8I0TW43oEfGgrNWiuvb2n9GHg7mAy0aBDD4AAAA\n'
p1297
sg16
g230
sg18
I194
ssg325
I0
ssg16
g65
sg18
I190
sssS'p_source'
p1298
(dp1299
g2
(lp1300
((g4
g5
tI-1
tp1301
a((g7
g5
tI-1
tp1302
a((g73
g74
tI-1
tp1303
a((g76
g77
tI-1
tp1304
a((g79
g80
tI-1
tp1305
a((g82
g83
tI-1
tp1306
a((g165
g166
tI-1
tp1307
a((S'Axes'
p1308
S'tvtk_classes.axes'
p1309
tI-1
tp1310
asg12
g1308
sg13
(dp1311
g15
Nsg16
g48
sg18
I14
ssg16
g19
sg18
I195
sg20
g1309
sg15
(dp1312
g15
(dp1313
g308
(dp1314
g15
S'H4sIAMcbmEYC/7XOMQoCMRAF0P5fJGkMWVfBwguk2cK0gmyyEQQ3O8QJmNs7RK9g8YvhPz4Tc12p\nmbiVZNb65MdcytxwKylu+cWlRgYN0LE75OXb0x7aWbBXQYEvNMopyo3gn1y4UQIdoL26nxREixB6\n7Myrs8I0TW43oEfGgrNWiuvb2n9GHg7mAy0aBDD4AAAA\n'
p1315
sg16
g230
sg18
I197
ssS'scale_factor'
p1316
F1
sg880
I1
sg115
I0
sg883
I1
sg110
I0
sS'symmetric'
p1317
I1
sg108
I0
sg104
I0
sg99
I0
sg106
I0
sg119
I0
sg107
F0
sS'symmetric_'
p1318
I1
ssg16
g65
sg18
I196
sssS'pick_type'
p1319
S'point_picker'
p1320
sg1275
F0.025000000000000001
sS'pointpicker'
p1321
(dp1322
g2
(lp1323
((g4
g5
tI-1
tp1324
a((g7
g5
tI-1
tp1325
a((g73
g74
tI-1
tp1326
a((g76
g77
tI-1
tp1327
a((g79
g80
tI-1
tp1328
a((g1207
g1208
tI-1
tp1329
a((g1264
g1265
tI-1
tp1330
a((g1175
g1267
tI-1
tp1331
a((S'PointPicker'
p1332
S'tvtk_classes.point_picker'
p1333
tI-1
tp1334
asg12
g1332
sg13
(dp1335
g15
Nsg16
g48
sg18
I14
ssg16
g19
sg18
I198
sg20
g1333
sg15
(dp1336
g15
(dp1337
g99
I0
sg1217
I0
sg108
I0
sg1216
I0
sg110
I0
sg1275
F0.025000000000000001
ssg16
g65
sg18
I199
ssssg16
g65
sg18
I177
sssS'foreground'
p1338
(dp1339
g15
Nsg16
g48
sg18
I25
ssS'stereo'
p1340
I00
sS'_renderer'
p1341
(dp1342
g2
(lp1343
((g4
g5
tI-1
tp1344
a((g7
g5
tI-1
tp1345
a((g73
g74
tI-1
tp1346
a((g76
g77
tI-1
tp1347
a((g79
g80
tI-1
tp1348
a((S'Viewport'
p1349
S'tvtk_classes.viewport'
p1350
tI-1
tp1351
a((S'Renderer'
p1352
S'tvtk_classes.renderer'
p1353
tI-1
tp1354
asg12
g1352
sg13
(dp1355
g15
Nsg16
g48
sg18
I14
ssg16
g19
sg18
I222
sg20
g1353
sg15
(dp1356
g15
(dp1357
S'layer'
p1358
I0
sS'pixel_aspect'
p1359
(dp1360
g15
S'H4sIAMcbmEYC/33OMQvCMBAF4P39kWQxpK2Cg+CcJYNZBWnSFASbhngB8+89qqM4vOF4H48LqS65\nqbCWqJb6oPtYythwKzGs6UmlBkLuIMPmkKZPn3tIo0FOeAG65IFPVqYHfeVELUfkPaQT81GANQum\nB2YDnDgJWGvNrsMWHvNGay6uL61/Z9bnvyW/4tUbw9sFJ9IAAAA=\n'
p1361
sg16
g230
sg18
I224
ssS'two_sided_lighting_'
p1362
I1
sS'view_point'
p1363
(dp1364
g15
S'H4sIAMcbmEYC/y3OywqDMBAF0P38SNwoia/aUhC6KGQjpdJdQExMoOAjxEjj33ewXczizj0Mo+Zt\nsnuiFqeTaRv9u3eu36FzWi3z6t2mPFgGkToczMOvtylEnIJviSTgnzbDiIpn4P9y8LvVYHOIWmIq\nAqhRIC0O1pIrgaZpeMzgGDwmOaVYrCJU7PYRgRUiUMVFkOYugk5fGHNcZ+OljrsHJinC+SSCKbEu\na/xEJl8xz6gm0QAAAA==\n'
p1365
sg16
g230
sg18
I225
ssg394
I1
sS'erase'
p1366
I1
sS'aspect'
p1367
(dp1368
g15
S'H4sIAMcbmEYC/23OvQrCMBQF4P28SLpY0taKg9A5SwezaUCapAWxPyHeQvr2Xqqjwxku5+Nw3bxO\nYcvdEvt8Wkd6djF2Gx6xd8v8prg6QiiQud1h9t8+lMiUBGlhBegaKj5ZqRL0k5620CMckWkxnAVY\ns2BaM6ugxUWgbVt1KLCHx6ySkov7y6TOm2Rrk/zpZtJgG5Ok/J9BNvyBzT9QFBUiyQAAAA==\n'
p1369
sg16
g230
sg18
I226
ssg269
(dp1370
g15
S'H4sIAMcbmEYC/53OMQvCMBAF4P39kWQxpFbBQXDOksGsgjRpCoJtQ3oB8+89oqOTwxuO9/G4sJQ5\nVRXWHNVcnvQYch4q7jmGddkol0BIHWRoDsv46dMe0miQE16Arqnnk5XpQV85Uk0R6QDpxHQSYM2C\n6bExJ84C1lqz69DCY95ozcXtpfXvTPryf8l/evUGx/o6Le8AAAA=\n'
p1371
sg16
g230
sg18
I227
ssS'erase_'
p1372
I1
sg110
I0
sS'near_clipping_plane_tolerance'
p1373
F0.001
sS'world_point'
p1374
(dp1375
g15
S'H4sIAMcbmEYC/23OPQvCMBAG4P1+h5AulquJtYKia0E7tI4ByUcLgm1jTCH99x7V0eFI7t7nQsww\n9W5OzejbtJ+e4aG8VzPcfWvG4R38ZAK4DBKzOBjsN3cbSEqE0DDNINSOU0uqFBB+0obZteAEJA3r\nCgakSRDdEuPQsAODqqrKdQZL0WO6RKRARitkVFpGjav6JWMrzjLuuYyYy2h2l+uRZoquKGNBZ8Zv\nZHlKiJZsThrxf3V4ov/q9AN9ttaM9wAAAA==\n'
p1376
sg16
g230
sg18
I228
ssS'two_sided_lighting'
p1377
I1
sS'allocated_render_time'
p1378
F5000
sg108
I0
sS'background'
p1379
(dp1380
g15
Nsg16
g48
sg18
I200
ssS'viewport'
p1381
(dp1382
g15
S'H4sIAMcbmEYC/7XPMQvCMBAF4P39kWQxpLaCg+CcJYNZBWnSFASbhngB8+89qrObwxuO9/HgQqpL\nbiqsJaqlPug+ljI23EoMa3pSqYGQO8iwOaTp0+c9pNEgJ7wAXXLPJyszgL5yopYj8gDpxHwUYM2C\n6YFZDydOAtZas+uwhce80ZqL60vr/2TW558lv+LVG7bqK1ESAQAA\n'
p1383
sg16
g230
sg18
I230
ssS'display_point'
p1384
(dp1385
g15
S'H4sIAMcbmEYC/y2OwQqDMBBE7/sj8aJErdZCoV5zsaVeA8VEhULVEFeIf9/B9jAsO++xrJ23ye2J\nXfyQTNuH35333U4vP9hlXtlvlsmlFNnDo7n/cZdRpCRxK4wgfrocKyyVE//Nnnc3kDtR1IqxEgQb\nBtTi0FpxFdQ0jYpTOoJjRkkJoENV6DCmOpjqroPNUFhE1jpIyUBSh6HHHLu1jl8P1EaHyxlNCVLe\n8JJJvjams1/aAAAA\n'
p1386
sg16
g230
sg18
I229
ssS'automatic_light_creation_'
p1387
I1
sS'backing_store_'
p1388
I0
sg99
I0
sS'backing_store'
p1389
I0
sS'light_follow_camera'
p1390
I1
sS'automatic_light_creation'
p1391
I1
sS'light_follow_camera_'
p1392
I1
sg399
I1
ssg16
g65
sg18
I223
sssS'anti_aliasing_frames'
p1393
I8
sS'disable_render'
p1394
I00
sS'parallel_projection'
p1395
I00
sg400
(dp1396
g2
(lp1397
((g4
g5
tI-1
tp1398
a((g7
g5
tI-1
tp1399
a((g73
g74
tI-1
tp1400
a((g76
g77
tI-1
tp1401
a((g79
g80
tI-1
tp1402
a((g297
g298
tI-1
tp1403
a((g300
g301
tI-1
tp1404
a((g410
g411
tI-1
tp1405
asg12
g410
sg13
(dp1406
g15
Nsg16
g48
sg18
I14
ssg16
g19
sg18
I203
sg20
g411
sg15
(dp1407
g15
(dp1408
g308
(dp1409
g15
S'H4sIAMcbmEYC/7XOMQoCMRAF0P5fJGkMWVfBwguk2cK0gmyyEQQ3O8QJmNs7RK9g8YvhPz4Tc12p\nmbiVZNb65MdcytxwKylu+cWlRgYN0LE75OXb0x7aWbBXQYEvNMopyo3gn1y4UQIdoL26nxREixB6\n7Myrs8I0TW43oEfGgrNWiuvb2n9GHg7mAy0aBDD4AAAA\n'
p1410
sg16
g230
sg18
I205
ssg314
(dp1411
g15
S'H4sIAMcbmEYC/53OsQoCMRAE0H5+JGkMOU/hCn8gTQrTCnLJRRC8XIgbMH/vEu0FiymWeQwbUl1z\nU2ErUa31Qfe5lLnhWmLY0pNKDYQ8QIbukJZPn/eQRoOc8AJ0ziOfrMwI+sqFWo7IB0gnbpMAaxZM\nj505cRKw1prdgB4e80ZrLi4vrf/P9NPww169AaZN3yn4AAAA\n'
p1412
sg16
g230
sg18
I206
ssg420
(dp1413
g15
S'H4sIAMcbmEYC/53OMQvCMBAF4P39ketiaK2CBcE5SwazCpImFQTbHvEC9t97VDc3hzcc7+NxcSoj\nLybOeTBjecg95BwWXPMQ5+kpuUQBN6ji6jClT89bVLaGeOoJcuZWT1W2hXxlkoUH8A6Vp9uBoFqF\n0v3KPB0Jzjm7abBGx3pb11pcXl3QdL9J3en/Uv/szRs+d+FG7wAAAA==\n'
p1414
sg16
g230
sg18
I207
ssg317
I1
sg319
I1
sg451
I16
sg321
I1
sg99
I0
sg311
(dp1415
g15
S'H4sIAMcbmEYC/53OMQvCMBAF4P39kWQxpFbBQXDOksGsgjRpCoJtQ3oB8+89oqOTwxuO9/G4sJQ5\nVRXWHNVcnvQYch4q7jmGddkol0BIHWRoDsv46dMe0miQE16Arqnnk5XpQV85Uk0R6QDpxHQSYM2C\n6bExJ84C1lqz69DCY95ozcXtpfXvTPryf8l/evUGx/o6Le8AAAA=\n'
p1416
sg16
g230
sg18
I208
ssg425
F0.050000000000000003
sg426
I16
sg427
I16
sg428
I1
sg429
(dp1417
g15
S'H4sIAMcbmEYC/53OMQvCMBAF4P39kWQxpFbBQXDOksGsgjRpCoJtQ3oB8+89oqOTwxuO9/G4sJQ5\nVRXWHNVcnvQYch4q7jmGddkol0BIHWRoDsv46dMe0miQE16Arqnnk5XpQV85Uk0R6QDpxHQSYM2C\n6bExJ84C1lqz69DCY95ozcXtpfXvTPryf8l/evUGx/o6Le8AAAA=\n'
p1418
sg16
g230
sg18
I209
ssg325
I1
sg432
g433
sg434
S'X'
sg435
F0.40000000000000002
sg436
S'Z'
sg318
I1
sg320
I1
sg108
I0
sg437
I1
sg438
S'Y'
sg439
I0
sg440
F0.5
sg441
(dp1419
g15
S'H4sIAMcbmEYC/23NsQoCMQwG4P1/kXax9KyCg+DcpYNdBbn2KgjeXemlYN/eUB0NBBL+jyQudc5N\nxbUkNdcXPcdSxoZ7SXFdNio1EvIAGbvDMn3zvIe0GuRFEKBrNryysgb0kxO1nJAPkF48TgKsWTA9\ndubFWcA5Z3cDevOxYLXmwPS6vZO5/B/5Y1Afbh8AYbkAAAA=\n'
p1420
sg16
g230
sg18
I210
ssg444
g445
sg446
(dp1421
g15
S'H4sIAMcbmEYC/53OMQvCMBAF4P39kWQxpFbBQXDOksGsgjRpCoJtQ3oB8+89oqOTwxuO9/G4sJQ5\nVRXWHNVcnvQYch4q7jmGddkol0BIHWRoDsv46dMe0miQE16Arqnnk5XpQV85Uk0R6QDpxHQSYM2C\n6bExJ84C1lqz69DCY95ozcXtpfXvTPryf8l/evUGx/o6Le8AAAA=\n'
p1422
sg16
g230
sg18
I211
ssg110
I0
sg322
(dp1423
g15
S'H4sIAMcbmEYC/7XOMQoCMRAF0P5fJGkMWVfBwguk2cK0gmyyEQQ3O8QJmNs7RK9g8YvhPz4Tc12p\nmbiVZNb65MdcytxwKylu+cWlRgYN0LE75OXb0x7aWbBXQYEvNMopyo3gn1y4UQIdoL26nxREixB6\n7Myrs8I0TW43oEfGgrNWiuvb2n9GHg7mAy0aBDD4AAAA\n'
p1424
sg16
g230
sg18
I212
sssg16
g65
sg18
I204
sssS'point_smoothing'
p1425
I00
sS'line_smoothing'
p1426
I00
sS'show_axes'
p1427
I00
sS'magnification'
p1428
I1
sS'camera'
p1429
(dp1430
g2
(lp1431
((g4
g5
tI-1
tp1432
a((g7
g5
tI-1
tp1433
a((g73
g74
tI-1
tp1434
a((g76
g77
tI-1
tp1435
a((g79
g80
tI-1
tp1436
a((S'Camera'
p1437
S'tvtk_classes.camera'
p1438
tI-1
tp1439
a((S'OpenGLCamera'
p1440
S'tvtk_classes.open_gl_camera'
p1441
tI-1
tp1442
asg12
g1440
sg13
(dp1443
g15
Nsg16
g48
sg18
I14
ssg16
g19
sg18
I213
sg20
g1441
sg15
(dp1444
g15
(dp1445
S'distance'
p1446
F80305.562975413937
sS'view_plane_normal'
p1447
(dp1448
g15
S'H4sIAMcbmEYC/y3OTQuDMAwG4Ht+xW71Mqlfc4OB516EzWvBtWmFwdTSVaj/fqHuEN6EPITgss1u\nz3H1Np+3T3gr79UOo7e4Lt/gNwzgCsgwOVjMsXclZIJDGJhmEJ6uopGUqCD8pQm7s+BqyAY2XRmQ\nJkG0SWxgdwZ934tzAanomBac0+Ilo25kNLWMyClvlC1l253G7phNW8poFcHpcaEOZeTEFT/SYEdf\n6fwHIgnejt0AAAA=\n'
p1449
sg16
g230
sg18
I215
ssS'window_center'
p1450
(dp1451
g15
S'H4sIAMcbmEYC/6XOQQrCMBAF0P2/yGRjSFsFF14gmy7MVpAmjSDYNKQTMLd3qN7AxV8M//GZkOqS\nmw5riXqpL35OpUwN9xLDmjYuNTByBxV2hzR/+9xDWQN25Al8zYOcomwP/smZW47IRyhHjzNBtAih\nJ2EDHF0I4zjaQ4c9MuatMVLc3sb8E3nI6w+QLErH2AAAAA==\n'
p1452
sg16
g230
sg18
I216
ssS'parallel_projection_'
p1453
I0
sg322
(dp1454
g15
S'H4sIAMcbmEYC/y2OywrCMBBF9/Mj6UJLah9aEOk2my4s7iKSpCkotg0xhfTvvVQX87znDmOmZXRr\namZv03F5h6fyXq308NbM0yf4xQRyGSVm42jqf7o7UCI4hY5pRuHqcoygRE7hT/ZhdZZcQUnHhhMj\n0CCAlhvWsTOjtm3FPqMtcEwLziG8ZLRHGXuOWiH0iFQ0MtbDXUZVymiG2wU7hQ4Qr3ZYa+hWxgyO\nuoe7avCYTr8HqOPH4AAAAA==\n'
p1455
sg16
g230
sg18
I221
ssS'parallel_scale'
p1456
F20784.609690826528
sS'thickness'
p1457
F89825.284203773699
sS'view_up'
p1458
(dp1459
g15
S'H4sIAMcbmEYC/y2OTQuDMAyG7/khq5eJ9YMpDDz3ImzdMTBsrGMwtXQV6r9f5nZ44E3ehxCa18lt\nKS3eptP6Cs/e+36Du7e0zO/gVwrgJCS0ezAPv97lkKgMghZGQLi6gke2VAHhbw5hcxZcCYkWYy2A\nbTZYrXZNi7OAruvUUcIOHzMqy7jAWJcY+/xxwSg5jTVGOmE0o554Y5nxcMM4NC3GRvJYMBVGy5Jk\n6Jup5cdM+gGqoxgd4AAAAA==\n'
p1460
sg16
g230
sg18
I217
ssS'use_horizontal_view_angle'
p1461
I0
sS'eye_angle'
p1462
F2
sS'focal_disk'
p1463
F1
sg108
I0
sS'clipping_range'
p1464
(dp1465
g15
S'H4sIAMcbmEYC/y2OwQqDMAyG73mReplU3YaDHbz24mFeC6PGFgabli5CPezd9+N2CF/y5yOE5/UV\nt5KX5MvX+pSHS8ltdE+el/ktaWWhWFHBu0fz9NvHmgqjSQY1KpJbbDDCMjXJ35xki57ikYpBhVYR\nbBhQT9AaGtRVUd/35lDRXjg2Gq2xsJnrj81a2+zOINs8gb7pss0t0uqCJIAORB9ChyfG8guCZ3Bg\nzAAAAA==\n'
p1466
sg16
g230
sg18
I220
ssg99
I0
sS'view_shear'
p1467
(dp1468
g15
S'H4sIAMcbmEYC/7XOsQoCMRAE0H5+JGkMOU/BQrBOk8K0glxyORC8XIgbMH/vEv0FiymWeQwbUl1z\nU2ErUa31SY+plKnhXmLY0otKDYQ8QIbukOZvn/eQRoOc8AJ0zSOfrMwI+smZWo7IB0gnlpMAaxZM\nj505cRaw1prdgB4e80ZrLm5vrf+TRV/4W68+7xE3gfUAAAA=\n'
p1469
sg16
g230
sg18
I218
ssg110
I0
sS'view_angle'
p1470
F30
sS'focal_point'
p1471
(dp1472
g15
S'H4sIAMcbmEYC/22OMQuDQAxG9++PnEslaks7dOh6i0NdD4qeCoWq4Yxw/vsG69BChzeE9xLix2Xg\nNfVT6NJhecmzDqFe8Qidn8ZZwuIFnCHxW4ex/XjOkViCVKYxkDsXOmplC8hetrJyBz4iqUx/MdBa\nC01PW1aZq0FZlvaQYUOPNZZIhYsZuUg/sIv+fHOxz5X+m2k39H9HIf2wSd8MOFx06QAAAA==\n'
p1473
sg16
g230
sg18
I219
ssg1395
I0
sS'use_horizontal_view_angle_'
p1474
I0
ssg16
g65
sg18
I214
sssS'jpeg_quality'
p1475
I95
sg1379
(dp1476
g15
(F0.10000000000000001
F0.20000000000000001
F0.40000000000000002
tp1477
sg16
g17
sg18
I200
ssg375
(dp1478
g2
(lp1479
((g4
g5
tI-1
tp1480
a((g7
g5
tI-1
tp1481
a((g73
g74
tI-1
tp1482
a((g76
g77
tI-1
tp1483
a((g79
g80
tI-1
tp1484
a((g383
g384
tI-1
tp1485
a((g386
g387
tI-1
tp1486
asg12
g386
sg13
(dp1487
g15
Nsg16
g48
sg18
I14
ssg16
g19
sg18
I201
sg20
g387
sg15
(dp1488
g15
(dp1489
g392
S'i'
sg393
I0
sg99
I0
sg394
I1
sg395
F0.55000001192092896
sg108
I0
sg396
I0
sg397
I0
sg110
I0
sg398
I0
sg399
I1
ssg16
g65
sg18
I202
sssS'off_screen_rendering'
p1490
I00
sS'polygon_smoothing'
p1491
I00
sS'light_manager'
p1492
(dp1493
g2
(lp1494
((g4
g5
tI-1
tp1495
a((S'LightManager'
p1496
S'enthought.pyface.tvtk.light_manager'
p1497
tI0
tp1498
asg12
g1496
sg13
(dp1499
g15
Nsg16
g48
sg18
I1
ssg16
g19
sg18
I231
sg20
g1497
sg15
(dp1500
g15
(dp1501
S'light_mode'
p1502
S'raymond'
p1503
sS'lights'
p1504
(dp1505
g15
(lp1506
(dp1507
g2
(lp1508
((g4
g5
tI-1
tp1509
a((S'CameraLight'
p1510
g1497
tI0
tp1511
asg12
g1510
sg13
(dp1512
g15
Nsg16
g48
sg18
I1
ssg16
g19
sg18
I234
sg20
g1497
sg15
(dp1513
g15
(dp1514
S'activate'
p1515
I01
sS'elevation'
p1516
F45
sg363
(dp1517
g15
Nsg16
g48
sg18
I25
ssS'source'
p1518
(dp1519
g2
(lp1520
((g4
g5
tI-1
tp1521
a((g7
g5
tI-1
tp1522
a((g73
g74
tI-1
tp1523
a((g76
g77
tI-1
tp1524
a((g79
g80
tI-1
tp1525
a((S'Light'
p1526
S'tvtk_classes.light'
p1527
tI-1
tp1528
asg12
g1526
sg13
(dp1529
g15
Nsg16
g48
sg18
I14
ssg16
g19
sg18
I236
sg20
g1527
sg15
(dp1530
g15
(dp1531
g276
(dp1532
g15
Nsg16
g48
sg18
I25
ssS'attenuation_values'
p1533
(dp1534
g15
S'H4sIAMcbmEYC/43OMQvCMBAF4P39kWQxpFbBQXDOksGsgjRpCoJtQ7yA+fce0VHB4Q3H+3hcWMqc\nqgprjmoud7oNOQ8V1xzDujwol0BIHWRoDsv47tMW0miQE16Azqnnk5XpQR85Uk0RaQfpxHQQYM2C\n6b4xJ44C1lqz6dDCY95ozcXlqfX3TPr0u/wv/K1XLxMFpQX1AAAA\n'
p1535
sg16
g230
sg18
I241
ssS'switch_'
p1536
I1
sS'exponent'
p1537
F1
sS'switch'
p1538
I1
sg262
(dp1539
g15
Nsg16
g48
sg18
I25
ssg278
(dp1540
g15
(F0
F0
F0
tp1541
sg16
g17
sg18
I238
ssg99
I0
sS'light_type_'
p1542
I2
sS'positional'
p1543
I0
sg108
I0
sS'intensity'
p1544
F1
sS'light_type'
p1545
S'camera_light'
p1546
sg110
I0
sg322
(dp1547
g15
S'H4sIAMcbmEYC/23OuwrDMAwF0F0/4iwNStMnLWT2kqFeDSXxAwp5GFcB+++rpt3a4Q7SPQiZaRlD\nLs0cXTkuAz26GLsM9+jMPD0pLoYgVFCY1cFkP33YQiERSIleAN1CzSMrWQN9paUcHIQdFEr4kwDW\nLJjuV6bEVUDbtnJTwRo+1ktELnTyjuN/Y32jk7EXnY7v8cysQ53cgdeI/+Ow4Q/78gVJEEmE6QAA\nAA==\n'
p1548
sg16
g230
sg18
I239
ssS'positional_'
p1549
I0
sS'cone_angle'
p1550
F30
sg1471
(dp1551
g15
S'H4sIAMcbmEYC/7XOMQoCMRAF0P5fJGkMWVfBwguk2cK0gmyyEQQ3O8QJmNs7RK9g8YvhPz4Tc12p\nmbiVZNb65MdcytxwKylu+cWlRgYN0LE75OXb0x7aWbBXQYEvNMopyo3gn1y4UQIdoL26nxREixB6\n7Myrs8I0TW43oEfGgrNWiuvb2n9GHg7mAy0aBDD4AAAA\n'
p1552
sg16
g230
sg18
I240
sssg16
g65
sg18
I237
sssg1544
F1
sS'azimuth'
p1553
F45
sS'glyph'
p1554
(dp1555
g2
(lp1556
((g4
g5
tI-1
tp1557
a((S'LightGlyph'
p1558
g1497
tI0
tp1559
asg12
g1558
sg13
(dp1560
g15
Nsg16
g48
sg18
I1
ssg16
g19
sg18
I242
sg20
g1497
sg15
(dp1561
g15
(dp1562
S'el'
p1563
F45
sS'az'
p1564
F45
sg174
(dp1565
g2
(lp1566
((g4
g5
tI-1
tp1567
a((g7
g5
tI-1
tp1568
a((g73
g74
tI-1
tp1569
a((g76
g77
tI-1
tp1570
a((g79
g80
tI-1
tp1571
a((g297
g298
tI-1
tp1572
a((g300
g301
tI-1
tp1573
a((g185
g303
tI-1
tp1574
a((S'Follower'
p1575
S'tvtk_classes.follower'
p1576
tI-1
tp1577
asg12
g1575
sg13
(dp1578
g15
Nsg16
g48
sg18
I14
ssg16
g19
sg18
I244
sg20
g1576
sg15
(dp1579
g15
(dp1580
g308
(dp1581
g15
S'H4sIAMcbmEYC/7XOMQoCMRAF0P5fJGkMWVfBwguk2cK0gmyyEQQ3O8QJmNs7RK9g8YvhPz4Tc12p\nmbiVZNb65MdcytxwKylu+cWlRgYN0LE75OXb0x7aWbBXQYEvNMopyo3gn1y4UQIdoL26nxREixB6\n7Myrs8I0TW43oEfGgrNWiuvb2n9GHg7mAy0aBDD4AAAA\n'
p1582
sg16
g230
sg18
I246
ssg311
(dp1583
g15
S'H4sIAMcbmEYC/53OMQvCMBAF4P39kWQxpFbBQXDOksGsgjRpCoJtQ3oB8+89oqOTwxuO9/G4sJQ5\nVRXWHNVcnvQYch4q7jmGddkol0BIHWRoDsv46dMe0miQE16Arqnnk5XpQV85Uk0R6QDpxHQSYM2C\n6bExJ84C1lqz69DCY95ozcXtpfXvTPryf8l/evUGx/o6Le8AAAA=\n'
p1584
sg16
g230
sg18
I248
ssg314
(dp1585
g15
S'H4sIAMcbmEYC/12OwQqCQBRF9/dHZjbJmIkFEbYcAhe5HSodjYrUYXrC2Nf3sFYtDtzLPTye7cfO\nTZEdfBt145PulffVhLNv7dC/yI+W4GJIO3vom+/ulpBagUpRC9DRJVzZ0gnoZzY0uRZuBVmK61qA\nbTZYTWetFFuBoij0IsYMH6u1UjyYoBJG/bPLTag4bVIme8vTIb88biasuTcZb/HeBKv4nzr6AK9z\noUrXAAAA\n'
p1586
sg16
g230
sg18
I247
ssg110
I0
sg317
I1
sg318
I1
sg319
I1
sg320
I1
sg108
I0
sg99
I0
sg321
I1
sg322
(dp1587
g15
S'H4sIAMcbmEYC/7XOMQoCMRAF0P5fJGkMWVfBwguk2cK0gmyyEQQ3O8QJmNs7RK9g8YvhPz4Tc12p\nmbiVZNb65MdcytxwKylu+cWlRgYN0LE75OXb0x7aWbBXQYEvNMopyo3gn1y4UQIdoL26nxREixB6\n7Myrs8I0TW43oEfGgrNWiuvb2n9GHg7mAy0aBDD4AAAA\n'
p1588
sg16
g230
sg18
I249
ssg325
I1
ssg16
g65
sg18
I245
ssssg16
g65
sg18
I243
ssssg16
g65
sg18
I235
ssa(dp1589
g2
(lp1590
((g4
g5
tI-1
tp1591
a((g1510
g1497
tI0
tp1592
asg12
g1510
sg13
(dp1593
g15
Nsg16
g48
sg18
I1
ssg16
g19
sg18
I250
sg20
g1497
sg15
(dp1594
g15
(dp1595
g1515
I01
sg1516
F-30
sg363
(dp1596
g15
Nsg16
g48
sg18
I25
ssg1518
(dp1597
g2
(lp1598
((g4
g5
tI-1
tp1599
a((g7
g5
tI-1
tp1600
a((g73
g74
tI-1
tp1601
a((g76
g77
tI-1
tp1602
a((g79
g80
tI-1
tp1603
a((g1526
g1527
tI-1
tp1604
asg12
g1526
sg13
(dp1605
g15
Nsg16
g48
sg18
I14
ssg16
g19
sg18
I252
sg20
g1527
sg15
(dp1606
g15
(dp1607
g276
(dp1608
g15
Nsg16
g48
sg18
I25
ssg1533
(dp1609
g15
S'H4sIAMcbmEYC/43OMQvCMBAF4P39kWQxpFbBQXDOksGsgjRpCoJtQ7yA+fce0VHB4Q3H+3hcWMqc\nqgprjmoud7oNOQ8V1xzDujwol0BIHWRoDsv47tMW0miQE16Azqnnk5XpQR85Uk0RaQfpxHQQYM2C\n6b4xJ44C1lqz6dDCY95ozcXlqfX3TPr0u/wv/K1XLxMFpQX1AAAA\n'
p1610
sg16
g230
sg18
I256
ssg1536
I1
sg1537
F1
sg1538
I1
sg262
(dp1611
g15
Nsg16
g48
sg18
I25
ssg278
(dp1612
g15
Nsg16
g48
sg18
I238
ssg99
I0
sg1542
I2
sg1543
I0
sg108
I0
sg1544
F0.59999999999999998
sg1545
g1546
sg110
I0
sg322
(dp1613
g15
S'H4sIAMcbmEYC/23OvQrCQBAE4H5e5NIYLkYlhWB9IClMYxGQ3B8I5nKcG0h8etfETospdudjWRPG\nPs65GZLL+/FB9y6lbsYtOTOEJ6XREGKBzCwOwa593CJTEtQILUCXWPLISpWgr7Q0R4e4Q9YIXwmw\nZsF0v7BGHAXqulabAkv4mFZSctFOUv6Pq9pJ+3byhuN/Y/3ad/Z8/egXjwde6xM/qfM3a8mLhewA\nAAA=\n'
p1614
sg16
g230
sg18
I254
ssg1549
I0
sg1550
F30
sg1471
(dp1615
g15
S'H4sIAMcbmEYC/7XOMQoCMRAF0P5fJGkMWVfBwguk2cK0gmyyEQQ3O8QJmNs7RK9g8YvhPz4Tc12p\nmbiVZNb65MdcytxwKylu+cWlRgYN0LE75OXb0x7aWbBXQYEvNMopyo3gn1y4UQIdoL26nxREixB6\n7Myrs8I0TW43oEfGgrNWiuvb2n9GHg7mAy0aBDD4AAAA\n'
p1616
sg16
g230
sg18
I255
sssg16
g65
sg18
I253
sssg1544
F0.59999999999999998
sg1553
F-60
sg1554
(dp1617
g2
(lp1618
((g4
g5
tI-1
tp1619
a((g1558
g1497
tI0
tp1620
asg12
g1558
sg13
(dp1621
g15
Nsg16
g48
sg18
I1
ssg16
g19
sg18
I257
sg20
g1497
sg15
(dp1622
g15
(dp1623
g1563
F-30
sg1564
F-60
sg174
(dp1624
g2
(lp1625
((g4
g5
tI-1
tp1626
a((g7
g5
tI-1
tp1627
a((g73
g74
tI-1
tp1628
a((g76
g77
tI-1
tp1629
a((g79
g80
tI-1
tp1630
a((g297
g298
tI-1
tp1631
a((g300
g301
tI-1
tp1632
a((g185
g303
tI-1
tp1633
a((g1575
g1576
tI-1
tp1634
asg12
g1575
sg13
(dp1635
g15
Nsg16
g48
sg18
I14
ssg16
g19
sg18
I259
sg20
g1576
sg15
(dp1636
g15
(dp1637
g308
(dp1638
g15
S'H4sIAMcbmEYC/7XOMQoCMRAF0P5fJGkMWVfBwguk2cK0gmyyEQQ3O8QJmNs7RK9g8YvhPz4Tc12p\nmbiVZNb65MdcytxwKylu+cWlRgYN0LE75OXb0x7aWbBXQYEvNMopyo3gn1y4UQIdoL26nxREixB6\n7Myrs8I0TW43oEfGgrNWiuvb2n9GHg7mAy0aBDD4AAAA\n'
p1639
sg16
g230
sg18
I261
ssg311
(dp1640
g15
S'H4sIAMcbmEYC/53OMQvCMBAF4P39kWQxpFbBQXDOksGsgjRpCoJtQ3oB8+89oqOTwxuO9/G4sJQ5\nVRXWHNVcnvQYch4q7jmGddkol0BIHWRoDsv46dMe0miQE16Arqnnk5XpQV85Uk0R6QDpxHQSYM2C\n6bExJ84C1lqz69DCY95ozcXtpfXvTPryf8l/evUGx/o6Le8AAAA=\n'
p1641
sg16
g230
sg18
I263
ssg314
(dp1642
g15
S'H4sIAMcbmEYC/y2OQQ6CMBBF93ORskDSCogaL9ANJrJtQtoBjIlAU0tSjId3LC5mkv/fy2RwWka7\nZji7PhuXp39o5/QKretxnl7eLejBCkgwejB1G7d7SCQH3zDDwN9sTpEsmYP/m51fbQ+2gKRhw5EB\n2WSQWkatYRcGdV3LnYA4dMxIzgm0KvAyfX9UGIpUBeQqiI6CSO8qaFTBVNetxnxD+iBoVSqc+PlH\n6CWTfQGCo1dj2gAAAA==\n'
p1643
sg16
g230
sg18
I262
ssg110
I0
sg317
I1
sg318
I1
sg319
I1
sg320
I1
sg108
I0
sg99
I0
sg321
I1
sg322
(dp1644
g15
S'H4sIAMcbmEYC/7XOMQoCMRAF0P5fJGkMWVfBwguk2cK0gmyyEQQ3O8QJmNs7RK9g8YvhPz4Tc12p\nmbiVZNb65MdcytxwKylu+cWlRgYN0LE75OXb0x7aWbBXQYEvNMopyo3gn1y4UQIdoL26nxREixB6\n7Myrs8I0TW43oEfGgrNWiuvb2n9GHg7mAy0aBDD4AAAA\n'
p1645
sg16
g230
sg18
I264
ssg325
I1
ssg16
g65
sg18
I260
ssssg16
g65
sg18
I258
ssssg16
g65
sg18
I251
ssa(dp1646
g2
(lp1647
((g4
g5
tI-1
tp1648
a((g1510
g1497
tI0
tp1649
asg12
g1510
sg13
(dp1650
g15
Nsg16
g48
sg18
I1
ssg16
g19
sg18
I265
sg20
g1497
sg15
(dp1651
g15
(dp1652
g1515
I01
sg1516
F-30
sg363
(dp1653
g15
Nsg16
g48
sg18
I25
ssg1518
(dp1654
g2
(lp1655
((g4
g5
tI-1
tp1656
a((g7
g5
tI-1
tp1657
a((g73
g74
tI-1
tp1658
a((g76
g77
tI-1
tp1659
a((g79
g80
tI-1
tp1660
a((g1526
g1527
tI-1
tp1661
asg12
g1526
sg13
(dp1662
g15
Nsg16
g48
sg18
I14
ssg16
g19
sg18
I267
sg20
g1527
sg15
(dp1663
g15
(dp1664
g276
(dp1665
g15
Nsg16
g48
sg18
I25
ssg1533
(dp1666
g15
S'H4sIAMcbmEYC/43OMQvCMBAF4P39kWQxpFbBQXDOksGsgjRpCoJtQ7yA+fce0VHB4Q3H+3hcWMqc\nqgprjmoud7oNOQ8V1xzDujwol0BIHWRoDsv47tMW0miQE16Azqnnk5XpQR85Uk0RaQfpxHQQYM2C\n6b4xJ44C1lqz6dDCY95ozcXlqfX3TPr0u/wv/K1XLxMFpQX1AAAA\n'
p1667
sg16
g230
sg18
I271
ssg1536
I1
sg1537
F1
sg1538
I1
sg262
(dp1668
g15
Nsg16
g48
sg18
I25
ssg278
(dp1669
g15
Nsg16
g48
sg18
I238
ssg99
I0
sg1542
I2
sg1543
I0
sg108
I0
sg1544
F0.5
sg1545
g1546
sg110
I0
sg322
(dp1670
g15
S'H4sIAMcbmEYC/23OPwvCMBCH4f33RdLFklqVDkLngHSwi0NBmj8FwbYhXqHx03tGNx3e4XIPR8y0\njD7mZg4uH5c73foQ+ohrcGaeHhQWQ/AFMpMcJvvZ+y0yJUGt0AJ09iWPrFQJ+kpL0Tv4HbJWDJUA\naxZM94m14ijQNI3aFEjxMa2k5EW3Svk/V9XdOhhu+M1ymuvt6fKmTx4P/Kxr/qHOX6ES/LrpAAAA\n'
p1671
sg16
g230
sg18
I269
ssg1549
I0
sg1550
F30
sg1471
(dp1672
g15
S'H4sIAMcbmEYC/7XOMQoCMRAF0P5fJGkMWVfBwguk2cK0gmyyEQQ3O8QJmNs7RK9g8YvhPz4Tc12p\nmbiVZNb65MdcytxwKylu+cWlRgYN0LE75OXb0x7aWbBXQYEvNMopyo3gn1y4UQIdoL26nxREixB6\n7Myrs8I0TW43oEfGgrNWiuvb2n9GHg7mAy0aBDD4AAAA\n'
p1673
sg16
g230
sg18
I270
sssg16
g65
sg18
I268
sssg1544
F0.5
sg1553
F60
sg1554
(dp1674
g2
(lp1675
((g4
g5
tI-1
tp1676
a((g1558
g1497
tI0
tp1677
asg12
g1558
sg13
(dp1678
g15
Nsg16
g48
sg18
I1
ssg16
g19
sg18
I272
sg20
g1497
sg15
(dp1679
g15
(dp1680
g1563
F-30
sg1564
F60
sg174
(dp1681
g2
(lp1682
((g4
g5
tI-1
tp1683
a((g7
g5
tI-1
tp1684
a((g73
g74
tI-1
tp1685
a((g76
g77
tI-1
tp1686
a((g79
g80
tI-1
tp1687
a((g297
g298
tI-1
tp1688
a((g300
g301
tI-1
tp1689
a((g185
g303
tI-1
tp1690
a((g1575
g1576
tI-1
tp1691
asg12
g1575
sg13
(dp1692
g15
Nsg16
g48
sg18
I14
ssg16
g19
sg18
I274
sg20
g1576
sg15
(dp1693
g15
(dp1694
g308
(dp1695
g15
S'H4sIAMcbmEYC/7XOMQoCMRAF0P5fJGkMWVfBwguk2cK0gmyyEQQ3O8QJmNs7RK9g8YvhPz4Tc12p\nmbiVZNb65MdcytxwKylu+cWlRgYN0LE75OXb0x7aWbBXQYEvNMopyo3gn1y4UQIdoL26nxREixB6\n7Myrs8I0TW43oEfGgrNWiuvb2n9GHg7mAy0aBDD4AAAA\n'
p1696
sg16
g230
sg18
I276
ssg311
(dp1697
g15
S'H4sIAMcbmEYC/53OMQvCMBAF4P39kWQxpFbBQXDOksGsgjRpCoJtQ3oB8+89oqOTwxuO9/G4sJQ5\nVRXWHNVcnvQYch4q7jmGddkol0BIHWRoDsv46dMe0miQE16Arqnnk5XpQV85Uk0R6QDpxHQSYM2C\n6bExJ84C1lqz69DCY95ozcXtpfXvTPryf8l/evUGx/o6Le8AAAA=\n'
p1698
sg16
g230
sg18
I278
ssg314
(dp1699
g15
S'H4sIAMcbmEYC/y3OTQuDMAwG4Hv+SD04aafObezgtRcH81qQtn4wmFq6CnHsxy/oDgkk70OInZbR\nrYmdfZeMyys8tfd6hcZ3dp7ewS82gBMQ2c3B1O65O0IkOYSaGQbh4VIaSckUwl+2YXUduAyimvVn\nBqRJEM03VrMbg6qq5EHAVnTMSM4paBTyPP58FfZZrNByhaKlQcSDQm0VmuJe0j7d9/okqBUKL/xa\n0jMm+QGDRrI11AAAAA==\n'
p1700
sg16
g230
sg18
I277
ssg110
I0
sg317
I1
sg318
I1
sg319
I1
sg320
I1
sg108
I0
sg99
I0
sg321
I1
sg322
(dp1701
g15
S'H4sIAMcbmEYC/7XOMQoCMRAF0P5fJGkMWVfBwguk2cK0gmyyEQQ3O8QJmNs7RK9g8YvhPz4Tc12p\nmbiVZNb65MdcytxwKylu+cWlRgYN0LE75OXb0x7aWbBXQYEvNMopyo3gn1y4UQIdoL26nxREixB6\n7Myrs8I0TW43oEfGgrNWiuvb2n9GHg7mAy0aBDD4AAAA\n'
p1702
sg16
g230
sg18
I279
ssg325
I1
ssg16
g65
sg18
I275
ssssg16
g65
sg18
I273
ssssg16
g65
sg18
I266
ssa(dp1703
g2
(lp1704
((g4
g5
tI-1
tp1705
a((g1510
g1497
tI0
tp1706
asg12
g1510
sg13
(dp1707
g15
Nsg16
g48
sg18
I1
ssg16
g19
sg18
I280
sg20
g1497
sg15
(dp1708
g15
(dp1709
g1515
I00
sg1516
F0
sg363
(dp1710
g15
Nsg16
g48
sg18
I25
ssg1518
(dp1711
g2
(lp1712
((g4
g5
tI-1
tp1713
a((g7
g5
tI-1
tp1714
a((g73
g74
tI-1
tp1715
a((g76
g77
tI-1
tp1716
a((g79
g80
tI-1
tp1717
a((g1526
g1527
tI-1
tp1718
asg12
g1526
sg13
(dp1719
g15
Nsg16
g48
sg18
I14
ssg16
g19
sg18
I282
sg20
g1527
sg15
(dp1720
g15
(dp1721
g276
(dp1722
g15
Nsg16
g48
sg18
I25
ssg1533
(dp1723
g15
S'H4sIAMcbmEYC/43OMQvCMBAF4P39kWQxpFbBQXDOksGsgjRpCoJtQ7yA+fce0VHB4Q3H+3hcWMqc\nqgprjmoud7oNOQ8V1xzDujwol0BIHWRoDsv47tMW0miQE16Azqnnk5XpQR85Uk0RaQfpxHQQYM2C\n6b4xJ44C1lqz6dDCY95ozcXlqfX3TPr0u/wv/K1XLxMFpQX1AAAA\n'
p1724
sg16
g230
sg18
I286
ssg1536
I0
sg1537
F1
sg1538
I0
sg262
(dp1725
g15
Nsg16
g48
sg18
I25
ssg278
(dp1726
g15
Nsg16
g48
sg18
I238
ssg99
I0
sg1542
I2
sg1543
I0
sg108
I0
sg1544
F1
sg1545
g1546
sg110
I0
sg322
(dp1727
g15
S'H4sIAMcbmEYC/7XOsQoCMRAE0H5+JGkMOU/BQrBOk8K0glxyORC8XIgbMH/vEv0FiymWeQwbUl1z\nU2ErUa31SY+plKnhXmLY0otKDYQ8QIbukOZvn/eQRoOc8AJ0zSOfrMwI+smZWo7IB0gnlpMAaxZM\nj505cRaw1prdgB4e80ZrLm5vrf+TRV/4W68+7xE3gfUAAAA=\n'
p1728
sg16
g230
sg18
I284
ssg1549
I0
sg1550
F30
sg1471
(dp1729
g15
S'H4sIAMcbmEYC/7XOMQoCMRAF0P5fJGkMWVfBwguk2cK0gmyyEQQ3O8QJmNs7RK9g8YvhPz4Tc12p\nmbiVZNb65MdcytxwKylu+cWlRgYN0LE75OXb0x7aWbBXQYEvNMopyo3gn1y4UQIdoL26nxREixB6\n7Myrs8I0TW43oEfGgrNWiuvb2n9GHg7mAy0aBDD4AAAA\n'
p1730
sg16
g230
sg18
I285
sssg16
g65
sg18
I283
sssg1544
F1
sg1553
F0
sg1554
(dp1731
g2
(lp1732
((g4
g5
tI-1
tp1733
a((g1558
g1497
tI0
tp1734
asg12
g1558
sg13
(dp1735
g15
Nsg16
g48
sg18
I1
ssg16
g19
sg18
I287
sg20
g1497
sg15
(dp1736
g15
(dp1737
g1563
F0
sg1564
F0
sg174
(dp1738
g2
(lp1739
((g4
g5
tI-1
tp1740
a((g7
g5
tI-1
tp1741
a((g73
g74
tI-1
tp1742
a((g76
g77
tI-1
tp1743
a((g79
g80
tI-1
tp1744
a((g297
g298
tI-1
tp1745
a((g300
g301
tI-1
tp1746
a((g185
g303
tI-1
tp1747
a((g1575
g1576
tI-1
tp1748
asg12
g1575
sg13
(dp1749
g15
Nsg16
g48
sg18
I14
ssg16
g19
sg18
I289
sg20
g1576
sg15
(dp1750
g15
(dp1751
g308
(dp1752
g15
S'H4sIAMcbmEYC/7XOMQoCMRAF0P5fJGkMWVfBwguk2cK0gmyyEQQ3O8QJmNs7RK9g8YvhPz4Tc12p\nmbiVZNb65MdcytxwKylu+cWlRgYN0LE75OXb0x7aWbBXQYEvNMopyo3gn1y4UQIdoL26nxREixB6\n7Myrs8I0TW43oEfGgrNWiuvb2n9GHg7mAy0aBDD4AAAA\n'
p1753
sg16
g230
sg18
I291
ssg311
(dp1754
g15
S'H4sIAMcbmEYC/53OMQvCMBAF4P39kWQxpFbBQXDOksGsgjRpCoJtQ3oB8+89oqOTwxuO9/G4sJQ5\nVRXWHNVcnvQYch4q7jmGddkol0BIHWRoDsv46dMe0miQE16Arqnnk5XpQV85Uk0R6QDpxHQSYM2C\n6bExJ84C1lqz69DCY95ozcXtpfXvTPryf8l/evUGx/o6Le8AAAA=\n'
p1755
sg16
g230
sg18
I293
ssg314
(dp1756
g15
S'H4sIAMcbmEYC/53OsQoCMRAE0H5+JGkMOU/hCn8gTQrTCnLJRRC8XIgbMH/vEu0FiymWeQwbUl1z\nU2ErUa31Qfe5lLnhWmLY0pNKDYQ8QIbukJZPn/eQRoOc8AJ0ziOfrMwI+sqFWo7IB0gnbpMAaxZM\nj505cRKw1prdgB4e80ZrLi4vrf/P9NPww169AaZN3yn4AAAA\n'
p1757
sg16
g230
sg18
I292
ssg110
I0
sg317
I1
sg318
I0
sg319
I1
sg320
I1
sg108
I0
sg99
I0
sg321
I0
sg322
(dp1758
g15
S'H4sIAMcbmEYC/7XOMQoCMRAF0P5fJGkMWVfBwguk2cK0gmyyEQQ3O8QJmNs7RK9g8YvhPz4Tc12p\nmbiVZNb65MdcytxwKylu+cWlRgYN0LE75OXb0x7aWbBXQYEvNMopyo3gn1y4UQIdoL26nxREixB6\n7Myrs8I0TW43oEfGgrNWiuvb2n9GHg7mAy0aBDD4AAAA\n'
p1759
sg16
g230
sg18
I294
ssg325
I1
ssg16
g65
sg18
I290
ssssg16
g65
sg18
I288
ssssg16
g65
sg18
I281
ssasg16
g452
sg18
I233
ssS'number_of_lights'
p1760
I4
ssg16
g65
sg18
I232
sssS'jpeg_progressive'
p1761
I01
sS'_def_pos'
p1762
I1
ssg16
g65
sg18
I175
sssg121
(dp1763
g15
(lp1764
(dp1765
g15
Nsg16
g48
sg18
I3
sa(dp1766
g2
(lp1767
((g4
g5
tI-1
tp1768
a((g27
g5
tI-1
tp1769
a((g29
g30
tI-1
tp1770
a((g32
g33
tI0
tp1771
a((g35
g36
tI0
tp1772
a((g38
g39
tI0
tp1773
a((g41
g42
tI0
tp1774
a((g44
g45
tI0
tp1775
asg12
g44
sg13
(dp1776
g15
Nsg16
g48
sg18
I1
ssg16
g19
sg18
I296
sg20
g45
sg15
(dp1777
g15
(dp1778
g51
S''
sg52
(dp1779
g2
(lp1780
((g55
g56
tI-1
tp1781
asg12
g55
sg13
(dp1782
g15
Nsg16
g48
sg18
I1
ssg16
g19
sg18
I372
sg20
g56
sg15
(dp1783
g15
(dp1784
g61
S'reverse-slip-fault.vtk'
p1785
sg63
S'/home/laa/benchmarks/reverse-slip-fault.vtk'
p1786
ssg16
g65
sg18
I373
sssg66
S''
sg67
I0
sg68
(dp1787
g2
(lp1788
((g4
g5
tI-1
tp1789
a((g7
g5
tI-1
tp1790
a((g73
g74
tI-1
tp1791
a((g76
g77
tI-1
tp1792
a((g79
g80
tI-1
tp1793
a((g82
g83
tI-1
tp1794
a((g85
g86
tI-1
tp1795
a((g88
g89
tI-1
tp1796
asg12
g88
sg13
(dp1797
g15
Nsg16
g48
sg18
I14
ssg16
g19
sg18
I370
sg20
g89
sg15
(dp1798
g15
(dp1799
g94
I0
sg95
S'/home/laa/benchmarks/reverse-slip-fault.vtk'
p1800
sg97
I0
sg98
I0
sg99
I0
sg100
I0
sg101
I0
sg102
I0
sg103
I0
sg104
I0
sg105
I0
sg106
I0
sg107
F1
sg108
I0
sg109
I0
sg110
I0
sg111
I0
sg112
I0
sg113
I0
sg114
I0
sg115
I0
sg116
I0
sg117
I0
sg118
I0
sg119
I0
ssg16
g65
sg18
I371
sssg120
I0
sg121
(dp1801
g15
(lp1802
(dp1803
g2
(lp1804
((g4
g5
tI-1
tp1805
a((g27
g5
tI-1
tp1806
a((g29
g30
tI-1
tp1807
a((g32
g33
tI0
tp1808
a((g130
g131
tI0
tp1809
asg12
g130
sg13
(dp1810
g15
Nsg16
g48
sg18
I1
ssg16
g19
sg18
I299
sg20
g131
sg15
(dp1811
g15
(dp1812
g51
S''
sg136
g137
sg121
(dp1813
g15
(lp1814
(dp1815
g2
(lp1816
((g4
g5
tI-1
tp1817
a((g27
g5
tI-1
tp1818
a((g29
g30
tI-1
tp1819
a((g32
g33
tI0
tp1820
a((g35
g36
tI0
tp1821
a((g147
g148
tI0
tp1822
a((g767
g768
tI0
tp1823
asg12
g767
sg13
(dp1824
g15
Nsg16
g48
sg18
I1
ssg16
g19
sg18
I302
sg20
g768
sg15
(dp1825
g15
(dp1826
g66
S''
sg773
I00
sg51
S''
sg174
(dp1827
g2
(lp1828
((g4
g5
tI-1
tp1829
a((g27
g5
tI-1
tp1830
a((g29
g30
tI-1
tp1831
a((g32
g33
tI0
tp1832
a((g35
g36
tI0
tp1833
a((g182
g183
tI0
tp1834
a((g185
g186
tI0
tp1835
asg12
g185
sg13
(dp1836
g15
Nsg16
g48
sg18
I1
ssg16
g19
sg18
I304
sg20
g186
sg15
(dp1837
g15
(dp1838
g191
(dp1839
g2
(lp1840
((g4
g5
tI-1
tp1841
a((g7
g5
tI-1
tp1842
a((g73
g74
tI-1
tp1843
a((g76
g77
tI-1
tp1844
a((g79
g80
tI-1
tp1845
a((g82
g83
tI-1
tp1846
a((g200
g201
tI-1
tp1847
a((g203
g204
tI-1
tp1848
a((g206
g207
tI-1
tp1849
a((g797
g798
tI-1
tp1850
asg12
g797
sg13
(dp1851
g15
Nsg16
g48
sg18
I14
ssg16
g19
sg18
I306
sg20
g798
sg15
(dp1852
g15
(dp1853
g216
I0
sg217
I0
sg218
g219
sg220
I0
sg235
I0
sg221
F0.01
sg223
g219
sg224
I0
sg110
I0
sg225
I0
sg226
I1
sg104
I0
sg106
I0
sg107
F1
sg227
(dp1854
g15
S'H4sIAMcbmEYC/53OsQrCMBQF0P3+SLIY0lbBQXDOksGsgjRpCoJNQ/oC5u99VL/A4Q6Pe7i8kOqS\nmwpriWqpL3qOpYwNjxLDmjYqNRByBxl2hzR9+9xDGg1ywgvQLQ98sjI96CcnajkiHyGdmM8CrFkw\nPTEb4MRFwFprDh328Jg3WnNxf2v9X2Z95W+8+gDYoI1C1QAAAA==\n'
p1855
sg16
g230
sg18
I308
ssg231
I1
sg108
I0
sg232
I0
sg233
I1
sg115
I0
sg234
I1
sg99
I0
sg237
I0
sg242
g243
sg119
I0
sg236
I0
sg239
g219
sg244
F0
ssg16
g65
sg18
I307
sssg66
S''
sg245
(dp1856
g2
(lp1857
((g4
g5
tI-1
tp1858
a((g7
g5
tI-1
tp1859
a((g73
g74
tI-1
tp1860
a((g76
g77
tI-1
tp1861
a((g79
g80
tI-1
tp1862
a((g253
g254
tI-1
tp1863
a((g256
g257
tI-1
tp1864
asg12
g256
sg13
(dp1865
g15
Nsg16
g48
sg18
I14
ssg16
g19
sg18
I315
sg20
g257
sg15
(dp1866
g15
(dp1867
g262
(dp1868
g15
Nsg16
g48
sg18
I25
ssg264
I0
sg265
F1
sg266
(dp1869
g15
Nsg16
g48
sg18
I25
ssg269
F0
sg270
I0
sg271
g272
sg273
F1
sg274
I0
sg275
F1
sg276
(dp1870
g15
Nsg16
g48
sg18
I25
ssg278
(dp1871
g15
Nsg16
g48
sg18
I25
ssg108
I0
sg280
I0
sg281
F1
sg282
I0
sg99
I0
sg283
F0
sg284
I0
sg285
I65535
sg110
I0
sg286
g287
sg288
I1
sg289
F2
ssg16
g65
sg18
I316
sssg51
S''
sg174
(dp1872
g2
(lp1873
((g4
g5
tI-1
tp1874
a((g7
g5
tI-1
tp1875
a((g73
g74
tI-1
tp1876
a((g76
g77
tI-1
tp1877
a((g79
g80
tI-1
tp1878
a((g297
g298
tI-1
tp1879
a((g300
g301
tI-1
tp1880
a((g185
g303
tI-1
tp1881
asg12
g185
sg13
(dp1882
g15
Nsg16
g48
sg18
I14
ssg16
g19
sg18
I309
sg20
g303
sg15
(dp1883
g15
(dp1884
g308
(dp1885
g15
S'H4sIAMcbmEYC/7XOMQoCMRAF0P5fJGkMWVfBwguk2cK0gmyyEQQ3O8QJmNs7RK9g8YvhPz4Tc12p\nmbiVZNb65MdcytxwKylu+cWlRgYN0LE75OXb0x7aWbBXQYEvNMopyo3gn1y4UQIdoL26nxREixB6\n7Myrs8I0TW43oEfGgrNWiuvb2n9GHg7mAy0aBDD4AAAA\n'
p1886
sg16
g230
sg18
I311
ssg311
(dp1887
g15
S'H4sIAMcbmEYC/53OMQvCMBAF4P39kWQxpFbBQXDOksGsgjRpCoJtQ3oB8+89oqOTwxuO9/G4sJQ5\nVRXWHNVcnvQYch4q7jmGddkol0BIHWRoDsv46dMe0miQE16Arqnnk5XpQV85Uk0R6QDpxHQSYM2C\n6bExJ84C1lqz69DCY95ozcXtpfXvTPryf8l/evUGx/o6Le8AAAA=\n'
p1888
sg16
g230
sg18
I313
ssg314
(dp1889
g15
S'H4sIAMcbmEYC/53OsQoCMRAE0H5+JGkMOU/hCn8gTQrTCnLJRRC8XIgbMH/vEu0FiymWeQwbUl1z\nU2ErUa31Qfe5lLnhWmLY0pNKDYQ8QIbukJZPn/eQRoOc8AJ0ziOfrMwI+sqFWo7IB0gnbpMAaxZM\nj505cRKw1prdgB4e80ZrLi4vrf/P9NPww169AaZN3yn4AAAA\n'
p1890
sg16
g230
sg18
I312
ssg110
I0
sg317
I1
sg318
I1
sg319
I1
sg320
I1
sg108
I0
sg99
I0
sg321
I1
sg322
(dp1891
g15
S'H4sIAMcbmEYC/7XOMQoCMRAF0P5fJGkMWVfBwguk2cK0gmyyEQQ3O8QJmNs7RK9g8YvhPz4Tc12p\nmbiVZNb65MdcytxwKylu+cWlRgYN0LE75OXb0x7aWbBXQYEvNMopyo3gn1y4UQIdoL26nxREixB6\n7Myrs8I0TW43oEfGgrNWiuvb2n9GHg7mAy0aBDD4AAAA\n'
p1892
sg16
g230
sg18
I314
ssg325
I1
ssg16
g65
sg18
I310
ssssg16
g65
sg18
I305
sssg842
(dp1893
g2
(lp1894
((g4
g5
tI-1
tp1895
a((g27
g5
tI-1
tp1896
a((g29
g30
tI-1
tp1897
a((g32
g33
tI0
tp1898
a((g35
g36
tI0
tp1899
a((g182
g183
tI0
tp1900
a((g851
g852
tI0
tp1901
asg12
g851
sg13
(dp1902
g15
Nsg16
g48
sg18
I1
ssg16
g19
sg18
I317
sg20
g852
sg15
(dp1903
g15
(dp1904
g51
S''
sg857
I01
sg858
(dp1905
g15
Nsg16
g48
sg18
I1
ssg860
I00
sg861
F0
sg66
S''
sg862
(dp1906
g2
(lp1907
((g4
g5
tI-1
tp1908
a((g7
g5
tI-1
tp1909
a((g73
g74
tI-1
tp1910
a((g76
g77
tI-1
tp1911
a((g79
g80
tI-1
tp1912
a((g82
g83
tI-1
tp1913
a((g165
g166
tI-1
tp1914
a((g872
g873
tI-1
tp1915
asg12
g872
sg13
(dp1916
g15
Nsg16
g48
sg18
I14
ssg16
g19
sg18
I319
sg20
g873
sg15
(dp1917
g15
(dp1918
g878
I0
sg108
I0
sg879
I0
sg880
I1
sg881
I0
sg115
I0
sg882
I1
sg883
I1
sg884
I1
sg885
I0
sg886
I0
sg104
I0
sg99
I0
sg106
I0
sg119
I0
sg107
F0
sg887
I1
sg110
I0
ssg16
g65
sg18
I320
sssg888
(dp1919
g15
(lp1920
sg16
g452
sg18
I321
ssg891
(dp1921
g2
(lp1922
((g4
g5
tI-1
tp1923
a((g7
g5
tI-1
tp1924
a((g73
g74
tI-1
tp1925
a((g76
g77
tI-1
tp1926
a((g79
g80
tI-1
tp1927
a((g82
g83
tI-1
tp1928
a((g165
g166
tI-1
tp1929
a((g901
g902
tI-1
tp1930
asg12
g901
sg13
(dp1931
g15
Nsg16
g48
sg18
I14
ssg16
g19
sg18
I322
sg20
g902
sg15
(dp1932
g15
(dp1933
g99
I0
sg907
I1
sg115
I0
sg908
I1
sg218
g909
sg910
I0
sg110
I0
sg108
I0
sg104
I0
sg911
I1
sg106
I0
sg119
I0
sg107
F0
sg887
I1
sg912
I0
ssg16
g65
sg18
I323
sssg913
I01
sg887
I10
sg914
F0
ssg16
g65
sg18
I318
ssssg16
g65
sg18
I303
ssasg16
g452
sg18
I301
ssg66
S''
sg453
(dp1934
g2
(lp1935
((g4
g5
tI-1
tp1936
a((g27
g5
tI-1
tp1937
a((g29
g30
tI-1
tp1938
a((g32
g33
tI0
tp1939
a((g460
g461
tI0
tp1940
asg12
g460
sg13
(dp1941
g15
Nsg16
g48
sg18
I1
ssg16
g19
sg18
I324
sg20
g461
sg15
(dp1942
g15
(dp1943
g466
(dp1944
g15
S'H4sIAMcbmEYC/53OsQrCMBQF0P3+SLIY0lbBQXDOksGsgjRpCoJNQ/oC5u99VL/A4Q6Pe7i8kOqS\nmwpriWqpL3qOpYwNjxLDmjYqNRByBxl2hzR9+9xDGg1ywgvQLQ98sjI96CcnajkiHyGdmM8CrFkw\nPTEb4MRFwFprDh328Jg3WnNxf2v9X2Z95W+8+gDYoI1C1QAAAA==\n'
p1945
sg16
g230
sg18
I331
ssg469
I01
sg470
(dp1946
g2
(lp1947
((g4
g5
tI-1
tp1948
a((g7
g5
tI-1
tp1949
a((g73
g74
tI-1
tp1950
a((g76
g77
tI-1
tp1951
a((g79
g80
tI-1
tp1952
a((g478
g479
tI-1
tp1953
a((g481
g482
tI-1
tp1954
asg12
g481
sg13
(dp1955
g15
Nsg16
g48
sg18
I14
ssg16
g19
sg18
I332
sg20
g482
sg15
(dp1956
g15
(dp1957
g487
I2
sg311
g488
sg489
(dp1958
g15
S'H4sIAMcbmEYC/33OMQvCMBAF4P39kWQxpK2Cg+CcJYNZBWnSFASbhngB8+89qqM4vOF4H48LqS65\nqbCWqJb6oPtYythwKzGs6UmlBkLuIMPmkKZPn3tIo0FOeAG65IFPVqYHfeVELUfkPaQT81GANQum\nB2YDnDgJWGvNrsMWHvNGay6uL61/Z9bnvyW/4tUbw9sFJ9IAAAA=\n'
p1959
sg16
g230
sg18
I334
ssg492
(dp1960
g15
S'H4sIAMcbmEYC/53OsQrCMBQF0P3+SLIY0lbBQXDOksGsgjRpCoJNQ/oC5u99VL/A4Q6Pe7i8kOqS\nmwpriWqpL3qOpYwNjxLDmjYqNRByBxl2hzR9+9xDGg1ywgvQLQ98sjI96CcnajkiHyGdmM8CrFkw\nPTEb4MRFwFprDh328Jg3WnNxf2v9X2Z95W+8+gDYoI1C1QAAAA==\n'
p1961
sg16
g230
sg18
I336
ssg495
(dp1962
g15
S'H4sIAMcbmEYC/33OMQvCMBAF4P39kXSxpK3FCopzEDpY3ALSpBEKNg3xCum/96jODm94vI/jrF+m\nsOZ2ji6flheNfYz9ikd0dvZvioslhAKZ3Rz88N1DiUxJUCeMAN1CxZWVKkE/OdAaHMIeWSeejQBr\nFkxrZhU6cRJo21btCmzhY0ZJycNVJ9voJA9nnY7mrpOrL1zlv/ATJv8A/YiyW8wAAAA=\n'
p1963
sg16
g230
sg18
I335
ssg498
I256
sg499
g500
sg99
I0
sg501
I256
sg502
(dp1964
g15
S'H4sIAMcbmEYC/33OMQvCMBAF4P39kWQxpK2Cg+CcJYNZBWnSFASbhngB8+89qqM4vOF4H48LqS65\nqbCWqJb6oPtYythwKzGs6UmlBkLuIMPmkKZPn3tIo0FOeAG65IFPVqYHfeVELUfkPaQT81GANQum\nB2YDnDgJWGvNrsMWHvNGay6uL61/Z9bnvyW/4tUbw9sFJ9IAAAA=\n'
p1965
sg16
g230
sg18
I337
ssg505
I0
sg506
(dp1966
g15
S'H4sIAMcbmEYC/33OMQvCMBAF4P39kWQxpK2Cg+CcJYNZBWnSFASbhngB8+89qqM4vOF4H48LqS65\nqbCWqJb6oPtYythwKzGs6UmlBkLuIMPmkKZPn3tIo0FOeAG65IFPVqYHfeVELUfkPaQT81GANQum\nB2YDnDgJWGvNrsMWHvNGay6uL61/Z9bnvyW/4tUbw9sFJ9IAAAA=\n'
p1967
sg16
g230
sg18
I338
ssg110
I0
sg509
F1
sg510
g511
sg108
I0
ssg16
g65
sg18
I333
sssg512
(dp1968
g2
(lp1969
((g4
g5
tI-1
tp1970
a((g7
g5
tI-1
tp1971
a((g73
g74
tI-1
tp1972
a((g76
g77
tI-1
tp1973
a((g79
g80
tI-1
tp1974
a((g348
g349
tI-1
tp1975
asg12
g348
sg13
(dp1976
g15
Nsg16
g48
sg18
I14
ssg16
g19
sg18
I326
sg20
g349
sg15
(dp1977
g15
(dp1978
g273
F1
sg354
g355
sg356
I12
sg314
F0
sg357
F0
sg358
I1
sg359
g524
sg361
I0
sg99
I0
sg362
F1.1000000000000001
sg363
(dp1979
g15
Nsg16
g48
sg18
I25
ssg365
I1
sg366
(dp1980
g15
S'H4sIAMcbmEYC/03NsQrDIBDG8f17EV0qmqRbX8DFoa6FEo2BQJOIPaG+fY+00A7/4bgfd3Gra24q\n7iWptT5oGUsZG+4lxX17UqmRkA1kPBy26bPPHaTVIC+CAF1zzyMr24G+cqKWE/IA6cUyCLBmwfTM\nrIcXFwHnnD0ZHPGxYLXmxe2lDad/zfN//DCoN80p7hW4AAAA\n'
p1981
sg16
g230
sg18
I328
ssg110
I0
sg369
I1
sg370
I0
sg372
g373
sg108
I0
sg374
I1
ssg16
g65
sg18
I327
sssg528
(dp1982
g2
(lp1983
((g4
g5
tI-1
tp1984
a((g7
g5
tI-1
tp1985
a((g73
g74
tI-1
tp1986
a((g76
g77
tI-1
tp1987
a((g79
g80
tI-1
tp1988
a((g348
g349
tI-1
tp1989
asg12
g348
sg13
(dp1990
g15
Nsg16
g48
sg18
I14
ssg16
g19
sg18
I339
sg20
g349
sg15
(dp1991
g15
(dp1992
g273
F1
sg354
g355
sg356
I12
sg314
F0
sg357
F0
sg358
I1
sg359
g524
sg361
I0
sg99
I0
sg362
F1.1000000000000001
sg363
(dp1993
g15
Nsg16
g48
sg18
I25
ssg365
I1
sg366
(dp1994
g15
S'H4sIAMcbmEYC/03NsQrDIBDG8f17EV0qmqRbX8DFoa6FEo2BQJOIPaG+fY+00A7/4bgfd3Gra24q\n7iWptT5oGUsZG+4lxX17UqmRkA1kPBy26bPPHaTVIC+CAF1zzyMr24G+cqKWE/IA6cUyCLBmwfTM\nrIcXFwHnnD0ZHPGxYLXmxe2lDad/zfN//DCoN80p7hW4AAAA\n'
p1995
sg16
g230
sg18
I341
ssg110
I0
sg369
I1
sg370
I0
sg372
g373
sg108
I0
sg374
I1
ssg16
g65
sg18
I340
sssg543
(dp1996
g2
(lp1997
((g4
g5
tI-1
tp1998
a((g7
g5
tI-1
tp1999
a((g73
g74
tI-1
tp2000
a((g76
g77
tI-1
tp2001
a((g79
g80
tI-1
tp2002
a((g383
g384
tI-1
tp2003
a((g552
g553
tI-1
tp2004
asg12
g552
sg13
(dp2005
g15
Nsg16
g48
sg18
I14
ssg16
g19
sg18
I329
sg20
g553
sg15
(dp2006
g15
(dp2007
g392
S'i'
sg393
I0
sg99
I0
sg395
F0.55000001192092896
sg108
I0
sg396
I0
sg397
I0
sg110
I0
sg398
I0
ssg16
g65
sg18
I330
sssg95
S''
sg558
S'No scalars'
p2008
sg560
(dp2009
g15
Nsg16
g48
sg18
I331
ssg51
S''
sg501
I256
sg562
g2008
sg66
S''
sg564
I01
sg565
I8
sg566
I00
sg567
(dp2010
g2
(lp2011
((g4
g5
tI-1
tp2012
a((g7
g5
tI-1
tp2013
a((g73
g74
tI-1
tp2014
a((g76
g77
tI-1
tp2015
a((g79
g80
tI-1
tp2016
a((g297
g298
tI-1
tp2017
a((g576
g577
tI-1
tp2018
a((g579
g580
tI-1
tp2019
asg12
g579
sg13
(dp2020
g15
Nsg16
g48
sg18
I14
ssg16
g19
sg18
I342
sg20
g580
sg15
(dp2021
g15
(dp2022
g99
I0
sg325
I1
sg314
g585
sg586
F0.80000000000000004
sg587
S'%-#6.3g'
p2023
sg565
I8
sg317
I1
sg318
I1
sg319
I1
sg320
I1
sg108
I0
sg589
I256
sg590
I0
sg591
(dp2024
g15
S'H4sIAMcbmEYC/2XOMQuDMBAF4P39kWSpaGxAoeCcxaGugaIxQqFqSC8Q/30P263DGx7v4zi3pTUc\nhdujL9b0oucY43jgEb3btzfF5AihgnSnwzZ/96AgTQkaxCRA91BzZWUU6CdnOoJHuEIOYmkEWLNg\nqpnVGMRNoO97c6lwho9Npix5sLkdOe1/fNvZ7GqbFy2ttblZuCqO7viLqfgAbt3QTs0AAAA=\n'
p2025
sg16
g230
sg18
I345
ssg321
I1
sg322
(dp2026
g15
S'H4sIAMcbmEYC/2XOMQuDMBAF4P39kbhUjFpQKDiWLA51DZQkplCoGtITYvvne9huHd5wvI/HuXmd\nwpa7Jfp8Wh90NzGaDdfo3TI/Ka6OECQytzvM47cPJTJVgAZhBegSKj5ZqRL0kyNtwSPUyAZxawRY\ns2B6ZFZhECeBvu/VQWIPj1lVFFzo1BpO+x/bdm+dZK2T8WedvHzp1NQdf2DzD7ndMtDJAAAA\n'
p2027
sg16
g230
sg18
I344
ssg596
F0.17000000000000001
sg110
I0
sg597
I0
ssg16
g65
sg18
I343
sssg598
(dp2028
g15
S'H4sIAMcbmEYC/53OsQrCMBQF0P3+SLIY0lbBQXDOksGsgjRpCoJNQ/oC5u99VL/A4Q6Pe7i8kOqS\nmwpriWqpL3qOpYwNjxLDmjYqNRByBxl2hzR9+9xDGg1ywgvQLQ98sjI96CcnajkiHyGdmM8CrFkw\nPTEb4MRFwFprDh328Jg3WnNxf2v9X2Z95W+8+gDYoI1C1QAAAA==\n'
p2029
sg16
g230
sg18
I346
ssg370
I00
sg601
g602
sg603
I00
ssg16
g65
sg18
I325
sssg604
(dp2030
g2
(lp2031
((g4
g5
tI-1
tp2032
a((g27
g5
tI-1
tp2033
a((g29
g30
tI-1
tp2034
a((g32
g33
tI0
tp2035
a((g460
g461
tI0
tp2036
asg12
g460
sg13
(dp2037
g15
Nsg16
g48
sg18
I1
ssg16
g19
sg18
I347
sg20
g461
sg15
(dp2038
g15
(dp2039
g466
(dp2040
g15
S'H4sIAMcbmEYC/53OsQrCMBQF0P3+SLIY0lbBQXDOksGsgjRpCoJNQ/oC5u99VL/A4Q6Pe7i8kOqS\nmwpriWqpL3qOpYwNjxLDmjYqNRByBxl2hzR9+9xDGg1ywgvQLQ98sjI96CcnajkiHyGdmM8CrFkw\nPTEb4MRFwFprDh328Jg3WnNxf2v9X2Z95W+8+gDYoI1C1QAAAA==\n'
p2041
sg16
g230
sg18
I354
ssg469
I01
sg470
(dp2042
g2
(lp2043
((g4
g5
tI-1
tp2044
a((g7
g5
tI-1
tp2045
a((g73
g74
tI-1
tp2046
a((g76
g77
tI-1
tp2047
a((g79
g80
tI-1
tp2048
a((g478
g479
tI-1
tp2049
a((g481
g482
tI-1
tp2050
asg12
g481
sg13
(dp2051
g15
Nsg16
g48
sg18
I14
ssg16
g19
sg18
I355
sg20
g482
sg15
(dp2052
g15
(dp2053
g487
I2
sg311
g488
sg489
(dp2054
g15
S'H4sIAMcbmEYC/33OMQvCMBAF4P39kWQxpK2Cg+CcJYNZBWnSFASbhngB8+89qqM4vOF4H48LqS65\nqbCWqJb6oPtYythwKzGs6UmlBkLuIMPmkKZPn3tIo0FOeAG65IFPVqYHfeVELUfkPaQT81GANQum\nB2YDnDgJWGvNrsMWHvNGay6uL61/Z9bnvyW/4tUbw9sFJ9IAAAA=\n'
p2055
sg16
g230
sg18
I357
ssg492
(dp2056
g15
S'H4sIAMcbmEYC/53OsQrCMBQF0P3+SLIY0lbBQXDOksGsgjRpCoJNQ/oC5u99VL/A4Q6Pe7i8kOqS\nmwpriWqpL3qOpYwNjxLDmjYqNRByBxl2hzR9+9xDGg1ywgvQLQ98sjI96CcnajkiHyGdmM8CrFkw\nPTEb4MRFwFprDh328Jg3WnNxf2v9X2Z95W+8+gDYoI1C1QAAAA==\n'
p2057
sg16
g230
sg18
I359
ssg495
(dp2058
g15
S'H4sIAMcbmEYC/33OMQvCMBAF4P39kXSxpK3FCopzEDpY3ALSpBEKNg3xCum/96jODm94vI/jrF+m\nsOZ2ji6flheNfYz9ikd0dvZvioslhAKZ3Rz88N1DiUxJUCeMAN1CxZWVKkE/OdAaHMIeWSeejQBr\nFkxrZhU6cRJo21btCmzhY0ZJycNVJ9voJA9nnY7mrpOrL1zlv/ATJv8A/YiyW8wAAAA=\n'
p2059
sg16
g230
sg18
I358
ssg498
I256
sg499
g500
sg99
I0
sg501
I256
sg502
(dp2060
g15
S'H4sIAMcbmEYC/33OMQvCMBAF4P39kWQxpK2Cg+CcJYNZBWnSFASbhngB8+89qqM4vOF4H48LqS65\nqbCWqJb6oPtYythwKzGs6UmlBkLuIMPmkKZPn3tIo0FOeAG65IFPVqYHfeVELUfkPaQT81GANQum\nB2YDnDgJWGvNrsMWHvNGay6uL61/Z9bnvyW/4tUbw9sFJ9IAAAA=\n'
p2061
sg16
g230
sg18
I360
ssg505
I0
sg506
(dp2062
g15
S'H4sIAMcbmEYC/33OMQvCMBAF4P39kWQxpK2Cg+CcJYNZBWnSFASbhngB8+89qqM4vOF4H48LqS65\nqbCWqJb6oPtYythwKzGs6UmlBkLuIMPmkKZPn3tIo0FOeAG65IFPVqYHfeVELUfkPaQT81GANQum\nB2YDnDgJWGvNrsMWHvNGay6uL61/Z9bnvyW/4tUbw9sFJ9IAAAA=\n'
p2063
sg16
g230
sg18
I361
ssg110
I0
sg509
F1
sg510
g511
sg108
I0
ssg16
g65
sg18
I356
sssg512
(dp2064
g2
(lp2065
((g4
g5
tI-1
tp2066
a((g7
g5
tI-1
tp2067
a((g73
g74
tI-1
tp2068
a((g76
g77
tI-1
tp2069
a((g79
g80
tI-1
tp2070
a((g348
g349
tI-1
tp2071
asg12
g348
sg13
(dp2072
g15
Nsg16
g48
sg18
I14
ssg16
g19
sg18
I349
sg20
g349
sg15
(dp2073
g15
(dp2074
g273
F1
sg354
g355
sg356
I12
sg314
F0
sg357
F0
sg358
I1
sg359
g524
sg361
I0
sg99
I0
sg362
F1.1000000000000001
sg363
(dp2075
g15
Nsg16
g48
sg18
I25
ssg365
I1
sg366
(dp2076
g15
S'H4sIAMcbmEYC/03NsQrDIBDG8f17EV0qmqRbX8DFoa6FEo2BQJOIPaG+fY+00A7/4bgfd3Gra24q\n7iWptT5oGUsZG+4lxX17UqmRkA1kPBy26bPPHaTVIC+CAF1zzyMr24G+cqKWE/IA6cUyCLBmwfTM\nrIcXFwHnnD0ZHPGxYLXmxe2lDad/zfN//DCoN80p7hW4AAAA\n'
p2077
sg16
g230
sg18
I351
ssg110
I0
sg369
I1
sg370
I0
sg372
g373
sg108
I0
sg374
I1
ssg16
g65
sg18
I350
sssg528
(dp2078
g2
(lp2079
((g4
g5
tI-1
tp2080
a((g7
g5
tI-1
tp2081
a((g73
g74
tI-1
tp2082
a((g76
g77
tI-1
tp2083
a((g79
g80
tI-1
tp2084
a((g348
g349
tI-1
tp2085
asg12
g348
sg13
(dp2086
g15
Nsg16
g48
sg18
I14
ssg16
g19
sg18
I362
sg20
g349
sg15
(dp2087
g15
(dp2088
g273
F1
sg354
g355
sg356
I12
sg314
F0
sg357
F0
sg358
I1
sg359
g524
sg361
I0
sg99
I0
sg362
F1.1000000000000001
sg363
(dp2089
g15
Nsg16
g48
sg18
I25
ssg365
I1
sg366
(dp2090
g15
S'H4sIAMcbmEYC/03NsQrDIBDG8f17EV0qmqRbX8DFoa6FEo2BQJOIPaG+fY+00A7/4bgfd3Gra24q\n7iWptT5oGUsZG+4lxX17UqmRkA1kPBy26bPPHaTVIC+CAF1zzyMr24G+cqKWE/IA6cUyCLBmwfTM\nrIcXFwHnnD0ZHPGxYLXmxe2lDad/zfN//DCoN80p7hW4AAAA\n'
p2091
sg16
g230
sg18
I364
ssg110
I0
sg369
I1
sg370
I0
sg372
g373
sg108
I0
sg374
I1
ssg16
g65
sg18
I363
sssg543
(dp2092
g2
(lp2093
((g4
g5
tI-1
tp2094
a((g7
g5
tI-1
tp2095
a((g73
g74
tI-1
tp2096
a((g76
g77
tI-1
tp2097
a((g79
g80
tI-1
tp2098
a((g383
g384
tI-1
tp2099
a((g552
g553
tI-1
tp2100
asg12
g552
sg13
(dp2101
g15
Nsg16
g48
sg18
I14
ssg16
g19
sg18
I352
sg20
g553
sg15
(dp2102
g15
(dp2103
g392
S'i'
sg393
I0
sg99
I0
sg395
F0.55000001192092896
sg108
I0
sg396
I0
sg397
I0
sg110
I0
sg398
I0
ssg16
g65
sg18
I353
sssg95
S''
sg558
g679
sg560
(dp2104
g15
Nsg16
g48
sg18
I354
ssg51
S''
sg501
I256
sg562
g679
sg66
S''
sg564
I01
sg565
I8
sg566
I00
sg567
(dp2105
g2
(lp2106
((g4
g5
tI-1
tp2107
a((g7
g5
tI-1
tp2108
a((g73
g74
tI-1
tp2109
a((g76
g77
tI-1
tp2110
a((g79
g80
tI-1
tp2111
a((g297
g298
tI-1
tp2112
a((g576
g577
tI-1
tp2113
a((g579
g580
tI-1
tp2114
asg12
g579
sg13
(dp2115
g15
Nsg16
g48
sg18
I14
ssg16
g19
sg18
I365
sg20
g580
sg15
(dp2116
g15
(dp2117
g99
I0
sg325
I1
sg314
g585
sg586
F0.80000000000000004
sg587
S'%-#6.3g'
p2118
sg565
I8
sg317
I1
sg318
I1
sg319
I1
sg320
I1
sg108
I0
sg589
I256
sg590
I0
sg591
(dp2119
g15
S'H4sIAMcbmEYC/2XOMQuDMBAF4P39kWSpaGxAoeCcxaGugaIxQqFqSC8Q/30P263DGx7v4zi3pTUc\nhdujL9b0oucY43jgEb3btzfF5AihgnSnwzZ/96AgTQkaxCRA91BzZWUU6CdnOoJHuEIOYmkEWLNg\nqpnVGMRNoO97c6lwho9Npix5sLkdOe1/fNvZ7GqbFy2ttblZuCqO7viLqfgAbt3QTs0AAAA=\n'
p2120
sg16
g230
sg18
I368
ssg321
I1
sg322
(dp2121
g15
S'H4sIAMcbmEYC/2XOMQuDMBAF4P39kbhUjFpQKDiWLA51DZQkplCoGtITYvvne9huHd5wvI/HuXmd\nwpa7Jfp8Wh90NzGaDdfo3TI/Ka6OECQytzvM47cPJTJVgAZhBegSKj5ZqRL0kyNtwSPUyAZxawRY\ns2B6ZFZhECeBvu/VQWIPj1lVFFzo1BpO+x/bdm+dZK2T8WedvHzp1NQdf2DzD7ndMtDJAAAA\n'
p2122
sg16
g230
sg18
I367
ssg596
F0.17000000000000001
sg110
I0
sg597
I0
ssg16
g65
sg18
I366
sssg598
(dp2123
g15
S'H4sIAMcbmEYC/53OsQrCMBQF0P3+SLIY0lbBQXDOksGsgjRpCoJNQ/oC5u99VL/A4Q6Pe7i8kOqS\nmwpriWqpL3qOpYwNjxLDmjYqNRByBxl2hzR9+9xDGg1ywgvQLQ98sjI96CcnajkiHyGdmM8CrFkw\nPTEb4MRFwFprDh328Jg3WnNxf2v9X2Z95W+8+gDYoI1C1QAAAA==\n'
p2124
sg16
g230
sg18
I369
ssg370
I00
sg601
g602
sg603
I00
ssg16
g65
sg18
I348
ssssg16
g65
sg18
I300
ssasg16
g452
sg18
I298
ssg1109
I0
ssg16
g65
sg18
I297
ssa(dp2125
g2
(lp2126
((g4
g5
tI-1
tp2127
a((g27
g5
tI-1
tp2128
a((g29
g30
tI-1
tp2129
a((g32
g33
tI0
tp2130
a((g35
g36
tI0
tp2131
a((g38
g39
tI0
tp2132
a((g41
g42
tI0
tp2133
a((g44
g45
tI0
tp2134
asg12
g44
sg13
(dp2135
g15
Nsg16
g48
sg18
I1
ssg16
g19
sg18
I374
sg20
g45
sg15
(dp2136
g15
(dp2137
g51
S''
sg52
(dp2138
g2
(lp2139
((g55
g56
tI-1
tp2140
asg12
g55
sg13
(dp2141
g15
Nsg16
g48
sg18
I1
ssg16
g19
sg18
I450
sg20
g56
sg15
(dp2142
g15
(dp2143
g61
S'bottom-layer.vtk'
p2144
sg63
S'/home/laa/benchmarks/bottom-layer.vtk'
p2145
ssg16
g65
sg18
I451
sssg66
S''
sg67
I0
sg68
(dp2146
g2
(lp2147
((g4
g5
tI-1
tp2148
a((g7
g5
tI-1
tp2149
a((g73
g74
tI-1
tp2150
a((g76
g77
tI-1
tp2151
a((g79
g80
tI-1
tp2152
a((g82
g83
tI-1
tp2153
a((g85
g86
tI-1
tp2154
a((g88
g89
tI-1
tp2155
asg12
g88
sg13
(dp2156
g15
Nsg16
g48
sg18
I14
ssg16
g19
sg18
I448
sg20
g89
sg15
(dp2157
g15
(dp2158
g94
I0
sg95
S'/home/laa/benchmarks/bottom-layer.vtk'
p2159
sg97
I0
sg98
I0
sg99
I0
sg100
I0
sg101
I0
sg102
I0
sg103
I0
sg104
I0
sg105
I0
sg106
I0
sg107
F1
sg108
I0
sg109
I0
sg110
I0
sg111
I0
sg112
I0
sg113
I0
sg114
I0
sg115
I0
sg116
I0
sg117
I0
sg118
I0
sg119
I0
ssg16
g65
sg18
I449
sssg120
I0
sg121
(dp2160
g15
(lp2161
(dp2162
g2
(lp2163
((g4
g5
tI-1
tp2164
a((g27
g5
tI-1
tp2165
a((g29
g30
tI-1
tp2166
a((g32
g33
tI0
tp2167
a((g130
g131
tI0
tp2168
asg12
g130
sg13
(dp2169
g15
Nsg16
g48
sg18
I1
ssg16
g19
sg18
I377
sg20
g131
sg15
(dp2170
g15
(dp2171
g51
S''
sg136
g137
sg121
(dp2172
g15
(lp2173
(dp2174
g2
(lp2175
((g4
g5
tI-1
tp2176
a((g27
g5
tI-1
tp2177
a((g29
g30
tI-1
tp2178
a((g32
g33
tI0
tp2179
a((g35
g36
tI0
tp2180
a((g147
g148
tI0
tp2181
a((g767
g768
tI0
tp2182
asg12
g767
sg13
(dp2183
g15
Nsg16
g48
sg18
I1
ssg16
g19
sg18
I380
sg20
g768
sg15
(dp2184
g15
(dp2185
g66
S''
sg773
I00
sg51
S''
sg174
(dp2186
g2
(lp2187
((g4
g5
tI-1
tp2188
a((g27
g5
tI-1
tp2189
a((g29
g30
tI-1
tp2190
a((g32
g33
tI0
tp2191
a((g35
g36
tI0
tp2192
a((g182
g183
tI0
tp2193
a((g185
g186
tI0
tp2194
asg12
g185
sg13
(dp2195
g15
Nsg16
g48
sg18
I1
ssg16
g19
sg18
I382
sg20
g186
sg15
(dp2196
g15
(dp2197
g191
(dp2198
g2
(lp2199
((g4
g5
tI-1
tp2200
a((g7
g5
tI-1
tp2201
a((g73
g74
tI-1
tp2202
a((g76
g77
tI-1
tp2203
a((g79
g80
tI-1
tp2204
a((g82
g83
tI-1
tp2205
a((g200
g201
tI-1
tp2206
a((g203
g204
tI-1
tp2207
a((g206
g207
tI-1
tp2208
a((g797
g798
tI-1
tp2209
asg12
g797
sg13
(dp2210
g15
Nsg16
g48
sg18
I14
ssg16
g19
sg18
I384
sg20
g798
sg15
(dp2211
g15
(dp2212
g216
I0
sg217
I0
sg218
g219
sg220
I0
sg235
I0
sg221
F0.01
sg223
g219
sg224
I0
sg110
I0
sg225
I0
sg226
I1
sg104
I0
sg106
I0
sg107
F1
sg227
(dp2213
g15
S'H4sIAMcbmEYC/53OsQrCMBQF0P3+SLIY0lbBQXDOksGsgjRpCoJNQ/oC5u99VL/A4Q6Pe7i8kOqS\nmwpriWqpL3qOpYwNjxLDmjYqNRByBxl2hzR9+9xDGg1ywgvQLQ98sjI96CcnajkiHyGdmM8CrFkw\nPTEb4MRFwFprDh328Jg3WnNxf2v9X2Z95W+8+gDYoI1C1QAAAA==\n'
p2214
sg16
g230
sg18
I386
ssg231
I1
sg108
I0
sg232
I0
sg233
I1
sg115
I0
sg234
I1
sg99
I0
sg237
I0
sg242
g243
sg119
I0
sg236
I0
sg239
g219
sg244
F0
ssg16
g65
sg18
I385
sssg66
S''
sg245
(dp2215
g2
(lp2216
((g4
g5
tI-1
tp2217
a((g7
g5
tI-1
tp2218
a((g73
g74
tI-1
tp2219
a((g76
g77
tI-1
tp2220
a((g79
g80
tI-1
tp2221
a((g253
g254
tI-1
tp2222
a((g256
g257
tI-1
tp2223
asg12
g256
sg13
(dp2224
g15
Nsg16
g48
sg18
I14
ssg16
g19
sg18
I393
sg20
g257
sg15
(dp2225
g15
(dp2226
g262
(dp2227
g15
Nsg16
g48
sg18
I25
ssg264
I0
sg265
F1
sg266
(dp2228
g15
Nsg16
g48
sg18
I25
ssg269
F0
sg270
I0
sg271
g272
sg273
F0.15609999999999999
sg274
I0
sg275
F1
sg276
(dp2229
g15
Nsg16
g48
sg18
I25
ssg278
(dp2230
g15
Nsg16
g48
sg18
I25
ssg108
I0
sg280
I0
sg281
F1
sg282
I0
sg99
I0
sg283
F0
sg284
I0
sg285
I65535
sg110
I0
sg286
g287
sg288
I1
sg289
F2
ssg16
g65
sg18
I394
sssg51
S''
sg174
(dp2231
g2
(lp2232
((g4
g5
tI-1
tp2233
a((g7
g5
tI-1
tp2234
a((g73
g74
tI-1
tp2235
a((g76
g77
tI-1
tp2236
a((g79
g80
tI-1
tp2237
a((g297
g298
tI-1
tp2238
a((g300
g301
tI-1
tp2239
a((g185
g303
tI-1
tp2240
asg12
g185
sg13
(dp2241
g15
Nsg16
g48
sg18
I14
ssg16
g19
sg18
I387
sg20
g303
sg15
(dp2242
g15
(dp2243
g308
(dp2244
g15
S'H4sIAMcbmEYC/7XOMQoCMRAF0P5fJGkMWVfBwguk2cK0gmyyEQQ3O8QJmNs7RK9g8YvhPz4Tc12p\nmbiVZNb65MdcytxwKylu+cWlRgYN0LE75OXb0x7aWbBXQYEvNMopyo3gn1y4UQIdoL26nxREixB6\n7Myrs8I0TW43oEfGgrNWiuvb2n9GHg7mAy0aBDD4AAAA\n'
p2245
sg16
g230
sg18
I389
ssg311
(dp2246
g15
S'H4sIAMcbmEYC/53OMQvCMBAF4P39kWQxpFbBQXDOksGsgjRpCoJtQ3oB8+89oqOTwxuO9/G4sJQ5\nVRXWHNVcnvQYch4q7jmGddkol0BIHWRoDsv46dMe0miQE16Arqnnk5XpQV85Uk0R6QDpxHQSYM2C\n6bExJ84C1lqz69DCY95ozcXtpfXvTPryf8l/evUGx/o6Le8AAAA=\n'
p2247
sg16
g230
sg18
I391
ssg314
(dp2248
g15
S'H4sIAMcbmEYC/53OsQoCMRAE0H5+JGkMOU/hCn8gTQrTCnLJRRC8XIgbMH/vEu0FiymWeQwbUl1z\nU2ErUa31Qfe5lLnhWmLY0pNKDYQ8QIbukJZPn/eQRoOc8AJ0ziOfrMwI+sqFWo7IB0gnbpMAaxZM\nj505cRKw1prdgB4e80ZrLi4vrf/P9NPww169AaZN3yn4AAAA\n'
p2249
sg16
g230
sg18
I390
ssg110
I0
sg317
I1
sg318
I1
sg319
I1
sg320
I1
sg108
I0
sg99
I0
sg321
I1
sg322
(dp2250
g15
S'H4sIAMcbmEYC/7XOMQoCMRAF0P5fJGkMWVfBwguk2cK0gmyyEQQ3O8QJmNs7RK9g8YvhPz4Tc12p\nmbiVZNb65MdcytxwKylu+cWlRgYN0LE75OXb0x7aWbBXQYEvNMopyo3gn1y4UQIdoL26nxREixB6\n7Myrs8I0TW43oEfGgrNWiuvb2n9GHg7mAy0aBDD4AAAA\n'
p2251
sg16
g230
sg18
I392
ssg325
I1
ssg16
g65
sg18
I388
ssssg16
g65
sg18
I383
sssg842
(dp2252
g2
(lp2253
((g4
g5
tI-1
tp2254
a((g27
g5
tI-1
tp2255
a((g29
g30
tI-1
tp2256
a((g32
g33
tI0
tp2257
a((g35
g36
tI0
tp2258
a((g182
g183
tI0
tp2259
a((g851
g852
tI0
tp2260
asg12
g851
sg13
(dp2261
g15
Nsg16
g48
sg18
I1
ssg16
g19
sg18
I395
sg20
g852
sg15
(dp2262
g15
(dp2263
g51
S''
sg857
I01
sg858
(dp2264
g15
Nsg16
g48
sg18
I1
ssg860
I00
sg861
F0
sg66
S''
sg862
(dp2265
g2
(lp2266
((g4
g5
tI-1
tp2267
a((g7
g5
tI-1
tp2268
a((g73
g74
tI-1
tp2269
a((g76
g77
tI-1
tp2270
a((g79
g80
tI-1
tp2271
a((g82
g83
tI-1
tp2272
a((g165
g166
tI-1
tp2273
a((g872
g873
tI-1
tp2274
asg12
g872
sg13
(dp2275
g15
Nsg16
g48
sg18
I14
ssg16
g19
sg18
I397
sg20
g873
sg15
(dp2276
g15
(dp2277
g878
I0
sg108
I0
sg879
I0
sg880
I1
sg881
I0
sg115
I0
sg882
I1
sg883
I1
sg884
I1
sg885
I0
sg886
I0
sg104
I0
sg99
I0
sg106
I0
sg119
I0
sg107
F0
sg887
I1
sg110
I0
ssg16
g65
sg18
I398
sssg888
(dp2278
g15
(lp2279
sg16
g452
sg18
I399
ssg891
(dp2280
g2
(lp2281
((g4
g5
tI-1
tp2282
a((g7
g5
tI-1
tp2283
a((g73
g74
tI-1
tp2284
a((g76
g77
tI-1
tp2285
a((g79
g80
tI-1
tp2286
a((g82
g83
tI-1
tp2287
a((g165
g166
tI-1
tp2288
a((g901
g902
tI-1
tp2289
asg12
g901
sg13
(dp2290
g15
Nsg16
g48
sg18
I14
ssg16
g19
sg18
I400
sg20
g902
sg15
(dp2291
g15
(dp2292
g99
I0
sg907
I1
sg115
I0
sg908
I1
sg218
g909
sg910
I0
sg110
I0
sg108
I0
sg104
I0
sg911
I1
sg106
I0
sg119
I0
sg107
F0
sg887
I1
sg912
I0
ssg16
g65
sg18
I401
sssg913
I01
sg887
I10
sg914
F0
ssg16
g65
sg18
I396
ssssg16
g65
sg18
I381
ssasg16
g452
sg18
I379
ssg66
S''
sg453
(dp2293
g2
(lp2294
((g4
g5
tI-1
tp2295
a((g27
g5
tI-1
tp2296
a((g29
g30
tI-1
tp2297
a((g32
g33
tI0
tp2298
a((g460
g461
tI0
tp2299
asg12
g460
sg13
(dp2300
g15
Nsg16
g48
sg18
I1
ssg16
g19
sg18
I402
sg20
g461
sg15
(dp2301
g15
(dp2302
g466
(dp2303
g15
S'H4sIAMcbmEYC/53OsQrCMBQF0P3+SLIY0lbBQXDOksGsgjRpCoJNQ/oC5u99VL/A4Q6Pe7i8kOqS\nmwpriWqpL3qOpYwNjxLDmjYqNRByBxl2hzR9+9xDGg1ywgvQLQ98sjI96CcnajkiHyGdmM8CrFkw\nPTEb4MRFwFprDh328Jg3WnNxf2v9X2Z95W+8+gDYoI1C1QAAAA==\n'
p2304
sg16
g230
sg18
I409
ssg469
I01
sg470
(dp2305
g2
(lp2306
((g4
g5
tI-1
tp2307
a((g7
g5
tI-1
tp2308
a((g73
g74
tI-1
tp2309
a((g76
g77
tI-1
tp2310
a((g79
g80
tI-1
tp2311
a((g478
g479
tI-1
tp2312
a((g481
g482
tI-1
tp2313
asg12
g481
sg13
(dp2314
g15
Nsg16
g48
sg18
I14
ssg16
g19
sg18
I410
sg20
g482
sg15
(dp2315
g15
(dp2316
g487
I2
sg311
g488
sg489
(dp2317
g15
S'H4sIAMcbmEYC/33OMQvCMBAF4P39kWQxpK2Cg+CcJYNZBWnSFASbhngB8+89qqM4vOF4H48LqS65\nqbCWqJb6oPtYythwKzGs6UmlBkLuIMPmkKZPn3tIo0FOeAG65IFPVqYHfeVELUfkPaQT81GANQum\nB2YDnDgJWGvNrsMWHvNGay6uL61/Z9bnvyW/4tUbw9sFJ9IAAAA=\n'
p2318
sg16
g230
sg18
I412
ssg492
(dp2319
g15
S'H4sIAMcbmEYC/53OsQrCMBQF0P3+SLIY0lbBQXDOksGsgjRpCoJNQ/oC5u99VL/A4Q6Pe7i8kOqS\nmwpriWqpL3qOpYwNjxLDmjYqNRByBxl2hzR9+9xDGg1ywgvQLQ98sjI96CcnajkiHyGdmM8CrFkw\nPTEb4MRFwFprDh328Jg3WnNxf2v9X2Z95W+8+gDYoI1C1QAAAA==\n'
p2320
sg16
g230
sg18
I414
ssg495
(dp2321
g15
S'H4sIAMcbmEYC/33OMQvCMBAF4P39kXSxpK3FCopzEDpY3ALSpBEKNg3xCum/96jODm94vI/jrF+m\nsOZ2ji6flheNfYz9ikd0dvZvioslhAKZ3Rz88N1DiUxJUCeMAN1CxZWVKkE/OdAaHMIeWSeejQBr\nFkxrZhU6cRJo21btCmzhY0ZJycNVJ9voJA9nnY7mrpOrL1zlv/ATJv8A/YiyW8wAAAA=\n'
p2322
sg16
g230
sg18
I413
ssg498
I256
sg499
g500
sg99
I0
sg501
I256
sg502
(dp2323
g15
S'H4sIAMcbmEYC/33OMQvCMBAF4P39kWQxpK2Cg+CcJYNZBWnSFASbhngB8+89qqM4vOF4H48LqS65\nqbCWqJb6oPtYythwKzGs6UmlBkLuIMPmkKZPn3tIo0FOeAG65IFPVqYHfeVELUfkPaQT81GANQum\nB2YDnDgJWGvNrsMWHvNGay6uL61/Z9bnvyW/4tUbw9sFJ9IAAAA=\n'
p2324
sg16
g230
sg18
I415
ssg505
I0
sg506
(dp2325
g15
S'H4sIAMcbmEYC/33OMQvCMBAF4P39kWQxpK2Cg+CcJYNZBWnSFASbhngB8+89qqM4vOF4H48LqS65\nqbCWqJb6oPtYythwKzGs6UmlBkLuIMPmkKZPn3tIo0FOeAG65IFPVqYHfeVELUfkPaQT81GANQum\nB2YDnDgJWGvNrsMWHvNGay6uL61/Z9bnvyW/4tUbw9sFJ9IAAAA=\n'
p2326
sg16
g230
sg18
I416
ssg110
I0
sg509
F1
sg510
g511
sg108
I0
ssg16
g65
sg18
I411
sssg512
(dp2327
g2
(lp2328
((g4
g5
tI-1
tp2329
a((g7
g5
tI-1
tp2330
a((g73
g74
tI-1
tp2331
a((g76
g77
tI-1
tp2332
a((g79
g80
tI-1
tp2333
a((g348
g349
tI-1
tp2334
asg12
g348
sg13
(dp2335
g15
Nsg16
g48
sg18
I14
ssg16
g19
sg18
I404
sg20
g349
sg15
(dp2336
g15
(dp2337
g273
F1
sg354
g355
sg356
I12
sg314
F0
sg357
F0
sg358
I1
sg359
g524
sg361
I0
sg99
I0
sg362
F1.1000000000000001
sg363
(dp2338
g15
Nsg16
g48
sg18
I25
ssg365
I1
sg366
(dp2339
g15
S'H4sIAMcbmEYC/03NsQrDIBDG8f17EV0qmqRbX8DFoa6FEo2BQJOIPaG+fY+00A7/4bgfd3Gra24q\n7iWptT5oGUsZG+4lxX17UqmRkA1kPBy26bPPHaTVIC+CAF1zzyMr24G+cqKWE/IA6cUyCLBmwfTM\nrIcXFwHnnD0ZHPGxYLXmxe2lDad/zfN//DCoN80p7hW4AAAA\n'
p2340
sg16
g230
sg18
I406
ssg110
I0
sg369
I1
sg370
I0
sg372
g373
sg108
I0
sg374
I1
ssg16
g65
sg18
I405
sssg528
(dp2341
g2
(lp2342
((g4
g5
tI-1
tp2343
a((g7
g5
tI-1
tp2344
a((g73
g74
tI-1
tp2345
a((g76
g77
tI-1
tp2346
a((g79
g80
tI-1
tp2347
a((g348
g349
tI-1
tp2348
asg12
g348
sg13
(dp2349
g15
Nsg16
g48
sg18
I14
ssg16
g19
sg18
I417
sg20
g349
sg15
(dp2350
g15
(dp2351
g273
F1
sg354
g355
sg356
I12
sg314
F0
sg357
F0
sg358
I1
sg359
g524
sg361
I0
sg99
I0
sg362
F1.1000000000000001
sg363
(dp2352
g15
Nsg16
g48
sg18
I25
ssg365
I1
sg366
(dp2353
g15
S'H4sIAMcbmEYC/03NsQrDIBDG8f17EV0qmqRbX8DFoa6FEo2BQJOIPaG+fY+00A7/4bgfd3Gra24q\n7iWptT5oGUsZG+4lxX17UqmRkA1kPBy26bPPHaTVIC+CAF1zzyMr24G+cqKWE/IA6cUyCLBmwfTM\nrIcXFwHnnD0ZHPGxYLXmxe2lDad/zfN//DCoN80p7hW4AAAA\n'
p2354
sg16
g230
sg18
I419
ssg110
I0
sg369
I1
sg370
I0
sg372
g373
sg108
I0
sg374
I1
ssg16
g65
sg18
I418
sssg543
(dp2355
g2
(lp2356
((g4
g5
tI-1
tp2357
a((g7
g5
tI-1
tp2358
a((g73
g74
tI-1
tp2359
a((g76
g77
tI-1
tp2360
a((g79
g80
tI-1
tp2361
a((g383
g384
tI-1
tp2362
a((g552
g553
tI-1
tp2363
asg12
g552
sg13
(dp2364
g15
Nsg16
g48
sg18
I14
ssg16
g19
sg18
I407
sg20
g553
sg15
(dp2365
g15
(dp2366
g392
S'i'
sg393
I0
sg99
I0
sg395
F0.55000001192092896
sg108
I0
sg396
I0
sg397
I0
sg110
I0
sg398
I0
ssg16
g65
sg18
I408
sssg95
S''
sg558
g2008
sg560
(dp2367
g15
Nsg16
g48
sg18
I409
ssg51
S''
sg501
I256
sg562
g2008
sg66
S''
sg564
I01
sg565
I8
sg566
I00
sg567
(dp2368
g2
(lp2369
((g4
g5
tI-1
tp2370
a((g7
g5
tI-1
tp2371
a((g73
g74
tI-1
tp2372
a((g76
g77
tI-1
tp2373
a((g79
g80
tI-1
tp2374
a((g297
g298
tI-1
tp2375
a((g576
g577
tI-1
tp2376
a((g579
g580
tI-1
tp2377
asg12
g579
sg13
(dp2378
g15
Nsg16
g48
sg18
I14
ssg16
g19
sg18
I420
sg20
g580
sg15
(dp2379
g15
(dp2380
g99
I0
sg325
I1
sg314
g585
sg586
F0.80000000000000004
sg587
S'%-#6.3g'
p2381
sg565
I8
sg317
I1
sg318
I1
sg319
I1
sg320
I1
sg108
I0
sg589
I256
sg590
I0
sg591
(dp2382
g15
S'H4sIAMcbmEYC/2XOMQuDMBAF4P39kWSpaGxAoeCcxaGugaIxQqFqSC8Q/30P263DGx7v4zi3pTUc\nhdujL9b0oucY43jgEb3btzfF5AihgnSnwzZ/96AgTQkaxCRA91BzZWUU6CdnOoJHuEIOYmkEWLNg\nqpnVGMRNoO97c6lwho9Npix5sLkdOe1/fNvZ7GqbFy2ttblZuCqO7viLqfgAbt3QTs0AAAA=\n'
p2383
sg16
g230
sg18
I423
ssg321
I1
sg322
(dp2384
g15
S'H4sIAMcbmEYC/2XOMQuDMBAF4P39kbhUjFpQKDiWLA51DZQkplCoGtITYvvne9huHd5wvI/HuXmd\nwpa7Jfp8Wh90NzGaDdfo3TI/Ka6OECQytzvM47cPJTJVgAZhBegSKj5ZqRL0kyNtwSPUyAZxawRY\ns2B6ZFZhECeBvu/VQWIPj1lVFFzo1BpO+x/bdm+dZK2T8WedvHzp1NQdf2DzD7ndMtDJAAAA\n'
p2385
sg16
g230
sg18
I422
ssg596
F0.17000000000000001
sg110
I0
sg597
I0
ssg16
g65
sg18
I421
sssg598
(dp2386
g15
S'H4sIAMcbmEYC/53OsQrCMBQF0P3+SLIY0lbBQXDOksGsgjRpCoJNQ/oC5u99VL/A4Q6Pe7i8kOqS\nmwpriWqpL3qOpYwNjxLDmjYqNRByBxl2hzR9+9xDGg1ywgvQLQ98sjI96CcnajkiHyGdmM8CrFkw\nPTEb4MRFwFprDh328Jg3WnNxf2v9X2Z95W+8+gDYoI1C1QAAAA==\n'
p2387
sg16
g230
sg18
I424
ssg370
I00
sg601
g602
sg603
I00
ssg16
g65
sg18
I403
sssg604
(dp2388
g2
(lp2389
((g4
g5
tI-1
tp2390
a((g27
g5
tI-1
tp2391
a((g29
g30
tI-1
tp2392
a((g32
g33
tI0
tp2393
a((g460
g461
tI0
tp2394
asg12
g460
sg13
(dp2395
g15
Nsg16
g48
sg18
I1
ssg16
g19
sg18
I425
sg20
g461
sg15
(dp2396
g15
(dp2397
g466
(dp2398
g15
S'H4sIAMcbmEYC/53OsQrCMBQF0P3+SLIY0lbBQXDOksGsgjRpCoJNQ/oC5u99VL/A4Q6Pe7i8kOqS\nmwpriWqpL3qOpYwNjxLDmjYqNRByBxl2hzR9+9xDGg1ywgvQLQ98sjI96CcnajkiHyGdmM8CrFkw\nPTEb4MRFwFprDh328Jg3WnNxf2v9X2Z95W+8+gDYoI1C1QAAAA==\n'
p2399
sg16
g230
sg18
I432
ssg469
I01
sg470
(dp2400
g2
(lp2401
((g4
g5
tI-1
tp2402
a((g7
g5
tI-1
tp2403
a((g73
g74
tI-1
tp2404
a((g76
g77
tI-1
tp2405
a((g79
g80
tI-1
tp2406
a((g478
g479
tI-1
tp2407
a((g481
g482
tI-1
tp2408
asg12
g481
sg13
(dp2409
g15
Nsg16
g48
sg18
I14
ssg16
g19
sg18
I433
sg20
g482
sg15
(dp2410
g15
(dp2411
g487
I2
sg311
g488
sg489
(dp2412
g15
S'H4sIAMcbmEYC/33OMQvCMBAF4P39kWQxpK2Cg+CcJYNZBWnSFASbhngB8+89qqM4vOF4H48LqS65\nqbCWqJb6oPtYythwKzGs6UmlBkLuIMPmkKZPn3tIo0FOeAG65IFPVqYHfeVELUfkPaQT81GANQum\nB2YDnDgJWGvNrsMWHvNGay6uL61/Z9bnvyW/4tUbw9sFJ9IAAAA=\n'
p2413
sg16
g230
sg18
I435
ssg492
(dp2414
g15
S'H4sIAMcbmEYC/53OsQrCMBQF0P3+SLIY0lbBQXDOksGsgjRpCoJNQ/oC5u99VL/A4Q6Pe7i8kOqS\nmwpriWqpL3qOpYwNjxLDmjYqNRByBxl2hzR9+9xDGg1ywgvQLQ98sjI96CcnajkiHyGdmM8CrFkw\nPTEb4MRFwFprDh328Jg3WnNxf2v9X2Z95W+8+gDYoI1C1QAAAA==\n'
p2415
sg16
g230
sg18
I437
ssg495
(dp2416
g15
S'H4sIAMcbmEYC/33OMQvCMBAF4P39kXSxpK3FCopzEDpY3ALSpBEKNg3xCum/96jODm94vI/jrF+m\nsOZ2ji6flheNfYz9ikd0dvZvioslhAKZ3Rz88N1DiUxJUCeMAN1CxZWVKkE/OdAaHMIeWSeejQBr\nFkxrZhU6cRJo21btCmzhY0ZJycNVJ9voJA9nnY7mrpOrL1zlv/ATJv8A/YiyW8wAAAA=\n'
p2417
sg16
g230
sg18
I436
ssg498
I256
sg499
g500
sg99
I0
sg501
I256
sg502
(dp2418
g15
S'H4sIAMcbmEYC/33OMQvCMBAF4P39kWQxpK2Cg+CcJYNZBWnSFASbhngB8+89qqM4vOF4H48LqS65\nqbCWqJb6oPtYythwKzGs6UmlBkLuIMPmkKZPn3tIo0FOeAG65IFPVqYHfeVELUfkPaQT81GANQum\nB2YDnDgJWGvNrsMWHvNGay6uL61/Z9bnvyW/4tUbw9sFJ9IAAAA=\n'
p2419
sg16
g230
sg18
I438
ssg505
I0
sg506
(dp2420
g15
S'H4sIAMcbmEYC/33OMQvCMBAF4P39kWQxpK2Cg+CcJYNZBWnSFASbhngB8+89qqM4vOF4H48LqS65\nqbCWqJb6oPtYythwKzGs6UmlBkLuIMPmkKZPn3tIo0FOeAG65IFPVqYHfeVELUfkPaQT81GANQum\nB2YDnDgJWGvNrsMWHvNGay6uL61/Z9bnvyW/4tUbw9sFJ9IAAAA=\n'
p2421
sg16
g230
sg18
I439
ssg110
I0
sg509
F1
sg510
g511
sg108
I0
ssg16
g65
sg18
I434
sssg512
(dp2422
g2
(lp2423
((g4
g5
tI-1
tp2424
a((g7
g5
tI-1
tp2425
a((g73
g74
tI-1
tp2426
a((g76
g77
tI-1
tp2427
a((g79
g80
tI-1
tp2428
a((g348
g349
tI-1
tp2429
asg12
g348
sg13
(dp2430
g15
Nsg16
g48
sg18
I14
ssg16
g19
sg18
I427
sg20
g349
sg15
(dp2431
g15
(dp2432
g273
F1
sg354
g355
sg356
I12
sg314
F0
sg357
F0
sg358
I1
sg359
g524
sg361
I0
sg99
I0
sg362
F1.1000000000000001
sg363
(dp2433
g15
Nsg16
g48
sg18
I25
ssg365
I1
sg366
(dp2434
g15
S'H4sIAMcbmEYC/03NsQrDIBDG8f17EV0qmqRbX8DFoa6FEo2BQJOIPaG+fY+00A7/4bgfd3Gra24q\n7iWptT5oGUsZG+4lxX17UqmRkA1kPBy26bPPHaTVIC+CAF1zzyMr24G+cqKWE/IA6cUyCLBmwfTM\nrIcXFwHnnD0ZHPGxYLXmxe2lDad/zfN//DCoN80p7hW4AAAA\n'
p2435
sg16
g230
sg18
I429
ssg110
I0
sg369
I1
sg370
I0
sg372
g373
sg108
I0
sg374
I1
ssg16
g65
sg18
I428
sssg528
(dp2436
g2
(lp2437
((g4
g5
tI-1
tp2438
a((g7
g5
tI-1
tp2439
a((g73
g74
tI-1
tp2440
a((g76
g77
tI-1
tp2441
a((g79
g80
tI-1
tp2442
a((g348
g349
tI-1
tp2443
asg12
g348
sg13
(dp2444
g15
Nsg16
g48
sg18
I14
ssg16
g19
sg18
I440
sg20
g349
sg15
(dp2445
g15
(dp2446
g273
F1
sg354
g355
sg356
I12
sg314
F0
sg357
F0
sg358
I1
sg359
g524
sg361
I0
sg99
I0
sg362
F1.1000000000000001
sg363
(dp2447
g15
Nsg16
g48
sg18
I25
ssg365
I1
sg366
(dp2448
g15
S'H4sIAMcbmEYC/03NsQrDIBDG8f17EV0qmqRbX8DFoa6FEo2BQJOIPaG+fY+00A7/4bgfd3Gra24q\n7iWptT5oGUsZG+4lxX17UqmRkA1kPBy26bPPHaTVIC+CAF1zzyMr24G+cqKWE/IA6cUyCLBmwfTM\nrIcXFwHnnD0ZHPGxYLXmxe2lDad/zfN//DCoN80p7hW4AAAA\n'
p2449
sg16
g230
sg18
I442
ssg110
I0
sg369
I1
sg370
I0
sg372
g373
sg108
I0
sg374
I1
ssg16
g65
sg18
I441
sssg543
(dp2450
g2
(lp2451
((g4
g5
tI-1
tp2452
a((g7
g5
tI-1
tp2453
a((g73
g74
tI-1
tp2454
a((g76
g77
tI-1
tp2455
a((g79
g80
tI-1
tp2456
a((g383
g384
tI-1
tp2457
a((g552
g553
tI-1
tp2458
asg12
g552
sg13
(dp2459
g15
Nsg16
g48
sg18
I14
ssg16
g19
sg18
I430
sg20
g553
sg15
(dp2460
g15
(dp2461
g392
S'i'
sg393
I0
sg99
I0
sg395
F0.55000001192092896
sg108
I0
sg396
I0
sg397
I0
sg110
I0
sg398
I0
ssg16
g65
sg18
I431
sssg95
S''
sg558
g679
sg560
(dp2462
g15
Nsg16
g48
sg18
I432
ssg51
S''
sg501
I256
sg562
g679
sg66
S''
sg564
I01
sg565
I8
sg566
I00
sg567
(dp2463
g2
(lp2464
((g4
g5
tI-1
tp2465
a((g7
g5
tI-1
tp2466
a((g73
g74
tI-1
tp2467
a((g76
g77
tI-1
tp2468
a((g79
g80
tI-1
tp2469
a((g297
g298
tI-1
tp2470
a((g576
g577
tI-1
tp2471
a((g579
g580
tI-1
tp2472
asg12
g579
sg13
(dp2473
g15
Nsg16
g48
sg18
I14
ssg16
g19
sg18
I443
sg20
g580
sg15
(dp2474
g15
(dp2475
g99
I0
sg325
I1
sg314
g585
sg586
F0.80000000000000004
sg587
S'%-#6.3g'
p2476
sg565
I8
sg317
I1
sg318
I1
sg319
I1
sg320
I1
sg108
I0
sg589
I256
sg590
I0
sg591
(dp2477
g15
S'H4sIAMcbmEYC/2XOMQuDMBAF4P39kWSpaGxAoeCcxaGugaIxQqFqSC8Q/30P263DGx7v4zi3pTUc\nhdujL9b0oucY43jgEb3btzfF5AihgnSnwzZ/96AgTQkaxCRA91BzZWUU6CdnOoJHuEIOYmkEWLNg\nqpnVGMRNoO97c6lwho9Npix5sLkdOe1/fNvZ7GqbFy2ttblZuCqO7viLqfgAbt3QTs0AAAA=\n'
p2478
sg16
g230
sg18
I446
ssg321
I1
sg322
(dp2479
g15
S'H4sIAMcbmEYC/2XOMQuDMBAF4P39kbhUjFpQKDiWLA51DZQkplCoGtITYvvne9huHd5wvI/HuXmd\nwpa7Jfp8Wh90NzGaDdfo3TI/Ka6OECQytzvM47cPJTJVgAZhBegSKj5ZqRL0kyNtwSPUyAZxawRY\ns2B6ZFZhECeBvu/VQWIPj1lVFFzo1BpO+x/bdm+dZK2T8WedvHzp1NQdf2DzD7ndMtDJAAAA\n'
p2480
sg16
g230
sg18
I445
ssg596
F0.17000000000000001
sg110
I0
sg597
I0
ssg16
g65
sg18
I444
sssg598
(dp2481
g15
S'H4sIAMcbmEYC/53OsQrCMBQF0P3+SLIY0lbBQXDOksGsgjRpCoJNQ/oC5u99VL/A4Q6Pe7i8kOqS\nmwpriWqpL3qOpYwNjxLDmjYqNRByBxl2hzR9+9xDGg1ywgvQLQ98sjI96CcnajkiHyGdmM8CrFkw\nPTEb4MRFwFprDh328Jg3WnNxf2v9X2Z95W+8+gDYoI1C1QAAAA==\n'
p2482
sg16
g230
sg18
I447
ssg370
I00
sg601
g602
sg603
I00
ssg16
g65
sg18
I426
ssssg16
g65
sg18
I378
ssasg16
g452
sg18
I376
ssg1109
I0
ssg16
g65
sg18
I375
ssasg16
g452
sg18
I295
sssg16
g65
sg18
I173
ssasg16
g452
sg18
I171
sssg16
g65
sg18
I2
ss.