(dp1
S'version'
p2
(lp3
((S'HasTraits'
p4
S'enthought.traits.has_traits'
p5
tI-1
tp6
a((S'HasStrictTraits'
p7
g5
tI-1
tp8
a((S'Engine'
p9
S'enthought.mayavi.engine'
p10
tI0
tp11
asS'class_name'
p12
g9
sS'initargs'
p13
(dp14
S'data'
p15
(tsS'type'
p16
S'tuple'
p17
sS'id'
p18
I1
ssg16
S'instance'
p19
sg18
I0
sS'module'
p20
g10
sg15
(dp21
g15
(dp22
S'_current_selection'
p23
(dp24
g2
(lp25
((g4
g5
tI-1
tp26
a((S'HasPrivateTraits'
p27
g5
tI-1
tp28
a((S'TreeNodeObject'
p29
S'enthought.traits.ui.tree_node'
p30
tI-1
tp31
a((S'Base'
p32
S'enthought.mayavi.core.base'
p33
tI0
tp34
a((S'ModuleManager'
p35
S'enthought.mayavi.core.module_manager'
p36
tI0
tp37
asg12
g35
sg13
(dp38
g15
Nsg16
S'reference'
p39
sg18
I1
ssg16
g19
sg18
I3
sg20
g36
sg15
(dp40
g15
(dp41
S'name'
p42
S''
sS'lut_data_mode'
p43
S'auto'
p44
sS'children'
p45
(dp46
g15
(lp47
(dp48
g2
(lp49
((g4
g5
tI-1
tp50
a((g27
g5
tI-1
tp51
a((g29
g30
tI-1
tp52
a((g32
g33
tI0
tp53
a((S'PipelineBase'
p54
S'enthought.mayavi.core.pipeline_base'
p55
tI0
tp56
a((S'Module'
p57
S'enthought.mayavi.core.module'
p58
tI0
tp59
a((S'IsoSurface'
p60
S'enthought.mayavi.modules.iso_surface'
p61
tI0
tp62
asg12
g60
sg13
(dp63
g15
Nsg16
g39
sg18
I1
ssg16
g19
sg18
I6
sg20
g61
sg15
(dp64
g15
(dp65
g42
S''
sS'compute_normals'
p66
I00
sS'actor'
p67
(dp68
g2
(lp69
((g4
g5
tI-1
tp70
a((g27
g5
tI-1
tp71
a((g29
g30
tI-1
tp72
a((g32
g33
tI0
tp73
a((g54
g55
tI0
tp74
a((S'Component'
p75
S'enthought.mayavi.core.component'
p76
tI0
tp77
a((S'Actor'
p78
S'enthought.mayavi.components.actor'
p79
tI0
tp80
asg12
g78
sg13
(dp81
g15
Nsg16
g39
sg18
I1
ssg16
g19
sg18
I8
sg20
g79
sg15
(dp82
g15
(dp83
S'mapper'
p84
(dp85
g2
(lp86
((g4
g5
tI-1
tp87
a((g7
g5
tI-1
tp88
a((S'TVTKBase'
p89
S'enthought.tvtk.tvtk_base'
p90
tI-1
tp91
a((S'ObjectBase'
p92
S'tvtk_classes.object_base'
p93
tI-1
tp94
a((S'Object'
p95
S'tvtk_classes.object'
p96
tI-1
tp97
a((S'Algorithm'
p98
S'tvtk_classes.algorithm'
p99
tI-1
tp100
a((S'AbstractMapper'
p101
S'tvtk_classes.abstract_mapper'
p102
tI-1
tp103
a((S'AbstractMapper3D'
p104
S'tvtk_classes.abstract_mapper3d'
p105
tI-1
tp106
a((S'Mapper'
p107
S'tvtk_classes.mapper'
p108
tI-1
tp109
a((S'PolyDataMapper'
p110
S'tvtk_classes.poly_data_mapper'
p111
tI-1
tp112
asg12
g110
sg13
(dp113
g15
(NI0
tp114
sg16
g17
sg18
I11
ssg16
g19
sg18
I10
sg20
g111
sg15
(dp115
g15
(dp116
S'immediate_mode_rendering'
p117
I0
sS'immediate_mode_rendering_'
p118
I0
sS'scalar_mode'
p119
S'default'
p120
sS'static'
p121
I0
sS'debug_'
p122
I0
sS'resolve_coincident_topology_z_shift'
p123
F0.01
sS'ghost_level'
p124
I0
sS'color_mode'
p125
g120
sS'interpolate_scalars_before_mapping'
p126
I0
sS'debug'
p127
I0
sS'resolve_coincident_topology_'
p128
I0
sS'use_lookup_table_scalar_range'
p129
I1
sS'abort_execute'
p130
I0
sS'release_data_flag'
p131
I0
sS'progress'
p132
F1
sS'scalar_range'
p133
(dp134
g15
S'H4sIAH3Wm0YC/53OsQrCMBQF0P3+SLIY0lbBQXDOksGsgjRpCoJNQ/oC5u99VL/A4Q6Pe7i8kOqS\nmwpriWqpL3qOpYwNjxLDmjYqNRByBxl2hzR9+9xDGg1ywgvQLQ98sjI96CcnajkiHyGdmM8CrFkw\nPTEb4MRFwFprDh328Jg3WnNxf2v9X2Z95W+8+gDYoI1C1QAAAA==\n'
p135
sg16
S'numeric'
p136
sg18
I13
ssS'use_lookup_table_scalar_range_'
p137
I1
sS'global_warning_display_'
p138
I0
sS'global_immediate_mode_rendering_'
p139
I0
sS'scalar_visibility'
p140
I1
sS'abort_execute_'
p141
I0
sS'scalar_visibility_'
p142
I1
sS'static_'
p143
I0
sS'global_immediate_mode_rendering'
p144
I0
sS'interpolate_scalars_before_mapping_'
p145
I0
sS'number_of_sub_pieces'
p146
I1
sS'scalar_material_mode'
p147
g120
sS'release_data_flag_'
p148
I0
sS'piece'
p149
I0
sS'number_of_pieces'
p150
I1
sS'resolve_coincident_topology'
p151
S'off'
p152
sS'render_time'
p153
F0
ssg16
S'dict'
p154
sg18
I12
sssS'_saved_state'
p155
S''
sS'property'
p156
(dp157
g2
(lp158
((g4
g5
tI-1
tp159
a((g7
g5
tI-1
tp160
a((g89
g90
tI-1
tp161
a((g92
g93
tI-1
tp162
a((g95
g96
tI-1
tp163
a((S'Property'
p164
S'tvtk_classes.property'
p165
tI-1
tp166
a((S'OpenGLProperty'
p167
S'tvtk_classes.open_gl_property'
p168
tI-1
tp169
asg12
g167
sg13
(dp170
g15
Nsg16
g39
sg18
I11
ssg16
g19
sg18
I20
sg20
g168
sg15
(dp171
g15
(dp172
S'diffuse_color'
p173
(dp174
g15
Nsg16
g39
sg18
I22
ssS'backface_culling'
p175
I0
sS'specular_power'
p176
F1
sS'edge_color'
p177
(dp178
g15
(F1
F1
F1
tp179
sg16
g17
sg18
I22
ssS'ambient'
p180
F0
sS'edge_visibility'
p181
I0
sS'interpolation'
p182
S'gouraud'
p183
sS'opacity'
p184
F1
sS'frontface_culling'
p185
I0
sS'point_size'
p186
F1
sS'edge_visibility_'
p187
I0
sS'ambient_color'
p188
(dp189
g15
Nsg16
g39
sg18
I22
ssg138
I0
sS'backface_culling_'
p190
I0
sS'specular_color'
p191
(dp192
g15
Nsg16
g39
sg18
I22
ssS'diffuse'
p193
F1
sS'line_width'
p194
F1
sg122
I0
sS'specular'
p195
F0
sS'frontface_culling_'
p196
I0
sS'representation_'
p197
I0
sS'line_stipple_pattern'
p198
I65535
sg127
I0
sS'representation'
p199
S'points'
p200
sS'line_stipple_repeat_factor'
p201
I1
ssg16
g154
sg18
I21
sssg42
S''
sg67
(dp202
g2
(lp203
((g4
g5
tI-1
tp204
a((g7
g5
tI-1
tp205
a((g89
g90
tI-1
tp206
a((g92
g93
tI-1
tp207
a((g95
g96
tI-1
tp208
a((S'Prop'
p209
S'tvtk_classes.prop'
p210
tI-1
tp211
a((S'Prop3D'
p212
S'tvtk_classes.prop3d'
p213
tI-1
tp214
a((g78
S'tvtk_classes.actor'
p215
tI-1
tp216
asg12
g78
sg13
(dp217
g15
Nsg16
g39
sg18
I11
ssg16
g19
sg18
I14
sg20
g215
sg15
(dp218
g15
(dp219
S'origin'
p220
(dp221
g15
S'H4sIAH7Wm0YC/7XOMQoCMRAF0P5fJGkMWVfBwguk2cK0gmyyEQQ3O8QJmNs7RK9g8YvhPz4Tc12p\nmbiVZNb65MdcytxwKylu+cWlRgYN0LE75OXb0x7aWbBXQYEvNMopyo3gn1y4UQIdoL26nxREixB6\n7Myrs8I0TW43oEfGgrNWiuvb2n9GHg7mAy0aBDD4AAAA\n'
p222
sg16
g136
sg18
I16
ssS'scale'
p223
(dp224
g15
S'H4sIAH7Wm0YC/53OMQvCMBAF4P39kWQxpFbBQXDOksGsgjRpCoJtQ3oB8+89oqOTwxuO9/G4sJQ5\nVRXWHNVcnvQYch4q7jmGddkol0BIHWRoDsv46dMe0miQE16Arqnnk5XpQV85Uk0R6QDpxHQSYM2C\n6bExJ84C1lqz69DCY95ozcXtpfXvTPryf8l/evUGx/o6Le8AAAA=\n'
p225
sg16
g136
sg18
I18
ssS'orientation'
p226
(dp227
g15
S'H4sIAH7Wm0YC/53OsQoCMRAE0H5+JGkMOU/hCn8gTQrTCnLJRRC8XIgbMH/vEu0FiymWeQwbUl1z\nU2ErUa31Qfe5lLnhWmLY0pNKDYQ8QIbukJZPn/eQRoOc8AJ0ziOfrMwI+sqFWo7IB0gnbpMAaxZM\nj505cRKw1prdgB4e80ZrLi4vrf/P9NPww169AaZN3yn4AAAA\n'
p228
sg16
g136
sg18
I17
ssg127
I0
sS'dragable'
p229
I1
sS'visibility'
p230
I1
sS'pickable_'
p231
I1
sS'dragable_'
p232
I1
sg138
I0
sg122
I0
sS'visibility_'
p233
I1
sS'position'
p234
(dp235
g15
S'H4sIAH7Wm0YC/7XOMQoCMRAF0P5fJGkMWVfBwguk2cK0gmyyEQQ3O8QJmNs7RK9g8YvhPz4Tc12p\nmbiVZNb65MdcytxwKylu+cWlRgYN0LE75OXb0x7aWbBXQYEvNMopyo3gn1y4UQIdoL26nxREixB6\n7Myrs8I0TW43oEfGgrNWiuvb2n9GHg7mAy0aBDD4AAAA\n'
p236
sg16
g136
sg18
I19
ssS'pickable'
p237
I1
ssg16
g154
sg18
I15
ssssg16
g154
sg18
I9
sssg155
S''
sS'normals'
p238
(dp239
g2
(lp240
((g4
g5
tI-1
tp241
a((g27
g5
tI-1
tp242
a((g29
g30
tI-1
tp243
a((g32
g33
tI0
tp244
a((g54
g55
tI0
tp245
a((g75
g76
tI0
tp246
a((S'PolyDataNormals'
p247
S'enthought.mayavi.components.poly_data_normals'
p248
tI0
tp249
asg12
g247
sg13
(dp250
g15
Nsg16
g39
sg18
I1
ssg16
g19
sg18
I23
sg20
g248
sg15
(dp251
g15
(dp252
S'filter'
p253
(dp254
g2
(lp255
((g4
g5
tI-1
tp256
a((g7
g5
tI-1
tp257
a((g89
g90
tI-1
tp258
a((g92
g93
tI-1
tp259
a((g95
g96
tI-1
tp260
a((g98
g99
tI-1
tp261
a((S'PolyDataAlgorithm'
p262
S'tvtk_classes.poly_data_algorithm'
p263
tI-1
tp264
a((g247
S'tvtk_classes.poly_data_normals'
p265
tI-1
tp266
asg12
g247
sg13
(dp267
g15
Nsg16
g39
sg18
I11
ssg16
g19
sg18
I25
sg20
g265
sg15
(dp268
g15
(dp269
S'flip_normals_'
p270
I0
sS'compute_cell_normals'
p271
I0
sS'splitting'
p272
I1
sS'flip_normals'
p273
I0
sS'compute_point_normals'
p274
I1
sS'compute_cell_normals_'
p275
I0
sS'consistency_'
p276
I1
sS'auto_orient_normals_'
p277
I0
sS'compute_point_normals_'
p278
I1
sS'auto_orient_normals'
p279
I0
sg130
I0
sg131
I0
sg132
F1
sg148
I0
sS'splitting_'
p280
I1
sg138
I0
sg141
I0
sS'non_manifold_traversal'
p281
I1
sg122
I0
sS'consistency'
p282
I1
sg127
I0
sS'non_manifold_traversal_'
p283
I1
sS'feature_angle'
p284
F45
ssg16
g154
sg18
I26
sssg155
S''
sg42
S''
ssg16
g154
sg18
I24
sssS'contour'
p285
(dp286
g2
(lp287
((g4
g5
tI-1
tp288
a((g27
g5
tI-1
tp289
a((g29
g30
tI-1
tp290
a((g32
g33
tI0
tp291
a((g54
g55
tI0
tp292
a((g75
g76
tI0
tp293
a((S'Contour'
p294
S'enthought.mayavi.components.contour'
p295
tI0
tp296
asg12
g294
sg13
(dp297
g15
Nsg16
g39
sg18
I1
ssg16
g19
sg18
I27
sg20
g295
sg15
(dp298
g15
(dp299
g42
S''
sS'auto_contours'
p300
I01
sS'_current_range'
p301
(dp302
g15
(F5.8280149369677181e-13
F0.056145347654819489
tp303
sg16
g17
sg18
I29
ssS'filled_contours'
p304
I00
sS'minimum_contour'
p305
F1e-08
sg155
S''
sS'_cont_filt'
p306
(dp307
g2
(lp308
((g4
g5
tI-1
tp309
a((g7
g5
tI-1
tp310
a((g89
g90
tI-1
tp311
a((g92
g93
tI-1
tp312
a((g95
g96
tI-1
tp313
a((g98
g99
tI-1
tp314
a((g262
g263
tI-1
tp315
a((S'ContourFilter'
p316
S'tvtk_classes.contour_filter'
p317
tI-1
tp318
asg12
g316
sg13
(dp319
g15
Nsg16
g39
sg18
I11
ssg16
g19
sg18
I30
sg20
g317
sg15
(dp320
g15
(dp321
S'compute_gradients'
p322
I0
sg138
I0
sS'array_component'
p323
I0
sS'compute_normals_'
p324
I1
sS'use_scalar_tree_'
p325
I0
sg141
I0
sS'compute_scalars_'
p326
I1
sg66
I1
sS'compute_scalars'
p327
I1
sS'use_scalar_tree'
p328
I0
sS'compute_gradients_'
p329
I0
sg130
I0
sg122
I0
sg131
I0
sg148
I0
sg132
F1
sS'number_of_contours'
p330
I13
sg127
I0
ssg16
g154
sg18
I31
sssS'contours'
p331
(dp332
g15
(lp333
F0.028072673827700002
asg16
S'list'
p334
sg18
I32
ssS'_fill_cont_filt'
p335
(dp336
g2
(lp337
((g4
g5
tI-1
tp338
a((g7
g5
tI-1
tp339
a((g89
g90
tI-1
tp340
a((g92
g93
tI-1
tp341
a((g95
g96
tI-1
tp342
a((g98
g99
tI-1
tp343
a((g262
g263
tI-1
tp344
a((S'BandedPolyDataContourFilter'
p345
S'tvtk_classes.banded_poly_data_contour_filter'
p346
tI-1
tp347
asg12
g345
sg13
(dp348
g15
Nsg16
g39
sg18
I11
ssg16
g19
sg18
I33
sg20
g346
sg15
(dp349
g15
(dp350
g122
I0
sS'clipping'
p351
I1
sg141
I0
sS'clipping_'
p352
I1
sg119
S'value'
p353
sS'generate_contour_edges'
p354
I0
sg127
I0
sg138
I0
sg130
I0
sS'scalar_mode_'
p355
I1
sg131
I0
sg148
I0
sg132
F0
sg330
I1
sS'generate_contour_edges_'
p356
I0
ssg16
g154
sg18
I34
sssS'show_filled_contours'
p357
I00
sg330
I13
sS'maximum_contour'
p358
F0.056145347654819489
ssg16
g154
sg18
I28
ssssg16
g154
sg18
I7
ssasg16
g334
sg18
I5
ssg155
S''
sS'scalar_lut_manager'
p359
(dp360
g2
(lp361
((g4
g5
tI-1
tp362
a((g27
g5
tI-1
tp363
a((g29
g30
tI-1
tp364
a((g32
g33
tI0
tp365
a((S'LUTManager'
p366
S'enthought.mayavi.core.lut_manager'
p367
tI0
tp368
asg12
g366
sg13
(dp369
g15
Nsg16
g39
sg18
I1
ssg16
g19
sg18
I35
sg20
g367
sg15
(dp370
g15
(dp371
S'default_data_range'
p372
(dp373
g15
S'H4sIAH7Wm0YC/03OMQvCMBAF4P39kXSxJK2FDoquWTrYNSDNtaJg2xCvkP57jyro8Ia793EcTcsY\n1pzmOOTj8uRHF2O34hoHmqcXx4UYwSCjzWHqP30okFkNbpVX4EsoZRRlC/BX9ryGAWGPrFW3WkG0\nCKGVsBKtOig0TWN3BlvkmLdaS+GS1r+QvrtUm/74vz67ZCqX/M2ljk7ygc/fpmsiaskAAAA=\n'
p374
sg16
g136
sg18
I42
ssS'use_default_name'
p375
I01
sS'lut'
p376
(dp377
g2
(lp378
((g4
g5
tI-1
tp379
a((g7
g5
tI-1
tp380
a((g89
g90
tI-1
tp381
a((g92
g93
tI-1
tp382
a((g95
g96
tI-1
tp383
a((S'ScalarsToColors'
p384
S'tvtk_classes.scalars_to_colors'
p385
tI-1
tp386
a((S'LookupTable'
p387
S'tvtk_classes.lookup_table'
p388
tI-1
tp389
asg12
g387
sg13
(dp390
g15
Nsg16
g39
sg18
I11
ssg16
g19
sg18
I43
sg20
g388
sg15
(dp391
g15
(dp392
S'ramp_'
p393
I2
sg223
S'linear'
p394
sS'saturation_range'
p395
(dp396
g15
S'H4sIAH7Wm0YC/33OMQvCMBAF4P39kWQxpK2Cg+CcJYNZBWnSFASbhngB8+89qqM4vOF4H48LqS65\nqbCWqJb6oPtYythwKzGs6UmlBkLuIMPmkKZPn3tIo0FOeAG65IFPVqYHfeVELUfkPaQT81GANQum\nB2YDnDgJWGvNrsMWHvNGay6uL61/Z9bnvyW/4tUbw9sFJ9IAAAA=\n'
p397
sg16
g136
sg18
I45
ssS'table_range'
p398
(dp399
g15
S'H4sIAH7Wm0YC/03OMQvCMBAF4P39kXSxJK2FDoquWTrYNSDNtaJg2xCvkP57jyro8Ia793EcTcsY\n1pzmOOTj8uRHF2O34hoHmqcXx4UYwSCjzWHqP30okFkNbpVX4EsoZRRlC/BX9ryGAWGPrFW3WkG0\nCKGVsBKtOig0TWN3BlvkmLdaS+GS1r+QvrtUm/74vz67ZCqX/M2ljk7ygc/fpmsiaskAAAA=\n'
p400
sg16
g136
sg18
I47
ssS'hue_range'
p401
(dp402
g15
S'H4sIAH7Wm0YC/33OMQvCMBAF4P39kXSxpK3FCopzEDpY3ALSpBEKNg3xCum/96jODm94vI/jrF+m\nsOZ2ji6flheNfYz9ikd0dvZvioslhAKZ3Rz88N1DiUxJUCeMAN1CxZWVKkE/OdAaHMIeWSeejQBr\nFkxrZhU6cRJo21btCmzhY0ZJycNVJ9voJA9nnY7mrpOrL1zlv/ATJv8A/YiyW8wAAAA=\n'
p403
sg16
g136
sg18
I46
ssS'number_of_table_values'
p404
I256
sS'ramp'
p405
S'sqrt'
p406
sg122
I0
sS'number_of_colors'
p407
I256
sS'alpha_range'
p408
(dp409
g15
S'H4sIAH7Wm0YC/33OMQvCMBAF4P39kWQxpK2Cg+CcJYNZBWnSFASbhngB8+89qqM4vOF4H48LqS65\nqbCWqJb6oPtYythwKzGs6UmlBkLuIMPmkKZPn3tIo0FOeAG65IFPVqYHfeVELUfkPaQT81GANQum\nB2YDnDgJWGvNrsMWHvNGay6uL61/Z9bnvyW/4tUbw9sFJ9IAAAA=\n'
p410
sg16
g136
sg18
I48
ssS'vector_component'
p411
I0
sS'value_range'
p412
(dp413
g15
S'H4sIAH7Wm0YC/33OMQvCMBAF4P39kWQxpK2Cg+CcJYNZBWnSFASbhngB8+89qqM4vOF4H48LqS65\nqbCWqJb6oPtYythwKzGs6UmlBkLuIMPmkKZPn3tIo0FOeAG65IFPVqYHfeVELUfkPaQT81GANQum\nB2YDnDgJWGvNrsMWHvNGay6uL61/Z9bnvyW/4tUbw9sFJ9IAAAA=\n'
p414
sg16
g136
sg18
I49
ssg127
I0
sS'alpha'
p415
F1
sS'vector_mode'
p416
S'component'
p417
sg138
I0
ssg16
g154
sg18
I44
sssS'_label_text_property'
p418
(dp419
g2
(lp420
((g4
g5
tI-1
tp421
a((g7
g5
tI-1
tp422
a((g89
g90
tI-1
tp423
a((g92
g93
tI-1
tp424
a((g95
g96
tI-1
tp425
a((S'TextProperty'
p426
S'tvtk_classes.text_property'
p427
tI-1
tp428
asg12
g426
sg13
(dp429
g15
Nsg16
g39
sg18
I11
ssg16
g19
sg18
I37
sg20
g427
sg15
(dp430
g15
(dp431
g184
F1
sS'justification'
p432
S'left'
p433
sS'font_size'
p434
I12
sg226
F0
sS'line_offset'
p435
F0
sS'italic_'
p436
I1
sS'vertical_justification'
p437
S'bottom'
p438
sS'shadow_'
p439
I0
sg122
I0
sS'line_spacing'
p440
F1.1000000000000001
sS'color'
p441
(dp442
g15
Nsg16
g39
sg18
I22
ssS'italic'
p443
I1
sS'shadow_offset'
p444
(dp445
g15
S'H4sIAH7Wm0YC/03NsQrDIBDG8f17EV0qmqRbX8DFoa6FEo2BQJOIPaG+fY+00A7/4bgfd3Gra24q\n7iWptT5oGUsZG+4lxX17UqmRkA1kPBy26bPPHaTVIC+CAF1zzyMr24G+cqKWE/IA6cUyCLBmwfTM\nrIcXFwHnnD0ZHPGxYLXmxe2lDad/zfN//DCoN80p7hW4AAAA\n'
p446
sg16
g136
sg18
I39
ssg127
I0
sS'bold_'
p447
I1
sS'shadow'
p448
I0
sS'font_family'
p449
S'arial'
p450
sg138
I0
sS'bold'
p451
I1
ssg16
g154
sg18
I38
sssS'_title_text_property'
p452
(dp453
g2
(lp454
((g4
g5
tI-1
tp455
a((g7
g5
tI-1
tp456
a((g89
g90
tI-1
tp457
a((g92
g93
tI-1
tp458
a((g95
g96
tI-1
tp459
a((g426
g427
tI-1
tp460
asg12
g426
sg13
(dp461
g15
Nsg16
g39
sg18
I11
ssg16
g19
sg18
I50
sg20
g427
sg15
(dp462
g15
(dp463
g184
F1
sg432
g433
sg434
I12
sg226
F0
sg435
F0
sg436
I1
sg437
g438
sg439
I0
sg122
I0
sg440
F1.1000000000000001
sg441
(dp464
g15
Nsg16
g39
sg18
I22
ssg443
I1
sg444
(dp465
g15
S'H4sIAH7Wm0YC/03NsQrDIBDG8f17EV0qmqRbX8DFoa6FEo2BQJOIPaG+fY+00A7/4bgfd3Gra24q\n7iWptT5oGUsZG+4lxX17UqmRkA1kPBy26bPPHaTVIC+CAF1zzyMr24G+cqKWE/IA6cUyCLBmwfTM\nrIcXFwHnnD0ZHPGxYLXmxe2lDad/zfN//DCoN80p7hW4AAAA\n'
p466
sg16
g136
sg18
I52
ssg127
I0
sg447
I1
sg448
I0
sg449
g450
sg138
I0
sg451
I1
ssg16
g154
sg18
I51
sssS'scalar_bar_widget'
p467
(dp468
g2
(lp469
((g4
g5
tI-1
tp470
a((g7
g5
tI-1
tp471
a((g89
g90
tI-1
tp472
a((g92
g93
tI-1
tp473
a((g95
g96
tI-1
tp474
a((S'InteractorObserver'
p475
S'tvtk_classes.interactor_observer'
p476
tI-1
tp477
a((S'ScalarBarWidget'
p478
S'tvtk_classes.scalar_bar_widget'
p479
tI-1
tp480
asg12
g478
sg13
(dp481
g15
Nsg16
g39
sg18
I11
ssg16
g19
sg18
I40
sg20
g479
sg15
(dp482
g15
(dp483
S'key_press_activation_value'
p484
S'i'
sS'enabled'
p485
I1
sg122
I0
sS'priority'
p486
F0.55000001192092896
sg138
I0
sS'key_press_activation_'
p487
I0
sS'enabled_'
p488
I1
sg127
I0
sS'key_press_activation'
p489
I0
ssg16
g154
sg18
I41
sssS'file_name'
p490
V
sS'data_name'
p491
V
sS'data_range'
p492
(dp493
g15
Nsg16
g39
sg18
I42
ssg42
S''
sg407
I256
sS'default_data_name'
p494
S'LocalResiduals'
p495
sg155
S''
sS'use_default_range'
p496
I01
sS'number_of_labels'
p497
I8
sS'show_scalar_bar'
p498
I01
sS'scalar_bar'
p499
(dp500
g2
(lp501
((g4
g5
tI-1
tp502
a((g7
g5
tI-1
tp503
a((g89
g90
tI-1
tp504
a((g92
g93
tI-1
tp505
a((g95
g96
tI-1
tp506
a((g209
g210
tI-1
tp507
a((S'Actor2D'
p508
S'tvtk_classes.actor2d'
p509
tI-1
tp510
a((S'ScalarBarActor'
p511
S'tvtk_classes.scalar_bar_actor'
p512
tI-1
tp513
asg12
g511
sg13
(dp514
g15
Nsg16
g39
sg18
I11
ssg16
g19
sg18
I53
sg20
g512
sg15
(dp515
g15
(dp516
g122
I0
sg237
I1
sg226
S'vertical'
p517
sS'width'
p518
F0.076201837454619836
sS'label_format'
p519
S'%-#6.3g'
p520
sg497
I8
sg229
I1
sg230
I1
sg231
I1
sg232
I1
sg138
I0
sS'maximum_number_of_colors'
p521
I256
sS'orientation_'
p522
I1
sS'position2'
p523
(dp524
g15
S'H4sIAH7Wm0YC/y3NwQqDMAwG4HtepF4m1s7hYeCuvciYsFNg2NrCxtTSVUjffsHtkMOf/yOxyzaH\nXNo1unLe3uk5xjhmeERn1+WT4mYTBAmF3R0s068PNRS6gjQIIyDdguLISteQ/nJKOTgIRygG4VsB\nrFkwbZgpGMRZQN/3+iBhHz5mdFVxcb0gWYU0eiR/QmolklHdC0k2SM7wpkWa/J2D7Pi9Kb87r2gr\nxgAAAA==\n'
p525
sg16
g136
sg18
I56
ssg233
I1
sg234
(dp526
g15
S'H4sIAH7Wm0YC/y3OMQuDMBAF4P39kbhUEq1ioeCcxaGugaKXWApVQ4wQ/30P2+HgHu/jOFr22R85\nrcHl8/6J7yGE4cAzOFqXLYadIrxCRqfDYn+9L5BpidiLUSA+fMmRlS4Q/9LGwzv4K7JeTI0AaxZM\nK2YlenEX6LpOXxTO4WOjlpILk6wy6dbUJg2Op5ImOWpNUpxkw2HivX6xI5PItvzBmH8BXuT/sMkA\nAAA=\n'
p527
sg16
g136
sg18
I55
ssS'height'
p528
F0.54185463659147826
sg127
I0
sS'layer_number'
p529
I0
ssg16
g154
sg18
I54
sssS'_orig_data_range'
p530
(dp531
g15
S'H4sIAH7Wm0YC/53OsQrCMBQF0P3+SLIY0lbBQXDOksGsgjRpCoJNQ/oC5u99VL/A4Q6Pe7i8kOqS\nmwpriWqpL3qOpYwNjxLDmjYqNRByBxl2hzR9+9xDGg1ywgvQLQ98sjI96CcnajkiHyGdmM8CrFkw\nPTEb4MRFwFprDh328Jg3WnNxf2v9X2Z95W+8+gDYoI1C1QAAAA==\n'
p532
sg16
g136
sg18
I57
ssg448
I00
sS'lut_mode'
p533
S'blue-red'
p534
sS'reverse_lut'
p535
I00
ssg16
g154
sg18
I36
sssS'vector_lut_manager'
p536
(dp537
g2
(lp538
((g4
g5
tI-1
tp539
a((g27
g5
tI-1
tp540
a((g29
g30
tI-1
tp541
a((g32
g33
tI0
tp542
a((g366
g367
tI0
tp543
asg12
g366
sg13
(dp544
g15
Nsg16
g39
sg18
I1
ssg16
g19
sg18
I58
sg20
g367
sg15
(dp545
g15
(dp546
g372
(dp547
g15
S'H4sIAH7Wm0YC/53OsQrCMBQF0P3+SLIY0lbBQXDOksGsgjRpCoJNQ/oC5u99VL/A4Q6Pe7i8kOqS\nmwpriWqpL3qOpYwNjxLDmjYqNRByBxl2hzR9+9xDGg1ywgvQLQ98sjI96CcnajkiHyGdmM8CrFkw\nPTEb4MRFwFprDh328Jg3WnNxf2v9X2Z95W+8+gDYoI1C1QAAAA==\n'
p548
sg16
g136
sg18
I65
ssg375
I01
sg376
(dp549
g2
(lp550
((g4
g5
tI-1
tp551
a((g7
g5
tI-1
tp552
a((g89
g90
tI-1
tp553
a((g92
g93
tI-1
tp554
a((g95
g96
tI-1
tp555
a((g384
g385
tI-1
tp556
a((g387
g388
tI-1
tp557
asg12
g387
sg13
(dp558
g15
Nsg16
g39
sg18
I11
ssg16
g19
sg18
I66
sg20
g388
sg15
(dp559
g15
(dp560
g393
I2
sg223
g394
sg395
(dp561
g15
S'H4sIAH7Wm0YC/33OMQvCMBAF4P39kWQxpK2Cg+CcJYNZBWnSFASbhngB8+89qqM4vOF4H48LqS65\nqbCWqJb6oPtYythwKzGs6UmlBkLuIMPmkKZPn3tIo0FOeAG65IFPVqYHfeVELUfkPaQT81GANQum\nB2YDnDgJWGvNrsMWHvNGay6uL61/Z9bnvyW/4tUbw9sFJ9IAAAA=\n'
p562
sg16
g136
sg18
I68
ssg398
(dp563
g15
S'H4sIAH7Wm0YC/53OsQrCMBQF0P3+SLIY0lbBQXDOksGsgjRpCoJNQ/oC5u99VL/A4Q6Pe7i8kOqS\nmwpriWqpL3qOpYwNjxLDmjYqNRByBxl2hzR9+9xDGg1ywgvQLQ98sjI96CcnajkiHyGdmM8CrFkw\nPTEb4MRFwFprDh328Jg3WnNxf2v9X2Z95W+8+gDYoI1C1QAAAA==\n'
p564
sg16
g136
sg18
I70
ssg401
(dp565
g15
S'H4sIAH7Wm0YC/33OMQvCMBAF4P39kXSxpK3FCopzEDpY3ALSpBEKNg3xCum/96jODm94vI/jrF+m\nsOZ2ji6flheNfYz9ikd0dvZvioslhAKZ3Rz88N1DiUxJUCeMAN1CxZWVKkE/OdAaHMIeWSeejQBr\nFkxrZhU6cRJo21btCmzhY0ZJycNVJ9voJA9nnY7mrpOrL1zlv/ATJv8A/YiyW8wAAAA=\n'
p566
sg16
g136
sg18
I69
ssg404
I256
sg405
g406
sg122
I0
sg407
I256
sg408
(dp567
g15
S'H4sIAH7Wm0YC/33OMQvCMBAF4P39kWQxpK2Cg+CcJYNZBWnSFASbhngB8+89qqM4vOF4H48LqS65\nqbCWqJb6oPtYythwKzGs6UmlBkLuIMPmkKZPn3tIo0FOeAG65IFPVqYHfeVELUfkPaQT81GANQum\nB2YDnDgJWGvNrsMWHvNGay6uL61/Z9bnvyW/4tUbw9sFJ9IAAAA=\n'
p568
sg16
g136
sg18
I71
ssg411
I0
sg412
(dp569
g15
S'H4sIAH7Wm0YC/33OMQvCMBAF4P39kWQxpK2Cg+CcJYNZBWnSFASbhngB8+89qqM4vOF4H48LqS65\nqbCWqJb6oPtYythwKzGs6UmlBkLuIMPmkKZPn3tIo0FOeAG65IFPVqYHfeVELUfkPaQT81GANQum\nB2YDnDgJWGvNrsMWHvNGay6uL61/Z9bnvyW/4tUbw9sFJ9IAAAA=\n'
p570
sg16
g136
sg18
I72
ssg127
I0
sg415
F1
sg416
g417
sg138
I0
ssg16
g154
sg18
I67
sssg418
(dp571
g2
(lp572
((g4
g5
tI-1
tp573
a((g7
g5
tI-1
tp574
a((g89
g90
tI-1
tp575
a((g92
g93
tI-1
tp576
a((g95
g96
tI-1
tp577
a((g426
g427
tI-1
tp578
asg12
g426
sg13
(dp579
g15
Nsg16
g39
sg18
I11
ssg16
g19
sg18
I60
sg20
g427
sg15
(dp580
g15
(dp581
g184
F1
sg432
g433
sg434
I12
sg226
F0
sg435
F0
sg436
I1
sg437
g438
sg439
I0
sg122
I0
sg440
F1.1000000000000001
sg441
(dp582
g15
Nsg16
g39
sg18
I22
ssg443
I1
sg444
(dp583
g15
S'H4sIAH7Wm0YC/03NsQrDIBDG8f17EV0qmqRbX8DFoa6FEo2BQJOIPaG+fY+00A7/4bgfd3Gra24q\n7iWptT5oGUsZG+4lxX17UqmRkA1kPBy26bPPHaTVIC+CAF1zzyMr24G+cqKWE/IA6cUyCLBmwfTM\nrIcXFwHnnD0ZHPGxYLXmxe2lDad/zfN//DCoN80p7hW4AAAA\n'
p584
sg16
g136
sg18
I62
ssg127
I0
sg447
I1
sg448
I0
sg449
g450
sg138
I0
sg451
I1
ssg16
g154
sg18
I61
sssg452
(dp585
g2
(lp586
((g4
g5
tI-1
tp587
a((g7
g5
tI-1
tp588
a((g89
g90
tI-1
tp589
a((g92
g93
tI-1
tp590
a((g95
g96
tI-1
tp591
a((g426
g427
tI-1
tp592
asg12
g426
sg13
(dp593
g15
Nsg16
g39
sg18
I11
ssg16
g19
sg18
I73
sg20
g427
sg15
(dp594
g15
(dp595
g184
F1
sg432
g433
sg434
I12
sg226
F0
sg435
F0
sg436
I1
sg437
g438
sg439
I0
sg122
I0
sg440
F1.1000000000000001
sg441
(dp596
g15
Nsg16
g39
sg18
I22
ssg443
I1
sg444
(dp597
g15
S'H4sIAH7Wm0YC/03NsQrDIBDG8f17EV0qmqRbX8DFoa6FEo2BQJOIPaG+fY+00A7/4bgfd3Gra24q\n7iWptT5oGUsZG+4lxX17UqmRkA1kPBy26bPPHaTVIC+CAF1zzyMr24G+cqKWE/IA6cUyCLBmwfTM\nrIcXFwHnnD0ZHPGxYLXmxe2lDad/zfN//DCoN80p7hW4AAAA\n'
p598
sg16
g136
sg18
I75
ssg127
I0
sg447
I1
sg448
I0
sg449
g450
sg138
I0
sg451
I1
ssg16
g154
sg18
I74
sssg467
(dp599
g2
(lp600
((g4
g5
tI-1
tp601
a((g7
g5
tI-1
tp602
a((g89
g90
tI-1
tp603
a((g92
g93
tI-1
tp604
a((g95
g96
tI-1
tp605
a((g475
g476
tI-1
tp606
a((g478
g479
tI-1
tp607
asg12
g478
sg13
(dp608
g15
Nsg16
g39
sg18
I11
ssg16
g19
sg18
I63
sg20
g479
sg15
(dp609
g15
(dp610
g484
S'i'
sg485
I0
sg122
I0
sg486
F0.55000001192092896
sg138
I0
sg487
I0
sg488
I0
sg127
I0
sg489
I0
ssg16
g154
sg18
I64
sssg490
S''
sg491
S'No vectors'
p611
sg492
(dp612
g15
Nsg16
g39
sg18
I65
ssg42
S''
sg407
I256
sg494
g611
sg155
S''
sg496
I01
sg497
I8
sg498
I00
sg499
(dp613
g2
(lp614
((g4
g5
tI-1
tp615
a((g7
g5
tI-1
tp616
a((g89
g90
tI-1
tp617
a((g92
g93
tI-1
tp618
a((g95
g96
tI-1
tp619
a((g209
g210
tI-1
tp620
a((g508
g509
tI-1
tp621
a((g511
g512
tI-1
tp622
asg12
g511
sg13
(dp623
g15
Nsg16
g39
sg18
I11
ssg16
g19
sg18
I76
sg20
g512
sg15
(dp624
g15
(dp625
g122
I0
sg237
I1
sg226
S'horizontal'
p626
sg518
F0.80000000000000004
sg519
S'%-#6.3g'
p627
sg497
I8
sg229
I1
sg230
I1
sg231
I1
sg232
I1
sg138
I0
sg521
I256
sg522
I0
sg523
(dp628
g15
S'H4sIAH7Wm0YC/2XOMQuDMBAF4P39kWSpaGxAoeCcxaGugaIxQqFqSC8Q/30P263DGx7v4zi3pTUc\nhdujL9b0oucY43jgEb3btzfF5AihgnSnwzZ/96AgTQkaxCRA91BzZWUU6CdnOoJHuEIOYmkEWLNg\nqpnVGMRNoO97c6lwho9Npix5sLkdOe1/fNvZ7GqbFy2ttblZuCqO7viLqfgAbt3QTs0AAAA=\n'
p629
sg16
g136
sg18
I79
ssg233
I1
sg234
(dp630
g15
S'H4sIAH7Wm0YC/2XOMQuDMBAF4P39kbhUjFpQKDiWLA51DZQkplCoGtITYvvne9huHd5wvI/HuXmd\nwpa7Jfp8Wh90NzGaDdfo3TI/Ka6OECQytzvM47cPJTJVgAZhBegSKj5ZqRL0kyNtwSPUyAZxawRY\ns2B6ZFZhECeBvu/VQWIPj1lVFFzo1BpO+x/bdm+dZK2T8WedvHzp1NQdf2DzD7ndMtDJAAAA\n'
p631
sg16
g136
sg18
I78
ssg528
F0.17000000000000001
sg127
I0
sg529
I0
ssg16
g154
sg18
I77
sssg530
(dp632
g15
S'H4sIAH7Wm0YC/53OsQrCMBQF0P3+SLIY0lbBQXDOksGsgjRpCoJNQ/oC5u99VL/A4Q6Pe7i8kOqS\nmwpriWqpL3qOpYwNjxLDmjYqNRByBxl2hzR9+9xDGg1ywgvQLQ98sjI96CcnajkiHyGdmM8CrFkw\nPTEb4MRFwFprDh328Jg3WnNxf2v9X2Z95W+8+gDYoI1C1QAAAA==\n'
p633
sg16
g136
sg18
I80
ssg448
I00
sg533
g534
sg535
I00
ssg16
g154
sg18
I59
ssssg16
g154
sg18
I4
sssg42
S'MayaVi Engine'
p634
sS'preference_manager'
p635
(dp636
g2
(lp637
((g4
g5
tI-1
tp638
a((S'PreferenceManager'
p639
S'enthought.mayavi.preference_manager'
p640
tI-1
tp641
asg12
g639
sg13
(dp642
g15
Nsg16
g39
sg18
I1
ssg16
g19
sg18
I533
sg20
g640
sg15
(dp643
g15
(dp644
S'engine'
p645
(dp646
g15
Nsg16
g39
sg18
I0
ssS'preferences'
p647
(dp648
g2
(lp649
((g4
g5
tI-1
tp650
a((S'Preferences'
p651
S'enthought.envisage.core.preferences'
p652
tI-1
tp653
asg12
g651
sg13
(dp654
g15
Nsg16
g39
sg18
I1
ssg16
g19
sg18
I535
sg20
g652
sg15
(dp655
g15
(dp656
S'user'
p657
(dp658
g15
(dp659
sg16
g154
sg18
I537
ssS'defaults'
p660
(dp661
g15
(dp662
S'confirm_delete'
p663
I01
ssg16
g154
sg18
I538
sssg16
g154
sg18
I536
ssssg16
g154
sg18
I534
sssS'scenes'
p664
(dp665
g15
(lp666
(dp667
g2
(lp668
((g4
g5
tI-1
tp669
a((g27
g5
tI-1
tp670
a((g29
g30
tI-1
tp671
a((g32
g33
tI0
tp672
a((S'Scene'
p673
S'enthought.mayavi.core.scene'
p674
tI0
tp675
asg12
g673
sg13
(dp676
g15
Nsg16
g39
sg18
I1
ssg16
g19
sg18
I82
sg20
g674
sg15
(dp677
g15
(dp678
g155
S''
sS'scene'
p679
(dp680
g2
(lp681
((g4
g5
tI-1
tp682
a((g27
g5
tI-1
tp683
a((S'Widget'
p684
S'enthought.pyface.widget'
p685
tI-1
tp686
a((g673
S'enthought.pyface.tvtk.scene'
p687
tI0
tp688
a((S'DecoratedScene'
p689
S'enthought.pyface.tvtk.decorated_scene'
p690
tI0
tp691
asg12
g689
sg13
(dp692
g15
Nsg16
g39
sg18
I1
ssg16
g19
sg18
I84
sg20
g690
sg15
(dp693
g15
(dp694
S'picker'
p695
(dp696
g2
(lp697
((g4
g5
tI-1
tp698
a((S'Picker'
p699
S'enthought.pyface.tvtk.picker'
p700
tI0
tp701
asg12
g699
sg13
(dp702
g15
Nsg16
g39
sg18
I1
ssg16
g19
sg18
I86
sg20
g700
sg15
(dp703
g15
(dp704
S'p_mapper'
p705
(dp706
g2
(lp707
((g4
g5
tI-1
tp708
a((g7
g5
tI-1
tp709
a((g89
g90
tI-1
tp710
a((g92
g93
tI-1
tp711
a((g95
g96
tI-1
tp712
a((g98
g99
tI-1
tp713
a((g101
g102
tI-1
tp714
a((g104
g105
tI-1
tp715
a((g107
g108
tI-1
tp716
a((g110
g111
tI-1
tp717
asg12
g110
sg13
(dp718
g15
Nsg16
g39
sg18
I11
ssg16
g19
sg18
I88
sg20
g111
sg15
(dp719
g15
(dp720
g117
I0
sg118
I0
sg119
g120
sg121
I0
sg122
I0
sg123
F0.01
sg124
I0
sg125
g120
sg126
I0
sg127
I0
sg128
I0
sg129
I0
sg130
I0
sg131
I0
sg132
F0
sg133
(dp721
g15
S'H4sIAH7Wm0YC/53OsQrCMBQF0P3+SLIY0lbBQXDOksGsgjRpCoJNQ/oC5u99VL/A4Q6Pe7i8kOqS\nmwpriWqpL3qOpYwNjxLDmjYqNRByBxl2hzR9+9xDGg1ywgvQLQ98sjI96CcnajkiHyGdmM8CrFkw\nPTEb4MRFwFprDh328Jg3WnNxf2v9X2Z95W+8+gDYoI1C1QAAAA==\n'
p722
sg16
g136
sg18
I90
ssg137
I0
sg138
I0
sg139
I0
sg140
I1
sg141
I0
sg142
I1
sg143
I0
sg144
I0
sg145
I0
sg146
I1
sg147
g120
sg148
I0
sg149
I0
sg150
I1
sg151
g152
sg153
F0
ssg16
g154
sg18
I89
sssS'worldpicker'
p723
(dp724
g2
(lp725
((g4
g5
tI-1
tp726
a((g7
g5
tI-1
tp727
a((g89
g90
tI-1
tp728
a((g92
g93
tI-1
tp729
a((g95
g96
tI-1
tp730
a((S'AbstractPicker'
p731
S'tvtk_classes.abstract_picker'
p732
tI-1
tp733
a((S'WorldPointPicker'
p734
S'tvtk_classes.world_point_picker'
p735
tI-1
tp736
asg12
g734
sg13
(dp737
g15
Nsg16
g39
sg18
I11
ssg16
g19
sg18
I91
sg20
g735
sg15
(dp738
g15
(dp739
g127
I0
sg138
I0
sS'pick_from_list_'
p740
I0
sg122
I0
sS'pick_from_list'
p741
I0
ssg16
g154
sg18
I92
sssS'probe_data'
p742
(dp743
g2
(lp744
((g4
g5
tI-1
tp745
a((g7
g5
tI-1
tp746
a((g89
g90
tI-1
tp747
a((g92
g93
tI-1
tp748
a((g95
g96
tI-1
tp749
a((S'DataObject'
p750
S'tvtk_classes.data_object'
p751
tI-1
tp752
a((S'DataSet'
p753
S'tvtk_classes.data_set'
p754
tI-1
tp755
a((S'PointSet'
p756
S'tvtk_classes.point_set'
p757
tI-1
tp758
a((S'PolyData'
p759
S'tvtk_classes.poly_data'
p760
tI-1
tp761
asg12
g759
sg13
(dp762
g15
Nsg16
g39
sg18
I11
ssg16
g19
sg18
I93
sg20
g760
sg15
(dp763
g15
(dp764
S'update_piece'
p765
I0
sS'whole_extent'
p766
(dp767
g15
S'H4sIAH7Wm0YC/6XOsQrCMBQF0P3+SLIYUlud/IEsGcwqSJOmULBpSF/B/L2P6tLZ4Q6Pe7i8kLY5\nVxWWEtW8vWjqS+krniWGJa1UtkDIDWTYHdLw7fMZ0miQE16A7rnlk5W5gn5yoJojcgfpxNQJsGbB\n9MKshRM3AWutOTXYw2PeaM3F4631MeN4zH89P+zVB24aZ/74AAAA\n'
p768
sg16
g136
sg18
I95
ssS'update_number_of_pieces'
p769
I1
sg127
I0
sS'update_ghost_level'
p770
I0
sS'global_release_data_flag_'
p771
I0
sg122
I0
sS'update_extent'
p772
(dp773
g15
S'H4sIAH7Wm0YC/6XOsQrCMBQF0P3+SLIYUlud/IEsGcwqSJOmULBpSF/B/L2P6tLZ4Q6Pe7i8kLY5\nVxWWEtW8vWjqS+krniWGJa1UtkDIDWTYHdLw7fMZ0miQE16A7rnlk5W5gn5yoJojcgfpxNQJsGbB\n9MKshRM3AWutOTXYw2PeaM3F4631MeN4zH89P+zVB24aZ/74AAAA\n'
p774
sg16
g136
sg18
I96
ssS'request_exact_extent_'
p775
I0
sg138
I0
sg131
I0
sS'global_release_data_flag'
p776
I0
sg148
I0
sS'maximum_number_of_pieces'
p777
I-1
sS'request_exact_extent'
p778
I0
ssg16
g154
sg18
I94
sssS'cellpicker'
p779
(dp780
g2
(lp781
((g4
g5
tI-1
tp782
a((g7
g5
tI-1
tp783
a((g89
g90
tI-1
tp784
a((g92
g93
tI-1
tp785
a((g95
g96
tI-1
tp786
a((g731
g732
tI-1
tp787
a((S'AbstractPropPicker'
p788
S'tvtk_classes.abstract_prop_picker'
p789
tI-1
tp790
a((g699
S'tvtk_classes.picker'
p791
tI-1
tp792
a((S'CellPicker'
p793
S'tvtk_classes.cell_picker'
p794
tI-1
tp795
asg12
g793
sg13
(dp796
g15
Nsg16
g39
sg18
I11
ssg16
g19
sg18
I97
sg20
g794
sg15
(dp797
g15
(dp798
g122
I0
sg741
I0
sg138
I0
sg740
I0
sg127
I0
sS'tolerance'
p799
F0.025000000000000001
ssg16
g154
sg18
I98
sssS'p_actor'
p800
(dp801
g2
(lp802
((g4
g5
tI-1
tp803
a((g7
g5
tI-1
tp804
a((g89
g90
tI-1
tp805
a((g92
g93
tI-1
tp806
a((g95
g96
tI-1
tp807
a((g209
g210
tI-1
tp808
a((g212
g213
tI-1
tp809
a((g78
g215
tI-1
tp810
asg12
g78
sg13
(dp811
g15
Nsg16
g39
sg18
I11
ssg16
g19
sg18
I99
sg20
g215
sg15
(dp812
g15
(dp813
g220
(dp814
g15
S'H4sIAH7Wm0YC/7XOMQoCMRAF0P5fJGkMWVfBwguk2cK0gmyyEQQ3O8QJmNs7RK9g8YvhPz4Tc12p\nmbiVZNb65MdcytxwKylu+cWlRgYN0LE75OXb0x7aWbBXQYEvNMopyo3gn1y4UQIdoL26nxREixB6\n7Myrs8I0TW43oEfGgrNWiuvb2n9GHg7mAy0aBDD4AAAA\n'
p815
sg16
g136
sg18
I101
ssg223
(dp816
g15
S'H4sIAH7Wm0YC/53OMQvCMBAF4P39kWQxpFbBQXDOksGsgjRpCoJtQ3oB8+89oqOTwxuO9/G4sJQ5\nVRXWHNVcnvQYch4q7jmGddkol0BIHWRoDsv46dMe0miQE16Arqnnk5XpQV85Uk0R6QDpxHQSYM2C\n6bExJ84C1lqz69DCY95ozcXtpfXvTPryf8l/evUGx/o6Le8AAAA=\n'
p817
sg16
g136
sg18
I103
ssg226
(dp818
g15
S'H4sIAH7Wm0YC/53OsQoCMRAE0H5+JGkMOU/hCn8gTQrTCnLJRRC8XIgbMH/vEu0FiymWeQwbUl1z\nU2ErUa31Qfe5lLnhWmLY0pNKDYQ8QIbukJZPn/eQRoOc8AJ0ziOfrMwI+sqFWo7IB0gnbpMAaxZM\nj505cRKw1prdgB4e80ZrLi4vrf/P9NPww169AaZN3yn4AAAA\n'
p819
sg16
g136
sg18
I102
ssg127
I0
sg229
I1
sg230
I0
sg231
I0
sg232
I1
sg138
I0
sg122
I0
sg233
I0
sg234
(dp820
g15
S'H4sIAH7Wm0YC/7XOMQoCMRAF0P5fJGkMWVfBwguk2cK0gmyyEQQ3O8QJmNs7RK9g8YvhPz4Tc12p\nmbiVZNb65MdcytxwKylu+cWlRgYN0LE75OXb0x7aWbBXQYEvNMopyo3gn1y4UQIdoL26nxREixB6\n7Myrs8I0TW43oEfGgrNWiuvb2n9GHg7mAy0aBDD4AAAA\n'
p821
sg16
g136
sg18
I104
ssg237
I0
ssg16
g154
sg18
I100
sssS'p_source'
p822
(dp823
g2
(lp824
((g4
g5
tI-1
tp825
a((g7
g5
tI-1
tp826
a((g89
g90
tI-1
tp827
a((g92
g93
tI-1
tp828
a((g95
g96
tI-1
tp829
a((g98
g99
tI-1
tp830
a((g262
g263
tI-1
tp831
a((S'Axes'
p832
S'tvtk_classes.axes'
p833
tI-1
tp834
asg12
g832
sg13
(dp835
g15
Nsg16
g39
sg18
I11
ssg16
g19
sg18
I105
sg20
g833
sg15
(dp836
g15
(dp837
g220
(dp838
g15
S'H4sIAH7Wm0YC/7XOMQoCMRAF0P5fJGkMWVfBwguk2cK0gmyyEQQ3O8QJmNs7RK9g8YvhPz4Tc12p\nmbiVZNb65MdcytxwKylu+cWlRgYN0LE75OXb0x7aWbBXQYEvNMopyo3gn1y4UQIdoL26nxREixB6\n7Myrs8I0TW43oEfGgrNWiuvb2n9GHg7mAy0aBDD4AAAA\n'
p839
sg16
g136
sg18
I107
ssS'scale_factor'
p840
F1
sg324
I1
sg141
I0
sg66
I1
sg127
I0
sS'symmetric'
p841
I1
sg138
I0
sg130
I0
sg122
I0
sg131
I0
sg148
I0
sg132
F0
sS'symmetric_'
p842
I1
ssg16
g154
sg18
I106
sssS'pick_type'
p843
S'point_picker'
p844
sg799
F0.025000000000000001
sS'pointpicker'
p845
(dp846
g2
(lp847
((g4
g5
tI-1
tp848
a((g7
g5
tI-1
tp849
a((g89
g90
tI-1
tp850
a((g92
g93
tI-1
tp851
a((g95
g96
tI-1
tp852
a((g731
g732
tI-1
tp853
a((g788
g789
tI-1
tp854
a((g699
g791
tI-1
tp855
a((S'PointPicker'
p856
S'tvtk_classes.point_picker'
p857
tI-1
tp858
asg12
g856
sg13
(dp859
g15
Nsg16
g39
sg18
I11
ssg16
g19
sg18
I108
sg20
g857
sg15
(dp860
g15
(dp861
g122
I0
sg741
I0
sg138
I0
sg740
I0
sg127
I0
sg799
F0.025000000000000001
ssg16
g154
sg18
I109
ssssg16
g154
sg18
I87
sssS'foreground'
p862
(dp863
g15
Nsg16
g39
sg18
I22
ssS'stereo'
p864
I00
sS'_renderer'
p865
(dp866
g2
(lp867
((g4
g5
tI-1
tp868
a((g7
g5
tI-1
tp869
a((g89
g90
tI-1
tp870
a((g92
g93
tI-1
tp871
a((g95
g96
tI-1
tp872
a((S'Viewport'
p873
S'tvtk_classes.viewport'
p874
tI-1
tp875
a((S'Renderer'
p876
S'tvtk_classes.renderer'
p877
tI-1
tp878
asg12
g876
sg13
(dp879
g15
Nsg16
g39
sg18
I11
ssg16
g19
sg18
I132
sg20
g877
sg15
(dp880
g15
(dp881
S'layer'
p882
I0
sS'pixel_aspect'
p883
(dp884
g15
S'H4sIAH/Wm0YC/33OMQvCMBAF4P39kWQxpK2Cg+CcJYNZBWnSFASbhngB8+89qqM4vOF4H48LqS65\nqbCWqJb6oPtYythwKzGs6UmlBkLuIMPmkKZPn3tIo0FOeAG65IFPVqYHfeVELUfkPaQT81GANQum\nB2YDnDgJWGvNrsMWHvNGay6uL61/Z9bnvyW/4tUbw9sFJ9IAAAA=\n'
p885
sg16
g136
sg18
I134
ssS'two_sided_lighting_'
p886
I1
sS'view_point'
p887
(dp888
g15
S'H4sIAH/Wm0YC/y3OywqDMBAF0P38SNxUEh/VQsFVF9mEUrcDJQ+FQtWQRoh/36l2MdwM9xDGzuvk\nt9wuYcin9R1fOgS9wTMMdpk/Maw2gheQ2d3B7I7eF5BJDrFnhkF8+JJWUrKE+Jcubn4AX0HWs7Fl\nQJoE0XpnPbsyUErJk4B96DMjOacC09hiajmNxnSxmHRdYRK6w+QKRa8zVeJI4e7djaImOf5WSoPJ\nNpiGpqPbTP4Fm+U6KuMAAAA=\n'
p889
sg16
g136
sg18
I135
ssS'interactive_'
p890
I1
sS'erase'
p891
I1
sS'aspect'
p892
(dp893
g15
S'H4sIAH/Wm0YC/23OPwuDMBCH4f33ReJSiX8KDgXnLBnqGih6GihUDekJybfvYTt2eIfjHo6j7VhD\nLmmPS7keL36OMY4Zj7jQvr05HsQIFQo6Hbb5uw81CqPBg5oU+B4aGUWZGvyTM+ewILQoBuU7BdEi\nhF6FNRjUTcFaay4VzuTYZLSWhUtV51I3St4l0tklT1Lbu6T1/7zu5Y+p/ACYST9lzwAAAA==\n'
p894
sg16
g136
sg18
I136
ssg180
(dp895
g15
S'H4sIAH/Wm0YC/53OMQvCMBAF4P39kWQxpFbBQXDOksGsgjRpCoJtQ3oB8+89oqOTwxuO9/G4sJQ5\nVRXWHNVcnvQYch4q7jmGddkol0BIHWRoDsv46dMe0miQE16Arqnnk5XpQV85Uk0R6QDpxHQSYM2C\n6bExJ84C1lqz69DCY95ozcXtpfXvTPryf8l/evUGx/o6Le8AAAA=\n'
p896
sg16
g136
sg18
I137
ssS'erase_'
p897
I1
sg127
I0
sS'near_clipping_plane_tolerance'
p898
F0.001
sS'world_point'
p899
(dp900
g15
S'H4sIAH/Wm0YC/22OsQqDMBRF9/cjcakkaq2C0K6h6FCHLoGSxAilVUMaIf59X7XdOtzh3nN4PD3O\ng11iPTkTD/PT36VzcoGbM3oaX97N2oNlEOnVg7HbuE0g4hR8SxQBf7EpVrR4Bv5rdn6xBmwGUUv6\nggDaaKC6Ry2FllQEmqbhOwZr8JjilCIQgeW1CCU7pyJ0coumV9x7EWSJ6IBEURFM/iEYhj2pHyLQ\n31qctvIvPT3i1yp+A9L37ZL9AAAA\n'
p901
sg16
g136
sg18
I138
ssS'two_sided_lighting'
p902
I1
sS'allocated_render_time'
p903
F5000
sg138
I0
sS'background'
p904
(dp905
g15
Nsg16
g39
sg18
I110
ssS'viewport'
p906
(dp907
g15
S'H4sIAH/Wm0YC/7XPMQvCMBAF4P39kWQxpLaCg+CcJYNZBWnSFASbhngB8+89qrObwxuO9/HgQqpL\nbiqsJaqlPug+ljI23EoMa3pSqYGQO8iwOaTp0+c9pNEgJ7wAXXLPJyszgL5yopYj8gDpxHwUYM2C\n6YFZDydOAtZas+uwhce80ZqL60vr/2TW558lv+LVG7bqK1ESAQAA\n'
p908
sg16
g136
sg18
I140
ssS'display_point'
p909
(dp910
g15
S'H4sIAH/Wm0YC/y2MwQqDMBBE7/sZXuKlEquihUK9lJKLh+ZUCLS6iVBaNaQJxL/vYnsYhp15OziH\nya4ZLs5kU3j7Z+9cv8LdGVzmj3cBPdgcUtw4mPWvt3tIBQcv2cDAX21BJ1GiAP8ntV+tAVtCKtnY\nMCCaCEKrDZPsyKDrOrHLYRONDYJzkImKulZxbFRsqsvrQcZbFQ8lCdlNUGVie1YxrygZyTX5oCLS\nl6lPCQ1lX0OZUrXXAAAA\n'
p911
sg16
g136
sg18
I139
ssS'automatic_light_creation_'
p912
I1
sS'backing_store_'
p913
I0
sg122
I0
sS'backing_store'
p914
I0
sS'light_follow_camera'
p915
I1
sS'automatic_light_creation'
p916
I1
sS'light_follow_camera_'
p917
I1
sS'interactive'
p918
I1
ssg16
g154
sg18
I133
sssS'anti_aliasing_frames'
p919
I8
sS'disable_render'
p920
I00
sS'parallel_projection'
p921
I00
sS'axes'
p922
(dp923
g2
(lp924
((g4
g5
tI-1
tp925
a((g7
g5
tI-1
tp926
a((g89
g90
tI-1
tp927
a((g92
g93
tI-1
tp928
a((g95
g96
tI-1
tp929
a((g209
g210
tI-1
tp930
a((g212
g213
tI-1
tp931
a((S'AxesActor'
p932
S'tvtk_classes.axes_actor'
p933
tI-1
tp934
asg12
g932
sg13
(dp935
g15
Nsg16
g39
sg18
I11
ssg16
g19
sg18
I113
sg20
g933
sg15
(dp936
g15
(dp937
g220
(dp938
g15
S'H4sIAH/Wm0YC/7XOMQoCMRAF0P5fJGkMWVfBwguk2cK0gmyyEQQ3O8QJmNs7RK9g8YvhPz4Tc12p\nmbiVZNb65MdcytxwKylu+cWlRgYN0LE75OXb0x7aWbBXQYEvNMopyo3gn1y4UQIdoL26nxREixB6\n7Myrs8I0TW43oEfGgrNWiuvb2n9GHg7mAy0aBDD4AAAA\n'
p939
sg16
g136
sg18
I115
ssg226
(dp940
g15
S'H4sIAH/Wm0YC/53OsQoCMRAE0H5+JGkMOU/hCn8gTQrTCnLJRRC8XIgbMH/vEu0FiymWeQwbUl1z\nU2ErUa31Qfe5lLnhWmLY0pNKDYQ8QIbukJZPn/eQRoOc8AJ0ziOfrMwI+sqFWo7IB0gnbpMAaxZM\nj505cRKw1prdgB4e80ZrLi4vrf/P9NPww169AaZN3yn4AAAA\n'
p941
sg16
g136
sg18
I116
ssS'normalized_tip_length'
p942
(dp943
g15
S'H4sIAH/Wm0YC/53OMQvCMBAF4P39ketiaK2CBcE5SwazCpImFQTbHvEC9t97VDc3hzcc7+NxcSoj\nLybOeTBjecg95BwWXPMQ5+kpuUQBN6ji6jClT89bVLaGeOoJcuZWT1W2hXxlkoUH8A6Vp9uBoFqF\n0v3KPB0Jzjm7abBGx3pb11pcXl3QdL9J3en/Uv/szRs+d+FG7wAAAA==\n'
p944
sg16
g136
sg18
I117
ssg229
I1
sg231
I1
sS'sphere_resolution'
p945
I16
sg233
I1
sg122
I0
sg223
(dp946
g15
S'H4sIAH/Wm0YC/53OMQvCMBAF4P39kWQxpFbBQXDOksGsgjRpCoJtQ3oB8+89oqOTwxuO9/G4sJQ5\nVRXWHNVcnvQYch4q7jmGddkol0BIHWRoDsv46dMe0miQE16Arqnnk5XpQV85Uk0R6QDpxHQSYM2C\n6bExJ84C1lqz69DCY95ozcXtpfXvTPryf8l/evUGx/o6Le8AAAA=\n'
p947
sg16
g136
sg18
I118
ssS'cylinder_radius'
p948
F0.050000000000000003
sS'cone_resolution'
p949
I16
sS'cylinder_resolution'
p950
I16
sS'axis_labels'
p951
I1
sS'total_length'
p952
(dp953
g15
S'H4sIAH/Wm0YC/53OMQvCMBAF4P39kWQxpFbBQXDOksGsgjRpCoJtQ3oB8+89oqOTwxuO9/G4sJQ5\nVRXWHNVcnvQYch4q7jmGddkol0BIHWRoDsv46dMe0miQE16Arqnnk5XpQV85Uk0R6QDpxHQSYM2C\n6bExJ84C1lqz69DCY95ozcXtpfXvTPryf8l/evUGx/o6Le8AAAA=\n'
p954
sg16
g136
sg18
I119
ssg237
I1
sS'tip_type'
p955
S'cone'
p956
sS'x_axis_label_text'
p957
S'X'
sS'cone_radius'
p958
F0.40000000000000002
sS'z_axis_label_text'
p959
S'Z'
sg230
I1
sg232
I1
sg138
I0
sS'axis_labels_'
p960
I1
sS'y_axis_label_text'
p961
S'Y'
sS'shaft_type_'
p962
I0
sS'sphere_radius'
p963
F0.5
sS'normalized_shaft_length'
p964
(dp965
g15
S'H4sIAH/Wm0YC/23NsQoCMQwG4P1/kXax9KyCg+DcpYNdBbn2KgjeXemlYN/eUB0NBBL+jyQudc5N\nxbUkNdcXPcdSxoZ7SXFdNio1EvIAGbvDMn3zvIe0GuRFEKBrNryysgb0kxO1nJAPkF48TgKsWTA9\ndubFWcA5Z3cDevOxYLXmwPS6vZO5/B/5Y1Afbh8AYbkAAAA=\n'
p966
sg16
g136
sg18
I120
ssS'shaft_type'
p967
S'cylinder'
p968
sS'normalized_label_position'
p969
(dp970
g15
S'H4sIAH/Wm0YC/53OMQvCMBAF4P39kWQxpFbBQXDOksGsgjRpCoJtQ3oB8+89oqOTwxuO9/G4sJQ5\nVRXWHNVcnvQYch4q7jmGddkol0BIHWRoDsv46dMe0miQE16Arqnnk5XpQV85Uk0R6QDpxHQSYM2C\n6bExJ84C1lqz69DCY95ozcXtpfXvTPryf8l/evUGx/o6Le8AAAA=\n'
p971
sg16
g136
sg18
I121
ssg127
I0
sg234
(dp972
g15
S'H4sIAH/Wm0YC/7XOMQoCMRAF0P5fJGkMWVfBwguk2cK0gmyyEQQ3O8QJmNs7RK9g8YvhPz4Tc12p\nmbiVZNb65MdcytxwKylu+cWlRgYN0LE75OXb0x7aWbBXQYEvNMopyo3gn1y4UQIdoL26nxREixB6\n7Myrs8I0TW43oEfGgrNWiuvb2n9GHg7mAy0aBDD4AAAA\n'
p973
sg16
g136
sg18
I122
sssg16
g154
sg18
I114
sssS'point_smoothing'
p974
I00
sS'line_smoothing'
p975
I00
sS'show_axes'
p976
I00
sS'magnification'
p977
I1
sS'camera'
p978
(dp979
g2
(lp980
((g4
g5
tI-1
tp981
a((g7
g5
tI-1
tp982
a((g89
g90
tI-1
tp983
a((g92
g93
tI-1
tp984
a((g95
g96
tI-1
tp985
a((S'Camera'
p986
S'tvtk_classes.camera'
p987
tI-1
tp988
a((S'OpenGLCamera'
p989
S'tvtk_classes.open_gl_camera'
p990
tI-1
tp991
asg12
g989
sg13
(dp992
g15
Nsg16
g39
sg18
I11
ssg16
g19
sg18
I123
sg20
g990
sg15
(dp993
g15
(dp994
S'distance'
p995
F74793.646175785078
sS'view_plane_normal'
p996
(dp997
g15
S'H4sIAH/Wm0YC/y2OzQqDMBCE7/seJV4qidaiUPCci4XmGijmRyitGtKVxrfvansYdmfmY1k7LWNY\ncztHn4/LCx99jP0K9+jtPL0xLhYhCMjszsHkfn0oIJMcUDHDAG+hJEuULAH/pMM1eAgnyBQbagZE\nE0FotWOKXRh0XSePAnbRMSM5p+KqU+NIhU6G69SXUScvyAyi/dBo6icF9RaQKp2s0HHLD7S7c0sP\nmfwLm7iOXNgAAAA=\n'
p998
sg16
g136
sg18
I125
ssS'window_center'
p999
(dp1000
g15
S'H4sIAH/Wm0YC/6XOQQrCMBAF0P2/yGRjSFsFF14gmy7MVpAmjSDYNKQTMLd3qN7AxV8M//GZkOqS\nmw5riXqpL35OpUwN9xLDmjYuNTByBxV2hzR/+9xDWQN25Al8zYOcomwP/smZW47IRyhHjzNBtAih\nJ2EDHF0I4zjaQ4c9MuatMVLc3sb8E3nI6w+QLErH2AAAAA==\n'
p1001
sg16
g136
sg18
I126
ssS'parallel_projection_'
p1002
I0
sg234
(dp1003
g15
S'H4sIAH/Wm0YC/y3OPQvCMBAG4P1+hku6WNIPSwVB14B0sGtAkjQFwaYxppD+e1+rw10u9z6EGLdM\nfs3NHGw+Lc/4UCGole7Bmtm9Y1hMJF9QZjZHbvjlvqRMcIo904zizVe4QomK4l8OcfWWfE1Zz8aW\nETQE6GFjPTsx6rpO7AvaCo9pwTkCmdpSpmOzk4lXGJRMQ4vCabhMupauhmkwHmVSo0y2+UZXNHt+\ngVrsTHvBz3T+AUIpWXXhAAAA\n'
p1004
sg16
g136
sg18
I131
ssS'parallel_scale'
p1005
F20784.609690826528
sS'thickness'
p1006
F91156.742355382929
sS'view_up'
p1007
(dp1008
g15
S'H4sIAH/Wm0YC/y2MOwvDMAyEd/2MLM7SYOcBKRQye8lQr4I2fhRK8zCuA86/r5J0OEmn+zgzr5Pf\nCrMEV0zrGN9DCMMGj+DMMn9jWE0ELyA3BwezPXNfQi45RMU0g3j3FVmiZAXxT9q4eQe+hlyxV8uA\naCIIbQ5MsRuDvu/lRcAhKtOSc1AZpoFjsjX7YDIOk25o624fZPaHpVuQWkOc6J6ImNoS07U+Q06h\nc11GlcUPXbpSquEAAAA=\n'
p1009
sg16
g136
sg18
I127
ssS'use_horizontal_view_angle'
p1010
I0
sS'eye_angle'
p1011
F2
sS'focal_disk'
p1012
F1
sg138
I0
sS'clipping_range'
p1013
(dp1014
g15
S'H4sIAH/Wm0YC/y3NwQqDMAwG4Pv/FLvVy6TVOTbYwGsvHua1MNpaYTC1dBHq2y+4HRIS/o/Ez+sU\nt9IvKZTT+qaXTclueKbgl/lDafWEqFD43WEefnmsUGgJ6oUToEeseWWlK9BfDrTFgHhC0YvxIsCa\nBdOGWY1e3AS6rtNHhb34mNNScmCy9ePB5Isz+dqYPNQmB9marNSduz3zxGU5HkPL7135BVR90OzG\nAAAA\n'
p1015
sg16
g136
sg18
I130
ssg122
I0
sS'view_shear'
p1016
(dp1017
g15
S'H4sIAH/Wm0YC/7XOsQoCMRAE0H5+JGkMOU/BQrBOk8K0glxyORC8XIgbMH/vEv0FiymWeQwbUl1z\nU2ErUa31SY+plKnhXmLY0otKDYQ8QIbukOZvn/eQRoOc8AJ0zSOfrMwI+smZWo7IB0gnlpMAaxZM\nj505cRaw1prdgB4e80ZrLm5vrf+TRV/4W68+7xE3gfUAAAA=\n'
p1018
sg16
g136
sg18
I128
ssg127
I0
sS'view_angle'
p1019
F30
sS'focal_point'
p1020
(dp1021
g15
S'H4sIAH/Wm0YC/y3OTQvCMAwG4Ht+h9BdHO0+oILgDoL0soMDQSjIWjcQ3FZqJ92/93V6CCR5H0Ls\nOA9uSe3ku3SYn+HRet8udPOdncZX8LMN5AQldnU03n+5yyhRnELDDKNwdjlGKJVT+Mt7WFxHrqCk\nYb1kBA0BWq6sYXtGdV2rraC1cMwozhG8dTRycxU69qWOdlehwcDlUUeZc6Qt1kV1MtnlgE58EYrj\nE5N+AJAOkTzRAAAA\n'
p1022
sg16
g136
sg18
I129
ssg921
I0
sS'use_horizontal_view_angle_'
p1023
I0
ssg16
g154
sg18
I124
sssS'jpeg_quality'
p1024
I95
sg904
(dp1025
g15
(F0.10000000000000001
F0.20000000000000001
F0.40000000000000002
tp1026
sg16
g17
sg18
I110
ssS'marker'
p1027
(dp1028
g2
(lp1029
((g4
g5
tI-1
tp1030
a((g7
g5
tI-1
tp1031
a((g89
g90
tI-1
tp1032
a((g92
g93
tI-1
tp1033
a((g95
g96
tI-1
tp1034
a((g475
g476
tI-1
tp1035
a((S'OrientationMarkerWidget'
p1036
S'tvtk_classes.orientation_marker_widget'
p1037
tI-1
tp1038
asg12
g1036
sg13
(dp1039
g15
Nsg16
g39
sg18
I11
ssg16
g19
sg18
I111
sg20
g1037
sg15
(dp1040
g15
(dp1041
g484
S'i'
sg485
I0
sg122
I0
sg890
I1
sg486
F0.55000001192092896
sg138
I0
sg487
I0
sg488
I0
sg127
I0
sg489
I0
sg918
I1
ssg16
g154
sg18
I112
sssS'off_screen_rendering'
p1042
I00
sS'polygon_smoothing'
p1043
I00
sS'light_manager'
p1044
(dp1045
g2
(lp1046
((g4
g5
tI-1
tp1047
a((S'LightManager'
p1048
S'enthought.pyface.tvtk.light_manager'
p1049
tI0
tp1050
asg12
g1048
sg13
(dp1051
g15
Nsg16
g39
sg18
I1
ssg16
g19
sg18
I141
sg20
g1049
sg15
(dp1052
g15
(dp1053
S'light_mode'
p1054
S'raymond'
p1055
sS'lights'
p1056
(dp1057
g15
(lp1058
(dp1059
g2
(lp1060
((g4
g5
tI-1
tp1061
a((S'CameraLight'
p1062
g1049
tI0
tp1063
asg12
g1062
sg13
(dp1064
g15
Nsg16
g39
sg18
I1
ssg16
g19
sg18
I144
sg20
g1049
sg15
(dp1065
g15
(dp1066
S'activate'
p1067
I01
sS'elevation'
p1068
F45
sg441
(dp1069
g15
Nsg16
g39
sg18
I22
ssS'source'
p1070
(dp1071
g2
(lp1072
((g4
g5
tI-1
tp1073
a((g7
g5
tI-1
tp1074
a((g89
g90
tI-1
tp1075
a((g92
g93
tI-1
tp1076
a((g95
g96
tI-1
tp1077
a((S'Light'
p1078
S'tvtk_classes.light'
p1079
tI-1
tp1080
asg12
g1078
sg13
(dp1081
g15
Nsg16
g39
sg18
I11
ssg16
g19
sg18
I146
sg20
g1079
sg15
(dp1082
g15
(dp1083
g191
(dp1084
g15
Nsg16
g39
sg18
I22
ssS'attenuation_values'
p1085
(dp1086
g15
S'H4sIAH/Wm0YC/43OMQvCMBAF4P39kWQxpFbBQXDOksGsgjRpCoJtQ7yA+fce0VHB4Q3H+3hcWMqc\nqgprjmoud7oNOQ8V1xzDujwol0BIHWRoDsv47tMW0miQE16Azqnnk5XpQR85Uk0RaQfpxHQQYM2C\n6b4xJ44C1lqz6dDCY95ozcXlqfX3TPr0u/wv/K1XLxMFpQX1AAAA\n'
p1087
sg16
g136
sg18
I151
ssS'switch_'
p1088
I1
sS'exponent'
p1089
F1
sS'switch'
p1090
I1
sg173
(dp1091
g15
Nsg16
g39
sg18
I22
ssg188
(dp1092
g15
(F0
F0
F0
tp1093
sg16
g17
sg18
I148
ssg122
I0
sS'light_type_'
p1094
I2
sS'positional'
p1095
I0
sg138
I0
sS'intensity'
p1096
F1
sS'light_type'
p1097
S'camera_light'
p1098
sg127
I0
sg234
(dp1099
g15
S'H4sIAH/Wm0YC/23OuwrDMAwF0F0/4iwNStMnLWT2kqFeDSXxAwp5GFcB+++rpt3a4Q7SPQiZaRlD\nLs0cXTkuAz26GLsM9+jMPD0pLoYgVFCY1cFkP33YQiERSIleAN1CzSMrWQN9paUcHIQdFEr4kwDW\nLJjuV6bEVUDbtnJTwRo+1ktELnTyjuN/Y32jk7EXnY7v8cysQ53cgdeI/+Ow4Q/78gVJEEmE6QAA\nAA==\n'
p1100
sg16
g136
sg18
I149
ssS'positional_'
p1101
I0
sS'cone_angle'
p1102
F30
sg1020
(dp1103
g15
S'H4sIAH/Wm0YC/7XOMQoCMRAF0P5fJGkMWVfBwguk2cK0gmyyEQQ3O8QJmNs7RK9g8YvhPz4Tc12p\nmbiVZNb65MdcytxwKylu+cWlRgYN0LE75OXb0x7aWbBXQYEvNMopyo3gn1y4UQIdoL26nxREixB6\n7Myrs8I0TW43oEfGgrNWiuvb2n9GHg7mAy0aBDD4AAAA\n'
p1104
sg16
g136
sg18
I150
sssg16
g154
sg18
I147
sssg1096
F1
sS'azimuth'
p1105
F45
sS'glyph'
p1106
(dp1107
g2
(lp1108
((g4
g5
tI-1
tp1109
a((S'LightGlyph'
p1110
g1049
tI0
tp1111
asg12
g1110
sg13
(dp1112
g15
Nsg16
g39
sg18
I1
ssg16
g19
sg18
I152
sg20
g1049
sg15
(dp1113
g15
(dp1114
S'el'
p1115
F45
sS'az'
p1116
F45
sg67
(dp1117
g2
(lp1118
((g4
g5
tI-1
tp1119
a((g7
g5
tI-1
tp1120
a((g89
g90
tI-1
tp1121
a((g92
g93
tI-1
tp1122
a((g95
g96
tI-1
tp1123
a((g209
g210
tI-1
tp1124
a((g212
g213
tI-1
tp1125
a((g78
g215
tI-1
tp1126
a((S'Follower'
p1127
S'tvtk_classes.follower'
p1128
tI-1
tp1129
asg12
g1127
sg13
(dp1130
g15
Nsg16
g39
sg18
I11
ssg16
g19
sg18
I154
sg20
g1128
sg15
(dp1131
g15
(dp1132
g220
(dp1133
g15
S'H4sIAH/Wm0YC/7XOMQoCMRAF0P5fJGkMWVfBwguk2cK0gmyyEQQ3O8QJmNs7RK9g8YvhPz4Tc12p\nmbiVZNb65MdcytxwKylu+cWlRgYN0LE75OXb0x7aWbBXQYEvNMopyo3gn1y4UQIdoL26nxREixB6\n7Myrs8I0TW43oEfGgrNWiuvb2n9GHg7mAy0aBDD4AAAA\n'
p1134
sg16
g136
sg18
I156
ssg223
(dp1135
g15
S'H4sIAH/Wm0YC/53OMQvCMBAF4P39kWQxpFbBQXDOksGsgjRpCoJtQ3oB8+89oqOTwxuO9/G4sJQ5\nVRXWHNVcnvQYch4q7jmGddkol0BIHWRoDsv46dMe0miQE16Arqnnk5XpQV85Uk0R6QDpxHQSYM2C\n6bExJ84C1lqz69DCY95ozcXtpfXvTPryf8l/evUGx/o6Le8AAAA=\n'
p1136
sg16
g136
sg18
I158
ssg226
(dp1137
g15
S'H4sIAH/Wm0YC/12OwQqCQBRF9/dHZjbJmIkFEbYcAhe5HSodjYrUYXrC2Nf3sFYtDtzLPTye7cfO\nTZEdfBt145PulffVhLNv7dC/yI+W4GJIO3vom+/ulpBagUpRC9DRJVzZ0gnoZzY0uRZuBVmK61qA\nbTZYTWetFFuBoij0IsYMH6u1UjyYoBJG/bPLTag4bVIme8vTIb88biasuTcZb/HeBKv4nzr6AK9z\noUrXAAAA\n'
p1138
sg16
g136
sg18
I157
ssg127
I0
sg229
I1
sg230
I1
sg231
I1
sg232
I1
sg138
I0
sg122
I0
sg233
I1
sg234
(dp1139
g15
S'H4sIAH/Wm0YC/7XOMQoCMRAF0P5fJGkMWVfBwguk2cK0gmyyEQQ3O8QJmNs7RK9g8YvhPz4Tc12p\nmbiVZNb65MdcytxwKylu+cWlRgYN0LE75OXb0x7aWbBXQYEvNMopyo3gn1y4UQIdoL26nxREixB6\n7Myrs8I0TW43oEfGgrNWiuvb2n9GHg7mAy0aBDD4AAAA\n'
p1140
sg16
g136
sg18
I159
ssg237
I1
ssg16
g154
sg18
I155
ssssg16
g154
sg18
I153
ssssg16
g154
sg18
I145
ssa(dp1141
g2
(lp1142
((g4
g5
tI-1
tp1143
a((g1062
g1049
tI0
tp1144
asg12
g1062
sg13
(dp1145
g15
Nsg16
g39
sg18
I1
ssg16
g19
sg18
I160
sg20
g1049
sg15
(dp1146
g15
(dp1147
g1067
I01
sg1068
F-30
sg441
(dp1148
g15
Nsg16
g39
sg18
I22
ssg1070
(dp1149
g2
(lp1150
((g4
g5
tI-1
tp1151
a((g7
g5
tI-1
tp1152
a((g89
g90
tI-1
tp1153
a((g92
g93
tI-1
tp1154
a((g95
g96
tI-1
tp1155
a((g1078
g1079
tI-1
tp1156
asg12
g1078
sg13
(dp1157
g15
Nsg16
g39
sg18
I11
ssg16
g19
sg18
I162
sg20
g1079
sg15
(dp1158
g15
(dp1159
g191
(dp1160
g15
Nsg16
g39
sg18
I22
ssg1085
(dp1161
g15
S'H4sIAH/Wm0YC/43OMQvCMBAF4P39kWQxpFbBQXDOksGsgjRpCoJtQ7yA+fce0VHB4Q3H+3hcWMqc\nqgprjmoud7oNOQ8V1xzDujwol0BIHWRoDsv47tMW0miQE16Azqnnk5XpQR85Uk0RaQfpxHQQYM2C\n6b4xJ44C1lqz6dDCY95ozcXlqfX3TPr0u/wv/K1XLxMFpQX1AAAA\n'
p1162
sg16
g136
sg18
I166
ssg1088
I1
sg1089
F1
sg1090
I1
sg173
(dp1163
g15
Nsg16
g39
sg18
I22
ssg188
(dp1164
g15
Nsg16
g39
sg18
I148
ssg122
I0
sg1094
I2
sg1095
I0
sg138
I0
sg1096
F0.59999999999999998
sg1097
g1098
sg127
I0
sg234
(dp1165
g15
S'H4sIAH/Wm0YC/23OvQrCQBAE4H5e5NIYLkYlhWB9IClMYxGQ3B8I5nKcG0h8etfETospdudjWRPG\nPs65GZLL+/FB9y6lbsYtOTOEJ6XREGKBzCwOwa593CJTEtQILUCXWPLISpWgr7Q0R4e4Q9YIXwmw\nZsF0v7BGHAXqulabAkv4mFZSctFOUv6Pq9pJ+3byhuN/Y/3ad/Z8/egXjwde6xM/qfM3a8mLhewA\nAAA=\n'
p1166
sg16
g136
sg18
I164
ssg1101
I0
sg1102
F30
sg1020
(dp1167
g15
S'H4sIAH/Wm0YC/7XOMQoCMRAF0P5fJGkMWVfBwguk2cK0gmyyEQQ3O8QJmNs7RK9g8YvhPz4Tc12p\nmbiVZNb65MdcytxwKylu+cWlRgYN0LE75OXb0x7aWbBXQYEvNMopyo3gn1y4UQIdoL26nxREixB6\n7Myrs8I0TW43oEfGgrNWiuvb2n9GHg7mAy0aBDD4AAAA\n'
p1168
sg16
g136
sg18
I165
sssg16
g154
sg18
I163
sssg1096
F0.59999999999999998
sg1105
F-60
sg1106
(dp1169
g2
(lp1170
((g4
g5
tI-1
tp1171
a((g1110
g1049
tI0
tp1172
asg12
g1110
sg13
(dp1173
g15
Nsg16
g39
sg18
I1
ssg16
g19
sg18
I167
sg20
g1049
sg15
(dp1174
g15
(dp1175
g1115
F-30
sg1116
F-60
sg67
(dp1176
g2
(lp1177
((g4
g5
tI-1
tp1178
a((g7
g5
tI-1
tp1179
a((g89
g90
tI-1
tp1180
a((g92
g93
tI-1
tp1181
a((g95
g96
tI-1
tp1182
a((g209
g210
tI-1
tp1183
a((g212
g213
tI-1
tp1184
a((g78
g215
tI-1
tp1185
a((g1127
g1128
tI-1
tp1186
asg12
g1127
sg13
(dp1187
g15
Nsg16
g39
sg18
I11
ssg16
g19
sg18
I169
sg20
g1128
sg15
(dp1188
g15
(dp1189
g220
(dp1190
g15
S'H4sIAH/Wm0YC/7XOMQoCMRAF0P5fJGkMWVfBwguk2cK0gmyyEQQ3O8QJmNs7RK9g8YvhPz4Tc12p\nmbiVZNb65MdcytxwKylu+cWlRgYN0LE75OXb0x7aWbBXQYEvNMopyo3gn1y4UQIdoL26nxREixB6\n7Myrs8I0TW43oEfGgrNWiuvb2n9GHg7mAy0aBDD4AAAA\n'
p1191
sg16
g136
sg18
I171
ssg223
(dp1192
g15
S'H4sIAH/Wm0YC/53OMQvCMBAF4P39kWQxpFbBQXDOksGsgjRpCoJtQ3oB8+89oqOTwxuO9/G4sJQ5\nVRXWHNVcnvQYch4q7jmGddkol0BIHWRoDsv46dMe0miQE16Arqnnk5XpQV85Uk0R6QDpxHQSYM2C\n6bExJ84C1lqz69DCY95ozcXtpfXvTPryf8l/evUGx/o6Le8AAAA=\n'
p1193
sg16
g136
sg18
I173
ssg226
(dp1194
g15
S'H4sIAH/Wm0YC/y2OQQ6CMBBF93ORskDSCogaL9ANJrJtQtoBjIlAU0tSjId3LC5mkv/fy2RwWka7\nZji7PhuXp39o5/QKretxnl7eLejBCkgwejB1G7d7SCQH3zDDwN9sTpEsmYP/m51fbQ+2gKRhw5EB\n2WSQWkatYRcGdV3LnYA4dMxIzgm0KvAyfX9UGIpUBeQqiI6CSO8qaFTBVNetxnxD+iBoVSqc+PlH\n6CWTfQGCo1dj2gAAAA==\n'
p1195
sg16
g136
sg18
I172
ssg127
I0
sg229
I1
sg230
I1
sg231
I1
sg232
I1
sg138
I0
sg122
I0
sg233
I1
sg234
(dp1196
g15
S'H4sIAH/Wm0YC/7XOMQoCMRAF0P5fJGkMWVfBwguk2cK0gmyyEQQ3O8QJmNs7RK9g8YvhPz4Tc12p\nmbiVZNb65MdcytxwKylu+cWlRgYN0LE75OXb0x7aWbBXQYEvNMopyo3gn1y4UQIdoL26nxREixB6\n7Myrs8I0TW43oEfGgrNWiuvb2n9GHg7mAy0aBDD4AAAA\n'
p1197
sg16
g136
sg18
I174
ssg237
I1
ssg16
g154
sg18
I170
ssssg16
g154
sg18
I168
ssssg16
g154
sg18
I161
ssa(dp1198
g2
(lp1199
((g4
g5
tI-1
tp1200
a((g1062
g1049
tI0
tp1201
asg12
g1062
sg13
(dp1202
g15
Nsg16
g39
sg18
I1
ssg16
g19
sg18
I175
sg20
g1049
sg15
(dp1203
g15
(dp1204
g1067
I01
sg1068
F-30
sg441
(dp1205
g15
Nsg16
g39
sg18
I22
ssg1070
(dp1206
g2
(lp1207
((g4
g5
tI-1
tp1208
a((g7
g5
tI-1
tp1209
a((g89
g90
tI-1
tp1210
a((g92
g93
tI-1
tp1211
a((g95
g96
tI-1
tp1212
a((g1078
g1079
tI-1
tp1213
asg12
g1078
sg13
(dp1214
g15
Nsg16
g39
sg18
I11
ssg16
g19
sg18
I177
sg20
g1079
sg15
(dp1215
g15
(dp1216
g191
(dp1217
g15
Nsg16
g39
sg18
I22
ssg1085
(dp1218
g15
S'H4sIAH/Wm0YC/43OMQvCMBAF4P39kWQxpFbBQXDOksGsgjRpCoJtQ7yA+fce0VHB4Q3H+3hcWMqc\nqgprjmoud7oNOQ8V1xzDujwol0BIHWRoDsv47tMW0miQE16Azqnnk5XpQR85Uk0RaQfpxHQQYM2C\n6b4xJ44C1lqz6dDCY95ozcXlqfX3TPr0u/wv/K1XLxMFpQX1AAAA\n'
p1219
sg16
g136
sg18
I181
ssg1088
I1
sg1089
F1
sg1090
I1
sg173
(dp1220
g15
Nsg16
g39
sg18
I22
ssg188
(dp1221
g15
Nsg16
g39
sg18
I148
ssg122
I0
sg1094
I2
sg1095
I0
sg138
I0
sg1096
F0.5
sg1097
g1098
sg127
I0
sg234
(dp1222
g15
S'H4sIAH/Wm0YC/23OPwvCMBCH4f33RdLFklqVDkLngHSwi0NBmj8FwbYhXqHx03tGNx3e4XIPR8y0\njD7mZg4uH5c73foQ+ohrcGaeHhQWQ/AFMpMcJvvZ+y0yJUGt0AJ09iWPrFQJ+kpL0Tv4HbJWDJUA\naxZM94m14ijQNI3aFEjxMa2k5EW3Svk/V9XdOhhu+M1ymuvt6fKmTx4P/Kxr/qHOX6ES/LrpAAAA\n'
p1223
sg16
g136
sg18
I179
ssg1101
I0
sg1102
F30
sg1020
(dp1224
g15
S'H4sIAH/Wm0YC/7XOMQoCMRAF0P5fJGkMWVfBwguk2cK0gmyyEQQ3O8QJmNs7RK9g8YvhPz4Tc12p\nmbiVZNb65MdcytxwKylu+cWlRgYN0LE75OXb0x7aWbBXQYEvNMopyo3gn1y4UQIdoL26nxREixB6\n7Myrs8I0TW43oEfGgrNWiuvb2n9GHg7mAy0aBDD4AAAA\n'
p1225
sg16
g136
sg18
I180
sssg16
g154
sg18
I178
sssg1096
F0.5
sg1105
F60
sg1106
(dp1226
g2
(lp1227
((g4
g5
tI-1
tp1228
a((g1110
g1049
tI0
tp1229
asg12
g1110
sg13
(dp1230
g15
Nsg16
g39
sg18
I1
ssg16
g19
sg18
I182
sg20
g1049
sg15
(dp1231
g15
(dp1232
g1115
F-30
sg1116
F60
sg67
(dp1233
g2
(lp1234
((g4
g5
tI-1
tp1235
a((g7
g5
tI-1
tp1236
a((g89
g90
tI-1
tp1237
a((g92
g93
tI-1
tp1238
a((g95
g96
tI-1
tp1239
a((g209
g210
tI-1
tp1240
a((g212
g213
tI-1
tp1241
a((g78
g215
tI-1
tp1242
a((g1127
g1128
tI-1
tp1243
asg12
g1127
sg13
(dp1244
g15
Nsg16
g39
sg18
I11
ssg16
g19
sg18
I184
sg20
g1128
sg15
(dp1245
g15
(dp1246
g220
(dp1247
g15
S'H4sIAH/Wm0YC/7XOMQoCMRAF0P5fJGkMWVfBwguk2cK0gmyyEQQ3O8QJmNs7RK9g8YvhPz4Tc12p\nmbiVZNb65MdcytxwKylu+cWlRgYN0LE75OXb0x7aWbBXQYEvNMopyo3gn1y4UQIdoL26nxREixB6\n7Myrs8I0TW43oEfGgrNWiuvb2n9GHg7mAy0aBDD4AAAA\n'
p1248
sg16
g136
sg18
I186
ssg223
(dp1249
g15
S'H4sIAH/Wm0YC/53OMQvCMBAF4P39kWQxpFbBQXDOksGsgjRpCoJtQ3oB8+89oqOTwxuO9/G4sJQ5\nVRXWHNVcnvQYch4q7jmGddkol0BIHWRoDsv46dMe0miQE16Arqnnk5XpQV85Uk0R6QDpxHQSYM2C\n6bExJ84C1lqz69DCY95ozcXtpfXvTPryf8l/evUGx/o6Le8AAAA=\n'
p1250
sg16
g136
sg18
I188
ssg226
(dp1251
g15
S'H4sIAH/Wm0YC/y3OTQuDMAwG4Hv+SD04aafObezgtRcH81qQtn4wmFq6CnHsxy/oDgkk70OInZbR\nrYmdfZeMyys8tfd6hcZ3dp7ewS82gBMQ2c3B1O65O0IkOYSaGQbh4VIaSckUwl+2YXUduAyimvVn\nBqRJEM03VrMbg6qq5EHAVnTMSM4paBTyPP58FfZZrNByhaKlQcSDQm0VmuJe0j7d9/okqBUKL/xa\n0jMm+QGDRrI11AAAAA==\n'
p1252
sg16
g136
sg18
I187
ssg127
I0
sg229
I1
sg230
I1
sg231
I1
sg232
I1
sg138
I0
sg122
I0
sg233
I1
sg234
(dp1253
g15
S'H4sIAH/Wm0YC/7XOMQoCMRAF0P5fJGkMWVfBwguk2cK0gmyyEQQ3O8QJmNs7RK9g8YvhPz4Tc12p\nmbiVZNb65MdcytxwKylu+cWlRgYN0LE75OXb0x7aWbBXQYEvNMopyo3gn1y4UQIdoL26nxREixB6\n7Myrs8I0TW43oEfGgrNWiuvb2n9GHg7mAy0aBDD4AAAA\n'
p1254
sg16
g136
sg18
I189
ssg237
I1
ssg16
g154
sg18
I185
ssssg16
g154
sg18
I183
ssssg16
g154
sg18
I176
ssa(dp1255
g2
(lp1256
((g4
g5
tI-1
tp1257
a((g1062
g1049
tI0
tp1258
asg12
g1062
sg13
(dp1259
g15
Nsg16
g39
sg18
I1
ssg16
g19
sg18
I190
sg20
g1049
sg15
(dp1260
g15
(dp1261
g1067
I00
sg1068
F0
sg441
(dp1262
g15
Nsg16
g39
sg18
I22
ssg1070
(dp1263
g2
(lp1264
((g4
g5
tI-1
tp1265
a((g7
g5
tI-1
tp1266
a((g89
g90
tI-1
tp1267
a((g92
g93
tI-1
tp1268
a((g95
g96
tI-1
tp1269
a((g1078
g1079
tI-1
tp1270
asg12
g1078
sg13
(dp1271
g15
Nsg16
g39
sg18
I11
ssg16
g19
sg18
I192
sg20
g1079
sg15
(dp1272
g15
(dp1273
g191
(dp1274
g15
Nsg16
g39
sg18
I22
ssg1085
(dp1275
g15
S'H4sIAH/Wm0YC/43OMQvCMBAF4P39kWQxpFbBQXDOksGsgjRpCoJtQ7yA+fce0VHB4Q3H+3hcWMqc\nqgprjmoud7oNOQ8V1xzDujwol0BIHWRoDsv47tMW0miQE16Azqnnk5XpQR85Uk0RaQfpxHQQYM2C\n6b4xJ44C1lqz6dDCY95ozcXlqfX3TPr0u/wv/K1XLxMFpQX1AAAA\n'
p1276
sg16
g136
sg18
I196
ssg1088
I0
sg1089
F1
sg1090
I0
sg173
(dp1277
g15
Nsg16
g39
sg18
I22
ssg188
(dp1278
g15
Nsg16
g39
sg18
I148
ssg122
I0
sg1094
I2
sg1095
I0
sg138
I0
sg1096
F1
sg1097
g1098
sg127
I0
sg234
(dp1279
g15
S'H4sIAH/Wm0YC/7XOsQoCMRAE0H5+JGkMOU/BQrBOk8K0glxyORC8XIgbMH/vEv0FiymWeQwbUl1z\nU2ErUa31SY+plKnhXmLY0otKDYQ8QIbukOZvn/eQRoOc8AJ0zSOfrMwI+smZWo7IB0gnlpMAaxZM\nj505cRaw1prdgB4e80ZrLm5vrf+TRV/4W68+7xE3gfUAAAA=\n'
p1280
sg16
g136
sg18
I194
ssg1101
I0
sg1102
F30
sg1020
(dp1281
g15
S'H4sIAH/Wm0YC/7XOMQoCMRAF0P5fJGkMWVfBwguk2cK0gmyyEQQ3O8QJmNs7RK9g8YvhPz4Tc12p\nmbiVZNb65MdcytxwKylu+cWlRgYN0LE75OXb0x7aWbBXQYEvNMopyo3gn1y4UQIdoL26nxREixB6\n7Myrs8I0TW43oEfGgrNWiuvb2n9GHg7mAy0aBDD4AAAA\n'
p1282
sg16
g136
sg18
I195
sssg16
g154
sg18
I193
sssg1096
F1
sg1105
F0
sg1106
(dp1283
g2
(lp1284
((g4
g5
tI-1
tp1285
a((g1110
g1049
tI0
tp1286
asg12
g1110
sg13
(dp1287
g15
Nsg16
g39
sg18
I1
ssg16
g19
sg18
I197
sg20
g1049
sg15
(dp1288
g15
(dp1289
g1115
F0
sg1116
F0
sg67
(dp1290
g2
(lp1291
((g4
g5
tI-1
tp1292
a((g7
g5
tI-1
tp1293
a((g89
g90
tI-1
tp1294
a((g92
g93
tI-1
tp1295
a((g95
g96
tI-1
tp1296
a((g209
g210
tI-1
tp1297
a((g212
g213
tI-1
tp1298
a((g78
g215
tI-1
tp1299
a((g1127
g1128
tI-1
tp1300
asg12
g1127
sg13
(dp1301
g15
Nsg16
g39
sg18
I11
ssg16
g19
sg18
I199
sg20
g1128
sg15
(dp1302
g15
(dp1303
g220
(dp1304
g15
S'H4sIAH/Wm0YC/7XOMQoCMRAF0P5fJGkMWVfBwguk2cK0gmyyEQQ3O8QJmNs7RK9g8YvhPz4Tc12p\nmbiVZNb65MdcytxwKylu+cWlRgYN0LE75OXb0x7aWbBXQYEvNMopyo3gn1y4UQIdoL26nxREixB6\n7Myrs8I0TW43oEfGgrNWiuvb2n9GHg7mAy0aBDD4AAAA\n'
p1305
sg16
g136
sg18
I201
ssg223
(dp1306
g15
S'H4sIAH/Wm0YC/53OMQvCMBAF4P39kWQxpFbBQXDOksGsgjRpCoJtQ3oB8+89oqOTwxuO9/G4sJQ5\nVRXWHNVcnvQYch4q7jmGddkol0BIHWRoDsv46dMe0miQE16Arqnnk5XpQV85Uk0R6QDpxHQSYM2C\n6bExJ84C1lqz69DCY95ozcXtpfXvTPryf8l/evUGx/o6Le8AAAA=\n'
p1307
sg16
g136
sg18
I203
ssg226
(dp1308
g15
S'H4sIAH/Wm0YC/53OsQoCMRAE0H5+JGkMOU/hCn8gTQrTCnLJRRC8XIgbMH/vEu0FiymWeQwbUl1z\nU2ErUa31Qfe5lLnhWmLY0pNKDYQ8QIbukJZPn/eQRoOc8AJ0ziOfrMwI+sqFWo7IB0gnbpMAaxZM\nj505cRKw1prdgB4e80ZrLi4vrf/P9NPww169AaZN3yn4AAAA\n'
p1309
sg16
g136
sg18
I202
ssg127
I0
sg229
I1
sg230
I0
sg231
I1
sg232
I1
sg138
I0
sg122
I0
sg233
I0
sg234
(dp1310
g15
S'H4sIAH/Wm0YC/7XOMQoCMRAF0P5fJGkMWVfBwguk2cK0gmyyEQQ3O8QJmNs7RK9g8YvhPz4Tc12p\nmbiVZNb65MdcytxwKylu+cWlRgYN0LE75OXb0x7aWbBXQYEvNMopyo3gn1y4UQIdoL26nxREixB6\n7Myrs8I0TW43oEfGgrNWiuvb2n9GHg7mAy0aBDD4AAAA\n'
p1311
sg16
g136
sg18
I204
ssg237
I1
ssg16
g154
sg18
I200
ssssg16
g154
sg18
I198
ssssg16
g154
sg18
I191
ssasg16
g334
sg18
I143
ssS'number_of_lights'
p1312
I4
ssg16
g154
sg18
I142
sssS'jpeg_progressive'
p1313
I01
sS'_def_pos'
p1314
I1
ssg16
g154
sg18
I85
sssg45
(dp1315
g15
(lp1316
(dp1317
g2
(lp1318
((g4
g5
tI-1
tp1319
a((g27
g5
tI-1
tp1320
a((g29
g30
tI-1
tp1321
a((g32
g33
tI0
tp1322
a((g54
g55
tI0
tp1323
a((S'Source'
p1324
S'enthought.mayavi.core.source'
p1325
tI0
tp1326
a((S'FileDataSource'
p1327
S'enthought.mayavi.core.file_data_source'
p1328
tI0
tp1329
a((S'VTKFileReader'
p1330
S'enthought.mayavi.sources.vtk_file_reader'
p1331
tI0
tp1332
asg12
g1330
sg13
(dp1333
g15
Nsg16
g39
sg18
I1
ssg16
g19
sg18
I206
sg20
g1331
sg15
(dp1334
g15
(dp1335
g42
S''
sS'file_path'
p1336
(dp1337
g2
(lp1338
((S'FilePath'
p1339
S'enthought.persistence.file_path'
p1340
tI-1
tp1341
asg12
g1339
sg13
(dp1342
g15
Nsg16
g39
sg18
I1
ssg16
g19
sg18
I375
sg20
g1340
sg15
(dp1343
g15
(dp1344
S'rel_pth'
p1345
S'ssng-p0250-g0500.disp-000.vtk'
p1346
sS'abs_pth'
p1347
S'/home/luis/benchmarks/ssng-p0250-g0500.disp-000.vtk'
p1348
ssg16
g154
sg18
I376
sssg155
S''
sS'_timestep'
p1349
I0
sS'reader'
p1350
(dp1351
g2
(lp1352
((g4
g5
tI-1
tp1353
a((g7
g5
tI-1
tp1354
a((g89
g90
tI-1
tp1355
a((g92
g93
tI-1
tp1356
a((g95
g96
tI-1
tp1357
a((g98
g99
tI-1
tp1358
a((S'DataReader'
p1359
S'tvtk_classes.data_reader'
p1360
tI-1
tp1361
a((S'DataSetReader'
p1362
S'tvtk_classes.data_set_reader'
p1363
tI-1
tp1364
asg12
g1362
sg13
(dp1365
g15
Nsg16
g39
sg18
I11
ssg16
g19
sg18
I373
sg20
g1363
sg15
(dp1366
g15
(dp1367
S'read_all_tensors_'
p1368
I0
sg490
S'/home/luis/benchmarks/ssng-p0250-g0500.disp-000.vtk'
p1369
sS'read_all_vectors_'
p1370
I0
sS'read_all_vectors'
p1371
I0
sg122
I0
sS'read_all_color_scalars_'
p1372
I0
sS'read_all_t_coords'
p1373
I0
sS'read_from_input_string'
p1374
I0
sS'read_all_normals'
p1375
I0
sg130
I0
sS'read_all_scalars_'
p1376
I0
sg131
I0
sg132
F1
sg138
I0
sS'read_all_fields_'
p1377
I0
sg127
I0
sS'read_all_color_scalars'
p1378
I0
sS'read_all_fields'
p1379
I0
sS'read_from_input_string_'
p1380
I0
sS'read_all_tensors'
p1381
I0
sg141
I0
sS'read_all_normals_'
p1382
I0
sS'read_all_scalars'
p1383
I0
sS'read_all_t_coords_'
p1384
I0
sg148
I0
ssg16
g154
sg18
I374
sssS'_min_timestep'
p1385
I0
sg45
(dp1386
g15
(lp1387
(dp1388
g2
(lp1389
((g4
g5
tI-1
tp1390
a((g27
g5
tI-1
tp1391
a((g29
g30
tI-1
tp1392
a((g32
g33
tI0
tp1393
a((g35
g36
tI0
tp1394
asg12
g35
sg13
(dp1395
g15
Nsg16
g39
sg18
I1
ssg16
g19
sg18
I209
sg20
g36
sg15
(dp1396
g15
(dp1397
g42
S''
sg43
g44
sg45
(dp1398
g15
(lp1399
(dp1400
g2
(lp1401
((g4
g5
tI-1
tp1402
a((g27
g5
tI-1
tp1403
a((g29
g30
tI-1
tp1404
a((g32
g33
tI0
tp1405
a((g54
g55
tI0
tp1406
a((g57
g58
tI0
tp1407
a((S'Outline'
p1408
S'enthought.mayavi.modules.outline'
p1409
tI0
tp1410
asg12
g1408
sg13
(dp1411
g15
Nsg16
g39
sg18
I1
ssg16
g19
sg18
I212
sg20
g1409
sg15
(dp1412
g15
(dp1413
S'outline_filter'
p1414
(dp1415
g2
(lp1416
((g4
g5
tI-1
tp1417
a((g7
g5
tI-1
tp1418
a((g89
g90
tI-1
tp1419
a((g92
g93
tI-1
tp1420
a((g95
g96
tI-1
tp1421
a((g98
g99
tI-1
tp1422
a((g262
g263
tI-1
tp1423
a((S'OutlineFilter'
p1424
S'tvtk_classes.outline_filter'
p1425
tI-1
tp1426
asg12
g1424
sg13
(dp1427
g15
Nsg16
g39
sg18
I11
ssg16
g19
sg18
I227
sg20
g1425
sg15
(dp1428
g15
(dp1429
g141
I0
sg148
I0
sg122
I0
sg138
I0
sg130
I0
sg131
I0
sg127
I0
sg132
F1
ssg16
g154
sg18
I228
sssg155
S''
sg42
S''
sg67
(dp1430
g2
(lp1431
((g4
g5
tI-1
tp1432
a((g27
g5
tI-1
tp1433
a((g29
g30
tI-1
tp1434
a((g32
g33
tI0
tp1435
a((g54
g55
tI0
tp1436
a((g75
g76
tI0
tp1437
a((g78
g79
tI0
tp1438
asg12
g78
sg13
(dp1439
g15
Nsg16
g39
sg18
I1
ssg16
g19
sg18
I214
sg20
g79
sg15
(dp1440
g15
(dp1441
g84
(dp1442
g2
(lp1443
((g4
g5
tI-1
tp1444
a((g7
g5
tI-1
tp1445
a((g89
g90
tI-1
tp1446
a((g92
g93
tI-1
tp1447
a((g95
g96
tI-1
tp1448
a((g98
g99
tI-1
tp1449
a((g101
g102
tI-1
tp1450
a((g104
g105
tI-1
tp1451
a((g107
g108
tI-1
tp1452
a((g110
g111
tI-1
tp1453
asg12
g110
sg13
(dp1454
g15
Nsg16
g39
sg18
I11
ssg16
g19
sg18
I216
sg20
g111
sg15
(dp1455
g15
(dp1456
g117
I0
sg118
I0
sg119
g120
sg121
I0
sg122
I0
sg123
F0.01
sg124
I0
sg125
g120
sg126
I0
sg127
I0
sg128
I0
sg129
I1
sg130
I0
sg131
I0
sg132
F1
sg133
(dp1457
g15
S'H4sIAH/Wm0YC/53OsQrCMBQF0P3+SLIY0lbBQXDOksGsgjRpCoJNQ/oC5u99VL/A4Q6Pe7i8kOqS\nmwpriWqpL3qOpYwNjxLDmjYqNRByBxl2hzR9+9xDGg1ywgvQLQ98sjI96CcnajkiHyGdmM8CrFkw\nPTEb4MRFwFprDh328Jg3WnNxf2v9X2Z95W+8+gDYoI1C1QAAAA==\n'
p1458
sg16
g136
sg18
I218
ssg137
I1
sg138
I0
sg139
I0
sg140
I1
sg141
I0
sg142
I1
sg143
I0
sg144
I0
sg145
I0
sg146
I1
sg147
g120
sg148
I0
sg149
I0
sg150
I1
sg151
g152
sg153
F0
ssg16
g154
sg18
I217
sssg155
S''
sg156
(dp1459
g2
(lp1460
((g4
g5
tI-1
tp1461
a((g7
g5
tI-1
tp1462
a((g89
g90
tI-1
tp1463
a((g92
g93
tI-1
tp1464
a((g95
g96
tI-1
tp1465
a((g164
g165
tI-1
tp1466
a((g167
g168
tI-1
tp1467
asg12
g167
sg13
(dp1468
g15
Nsg16
g39
sg18
I11
ssg16
g19
sg18
I225
sg20
g168
sg15
(dp1469
g15
(dp1470
g173
(dp1471
g15
Nsg16
g39
sg18
I22
ssg175
I0
sg176
F1
sg177
(dp1472
g15
Nsg16
g39
sg18
I22
ssg180
F0
sg181
I0
sg182
g183
sg184
F1
sg185
I0
sg186
F1
sg191
(dp1473
g15
Nsg16
g39
sg18
I22
ssg188
(dp1474
g15
Nsg16
g39
sg18
I22
ssg138
I0
sg190
I0
sg193
F1
sg187
I0
sg122
I0
sg195
F0
sg196
I0
sg198
I65535
sg127
I0
sg199
S'surface'
p1475
sg201
I1
sg194
F1
ssg16
g154
sg18
I226
sssg42
S''
sg67
(dp1476
g2
(lp1477
((g4
g5
tI-1
tp1478
a((g7
g5
tI-1
tp1479
a((g89
g90
tI-1
tp1480
a((g92
g93
tI-1
tp1481
a((g95
g96
tI-1
tp1482
a((g209
g210
tI-1
tp1483
a((g212
g213
tI-1
tp1484
a((g78
g215
tI-1
tp1485
asg12
g78
sg13
(dp1486
g15
Nsg16
g39
sg18
I11
ssg16
g19
sg18
I219
sg20
g215
sg15
(dp1487
g15
(dp1488
g220
(dp1489
g15
S'H4sIAH/Wm0YC/7XOMQoCMRAF0P5fJGkMWVfBwguk2cK0gmyyEQQ3O8QJmNs7RK9g8YvhPz4Tc12p\nmbiVZNb65MdcytxwKylu+cWlRgYN0LE75OXb0x7aWbBXQYEvNMopyo3gn1y4UQIdoL26nxREixB6\n7Myrs8I0TW43oEfGgrNWiuvb2n9GHg7mAy0aBDD4AAAA\n'
p1490
sg16
g136
sg18
I221
ssg223
(dp1491
g15
S'H4sIAH/Wm0YC/53OMQvCMBAF4P39kWQxpFbBQXDOksGsgjRpCoJtQ3oB8+89oqOTwxuO9/G4sJQ5\nVRXWHNVcnvQYch4q7jmGddkol0BIHWRoDsv46dMe0miQE16Arqnnk5XpQV85Uk0R6QDpxHQSYM2C\n6bExJ84C1lqz69DCY95ozcXtpfXvTPryf8l/evUGx/o6Le8AAAA=\n'
p1492
sg16
g136
sg18
I223
ssg226
(dp1493
g15
S'H4sIAH/Wm0YC/53OsQoCMRAE0H5+JGkMOU/hCn8gTQrTCnLJRRC8XIgbMH/vEu0FiymWeQwbUl1z\nU2ErUa31Qfe5lLnhWmLY0pNKDYQ8QIbukJZPn/eQRoOc8AJ0ziOfrMwI+sqFWo7IB0gnbpMAaxZM\nj505cRKw1prdgB4e80ZrLi4vrf/P9NPww169AaZN3yn4AAAA\n'
p1494
sg16
g136
sg18
I222
ssg127
I0
sg229
I1
sg230
I1
sg231
I1
sg232
I1
sg138
I0
sg122
I0
sg233
I1
sg234
(dp1495
g15
S'H4sIAH/Wm0YC/7XOMQoCMRAF0P5fJGkMWVfBwguk2cK0gmyyEQQ3O8QJmNs7RK9g8YvhPz4Tc12p\nmbiVZNb65MdcytxwKylu+cWlRgYN0LE75OXb0x7aWbBXQYEvNMopyo3gn1y4UQIdoL26nxREixB6\n7Myrs8I0TW43oEfGgrNWiuvb2n9GHg7mAy0aBDD4AAAA\n'
p1496
sg16
g136
sg18
I224
ssg237
I1
ssg16
g154
sg18
I220
ssssg16
g154
sg18
I215
ssssg16
g154
sg18
I213
ssa(dp1497
g2
(lp1498
((g4
g5
tI-1
tp1499
a((g27
g5
tI-1
tp1500
a((g29
g30
tI-1
tp1501
a((g32
g33
tI0
tp1502
a((g54
g55
tI0
tp1503
a((g57
g58
tI0
tp1504
a((S'OrientationAxes'
p1505
S'enthought.mayavi.modules.orientation_axes'
p1506
tI0
tp1507
asg12
g1505
sg13
(dp1508
g15
Nsg16
g39
sg18
I1
ssg16
g19
sg18
I229
sg20
g1506
sg15
(dp1509
g15
(dp1510
S'_text_property'
p1511
(dp1512
g2
(lp1513
((g4
g5
tI-1
tp1514
a((g7
g5
tI-1
tp1515
a((g89
g90
tI-1
tp1516
a((g92
g93
tI-1
tp1517
a((g95
g96
tI-1
tp1518
a((g426
g427
tI-1
tp1519
asg12
g426
sg13
(dp1520
g15
Nsg16
g39
sg18
I11
ssg16
g19
sg18
I231
sg20
g427
sg15
(dp1521
g15
(dp1522
g184
F1
sg432
g433
sg434
I12
sg226
F0
sg435
F0
sg436
I0
sg437
S'centered'
p1523
sg439
I0
sg122
I0
sg440
F1.1000000000000001
sg441
(dp1524
g15
Nsg16
g39
sg18
I22
ssg443
I0
sg444
(dp1525
g15
S'H4sIAH/Wm0YC/03NsQrDIBDG8f17EV0qmqRbX8DFoa6FEo2BQJOIPaG+fY+00A7/4bgfd3Gra24q\n7iWptT5oGUsZG+4lxX17UqmRkA1kPBy26bPPHaTVIC+CAF1zzyMr24G+cqKWE/IA6cUyCLBmwfTM\nrIcXFwHnnD0ZHPGxYLXmxe2lDad/zfN//DCoN80p7hW4AAAA\n'
p1526
sg16
g136
sg18
I233
ssg127
I0
sg447
I1
sg448
I0
sS'vertical_justification_'
p1527
I1
sg449
g450
sg138
I0
sg451
I1
ssg16
g154
sg18
I232
sssg1027
(dp1528
g2
(lp1529
((g4
g5
tI-1
tp1530
a((g7
g5
tI-1
tp1531
a((g89
g90
tI-1
tp1532
a((g92
g93
tI-1
tp1533
a((g95
g96
tI-1
tp1534
a((g475
g476
tI-1
tp1535
a((g1036
g1037
tI-1
tp1536
asg12
g1036
sg13
(dp1537
g15
Nsg16
g39
sg18
I11
ssg16
g19
sg18
I244
sg20
g1037
sg15
(dp1538
g15
(dp1539
g484
S'i'
sg485
I1
sg122
I0
sg890
I1
sg486
F0.55000001192092896
sg138
I0
sg487
I0
sg488
I1
sg127
I0
sg489
I0
sg918
I1
ssg16
g154
sg18
I245
sssg155
S''
sg922
(dp1540
g2
(lp1541
((g4
g5
tI-1
tp1542
a((g7
g5
tI-1
tp1543
a((g89
g90
tI-1
tp1544
a((g92
g93
tI-1
tp1545
a((g95
g96
tI-1
tp1546
a((g209
g210
tI-1
tp1547
a((g212
g213
tI-1
tp1548
a((g932
g933
tI-1
tp1549
asg12
g932
sg13
(dp1550
g15
Nsg16
g39
sg18
I11
ssg16
g19
sg18
I234
sg20
g933
sg15
(dp1551
g15
(dp1552
g220
(dp1553
g15
S'H4sIAIDWm0YC/7XOMQoCMRAF0P5fJGkMWVfBwguk2cK0gmyyEQQ3O8QJmNs7RK9g8YvhPz4Tc12p\nmbiVZNb65MdcytxwKylu+cWlRgYN0LE75OXb0x7aWbBXQYEvNMopyo3gn1y4UQIdoL26nxREixB6\n7Myrs8I0TW43oEfGgrNWiuvb2n9GHg7mAy0aBDD4AAAA\n'
p1554
sg16
g136
sg18
I236
ssg226
(dp1555
g15
S'H4sIAIDWm0YC/53OsQoCMRAE0H5+JGkMOU/hCn8gTQrTCnLJRRC8XIgbMH/vEu0FiymWeQwbUl1z\nU2ErUa31Qfe5lLnhWmLY0pNKDYQ8QIbukJZPn/eQRoOc8AJ0ziOfrMwI+sqFWo7IB0gnbpMAaxZM\nj505cRKw1prdgB4e80ZrLi4vrf/P9NPww169AaZN3yn4AAAA\n'
p1556
sg16
g136
sg18
I237
ssg942
(dp1557
g15
S'H4sIAIDWm0YC/53OMQvCMBAF4P39ketiaK2CBcE5SwazCpImFQTbHvEC9t97VDc3hzcc7+NxcSoj\nLybOeTBjecg95BwWXPMQ5+kpuUQBN6ji6jClT89bVLaGeOoJcuZWT1W2hXxlkoUH8A6Vp9uBoFqF\n0v3KPB0Jzjm7abBGx3pb11pcXl3QdL9J3en/Uv/szRs+d+FG7wAAAA==\n'
p1558
sg16
g136
sg18
I238
ssg229
I1
sg231
I1
sg122
I0
sg233
I1
sg223
(dp1559
g15
S'H4sIAIDWm0YC/53OMQvCMBAF4P39kWQxpFbBQXDOksGsgjRpCoJtQ3oB8+89oqOTwxuO9/G4sJQ5\nVRXWHNVcnvQYch4q7jmGddkol0BIHWRoDsv46dMe0miQE16Arqnnk5XpQV85Uk0R6QDpxHQSYM2C\n6bExJ84C1lqz69DCY95ozcXtpfXvTPryf8l/evUGx/o6Le8AAAA=\n'
p1560
sg16
g136
sg18
I240
ssg948
F0.050000000000000003
sg949
I16
sg950
I16
sg951
I1
sg952
(dp1561
g15
S'H4sIAIDWm0YC/53OMQvCMBAF4P39kWQxpFbBQXDOksGsgjRpCoJtQ3oB8+89oqOTwxuO9/G4sJQ5\nVRXWHNVcnvQYch4q7jmGddkol0BIHWRoDsv46dMe0miQE16Arqnnk5XpQV85Uk0R6QDpxHQSYM2C\n6bExJ84C1lqz69DCY95ozcXtpfXvTPryf8l/evUGx/o6Le8AAAA=\n'
p1562
sg16
g136
sg18
I241
ssg237
I1
sg955
g956
sg957
S'X'
sg958
F0.40000000000000002
sg959
S'Z'
sg230
I1
sg232
I1
sg138
I0
sg960
I1
sg961
S'Y'
sg962
I0
sg963
F0.5
sg964
(dp1563
g15
S'H4sIAIDWm0YC/23NsQoCMQwG4P1/kXax9KyCg+DcpYNdBbn2KgjeXemlYN/eUB0NBBL+jyQudc5N\nxbUkNdcXPcdSxoZ7SXFdNio1EvIAGbvDMn3zvIe0GuRFEKBrNryysgb0kxO1nJAPkF48TgKsWTA9\ndubFWcA5Z3cDevOxYLXmwPS6vZO5/B/5Y1Afbh8AYbkAAAA=\n'
p1564
sg16
g136
sg18
I239
ssg967
g968
sg969
(dp1565
g15
S'H4sIAIDWm0YC/53OMQvCMBAF4P39kWQxpFbBQXDOksGsgjRpCoJtQ3oB8+89oqOTwxuO9/G4sJQ5\nVRXWHNVcnvQYch4q7jmGddkol0BIHWRoDsv46dMe0miQE16Arqnnk5XpQV85Uk0R6QDpxHQSYM2C\n6bExJ84C1lqz69DCY95ozcXtpfXvTPryf8l/evUGx/o6Le8AAAA=\n'
p1566
sg16
g136
sg18
I242
ssg127
I0
sg234
(dp1567
g15
S'H4sIAIDWm0YC/7XOMQoCMRAF0P5fJGkMWVfBwguk2cK0gmyyEQQ3O8QJmNs7RK9g8YvhPz4Tc12p\nmbiVZNb65MdcytxwKylu+cWlRgYN0LE75OXb0x7aWbBXQYEvNMopyo3gn1y4UQIdoL26nxREixB6\n7Myrs8I0TW43oEfGgrNWiuvb2n9GHg7mAy0aBDD4AAAA\n'
p1568
sg16
g136
sg18
I243
ssg945
I16
ssg16
g154
sg18
I235
sssg42
S''
ssg16
g154
sg18
I230
ssasg16
g334
sg18
I211
ssg155
S''
sg359
(dp1569
g2
(lp1570
((g4
g5
tI-1
tp1571
a((g27
g5
tI-1
tp1572
a((g29
g30
tI-1
tp1573
a((g32
g33
tI0
tp1574
a((g366
g367
tI0
tp1575
asg12
g366
sg13
(dp1576
g15
Nsg16
g39
sg18
I1
ssg16
g19
sg18
I246
sg20
g367
sg15
(dp1577
g15
(dp1578
g372
(dp1579
g15
S'H4sIAIDWm0YC/03OPwuDMBAF8P19im5xqcQ/BQtC5ywOdQ0UExUKNYb0AvHb99AWOrzh7v04zrq4\n+C23a5jyJb7oOYQwbHiEya7uTSFagi+Q2d3BjUfvS2RKgnphBOjuKx5ZqRL0lSNtfoKvkfVibgRY\ns2B6YVahF61A13XqXGAPHzNKSi50kvKXU9SpaXSa6/Z/feRqK52MvPEHJv8AZLT1CMkAAAA=\n'
p1580
sg16
g136
sg18
I253
ssg375
I01
sg376
(dp1581
g2
(lp1582
((g4
g5
tI-1
tp1583
a((g7
g5
tI-1
tp1584
a((g89
g90
tI-1
tp1585
a((g92
g93
tI-1
tp1586
a((g95
g96
tI-1
tp1587
a((g384
g385
tI-1
tp1588
a((g387
g388
tI-1
tp1589
asg12
g387
sg13
(dp1590
g15
Nsg16
g39
sg18
I11
ssg16
g19
sg18
I254
sg20
g388
sg15
(dp1591
g15
(dp1592
g393
I2
sg223
g394
sg395
(dp1593
g15
S'H4sIAIDWm0YC/33OMQvCMBAF4P39kWQxpK2Cg+CcJYNZBWnSFASbhngB8+89qqM4vOF4H48LqS65\nqbCWqJb6oPtYythwKzGs6UmlBkLuIMPmkKZPn3tIo0FOeAG65IFPVqYHfeVELUfkPaQT81GANQum\nB2YDnDgJWGvNrsMWHvNGay6uL61/Z9bnvyW/4tUbw9sFJ9IAAAA=\n'
p1594
sg16
g136
sg18
I256
ssg398
(dp1595
g15
S'H4sIAIDWm0YC/03OPwuDMBAF8P19im5xqcQ/BQtC5ywOdQ0UExUKNYb0AvHb99AWOrzh7v04zrq4\n+C23a5jyJb7oOYQwbHiEya7uTSFagi+Q2d3BjUfvS2RKgnphBOjuKx5ZqRL0lSNtfoKvkfVibgRY\ns2B6YVahF61A13XqXGAPHzNKSi50kvKXU9SpaXSa6/Z/feRqK52MvPEHJv8AZLT1CMkAAAA=\n'
p1596
sg16
g136
sg18
I258
ssg401
(dp1597
g15
S'H4sIAIDWm0YC/33OMQvCMBAF4P39kXSxpK3FCopzEDpY3ALSpBEKNg3xCum/96jODm94vI/jrF+m\nsOZ2ji6flheNfYz9ikd0dvZvioslhAKZ3Rz88N1DiUxJUCeMAN1CxZWVKkE/OdAaHMIeWSeejQBr\nFkxrZhU6cRJo21btCmzhY0ZJycNVJ9voJA9nnY7mrpOrL1zlv/ATJv8A/YiyW8wAAAA=\n'
p1598
sg16
g136
sg18
I257
ssg404
I256
sg405
g406
sg122
I0
sg407
I256
sg408
(dp1599
g15
S'H4sIAIDWm0YC/33OMQvCMBAF4P39kWQxpK2Cg+CcJYNZBWnSFASbhngB8+89qqM4vOF4H48LqS65\nqbCWqJb6oPtYythwKzGs6UmlBkLuIMPmkKZPn3tIo0FOeAG65IFPVqYHfeVELUfkPaQT81GANQum\nB2YDnDgJWGvNrsMWHvNGay6uL61/Z9bnvyW/4tUbw9sFJ9IAAAA=\n'
p1600
sg16
g136
sg18
I259
ssg411
I0
sg412
(dp1601
g15
S'H4sIAIDWm0YC/33OMQvCMBAF4P39kWQxpK2Cg+CcJYNZBWnSFASbhngB8+89qqM4vOF4H48LqS65\nqbCWqJb6oPtYythwKzGs6UmlBkLuIMPmkKZPn3tIo0FOeAG65IFPVqYHfeVELUfkPaQT81GANQum\nB2YDnDgJWGvNrsMWHvNGay6uL61/Z9bnvyW/4tUbw9sFJ9IAAAA=\n'
p1602
sg16
g136
sg18
I260
ssg127
I0
sg415
F1
sg416
g417
sg138
I0
ssg16
g154
sg18
I255
sssg418
(dp1603
g2
(lp1604
((g4
g5
tI-1
tp1605
a((g7
g5
tI-1
tp1606
a((g89
g90
tI-1
tp1607
a((g92
g93
tI-1
tp1608
a((g95
g96
tI-1
tp1609
a((g426
g427
tI-1
tp1610
asg12
g426
sg13
(dp1611
g15
Nsg16
g39
sg18
I11
ssg16
g19
sg18
I248
sg20
g427
sg15
(dp1612
g15
(dp1613
g184
F1
sg432
g433
sg434
I12
sg226
F0
sg435
F0
sg436
I1
sg437
g438
sg439
I0
sg122
I0
sg440
F1.1000000000000001
sg441
(dp1614
g15
Nsg16
g39
sg18
I22
ssg443
I1
sg444
(dp1615
g15
S'H4sIAIDWm0YC/03NsQrDIBDG8f17EV0qmqRbX8DFoa6FEo2BQJOIPaG+fY+00A7/4bgfd3Gra24q\n7iWptT5oGUsZG+4lxX17UqmRkA1kPBy26bPPHaTVIC+CAF1zzyMr24G+cqKWE/IA6cUyCLBmwfTM\nrIcXFwHnnD0ZHPGxYLXmxe2lDad/zfN//DCoN80p7hW4AAAA\n'
p1616
sg16
g136
sg18
I250
ssg127
I0
sg447
I1
sg448
I0
sg449
g450
sg138
I0
sg451
I1
ssg16
g154
sg18
I249
sssg452
(dp1617
g2
(lp1618
((g4
g5
tI-1
tp1619
a((g7
g5
tI-1
tp1620
a((g89
g90
tI-1
tp1621
a((g92
g93
tI-1
tp1622
a((g95
g96
tI-1
tp1623
a((g426
g427
tI-1
tp1624
asg12
g426
sg13
(dp1625
g15
Nsg16
g39
sg18
I11
ssg16
g19
sg18
I261
sg20
g427
sg15
(dp1626
g15
(dp1627
g184
F1
sg432
g433
sg434
I12
sg226
F0
sg435
F0
sg436
I1
sg437
g438
sg439
I0
sg122
I0
sg440
F1.1000000000000001
sg441
(dp1628
g15
Nsg16
g39
sg18
I22
ssg443
I1
sg444
(dp1629
g15
S'H4sIAIDWm0YC/03NsQrDIBDG8f17EV0qmqRbX8DFoa6FEo2BQJOIPaG+fY+00A7/4bgfd3Gra24q\n7iWptT5oGUsZG+4lxX17UqmRkA1kPBy26bPPHaTVIC+CAF1zzyMr24G+cqKWE/IA6cUyCLBmwfTM\nrIcXFwHnnD0ZHPGxYLXmxe2lDad/zfN//DCoN80p7hW4AAAA\n'
p1630
sg16
g136
sg18
I263
ssg127
I0
sg447
I1
sg448
I0
sg449
g450
sg138
I0
sg451
I1
ssg16
g154
sg18
I262
sssg467
(dp1631
g2
(lp1632
((g4
g5
tI-1
tp1633
a((g7
g5
tI-1
tp1634
a((g89
g90
tI-1
tp1635
a((g92
g93
tI-1
tp1636
a((g95
g96
tI-1
tp1637
a((g475
g476
tI-1
tp1638
a((g478
g479
tI-1
tp1639
asg12
g478
sg13
(dp1640
g15
Nsg16
g39
sg18
I11
ssg16
g19
sg18
I251
sg20
g479
sg15
(dp1641
g15
(dp1642
g484
S'i'
sg485
I0
sg122
I0
sg486
F0.55000001192092896
sg138
I0
sg487
I0
sg488
I0
sg127
I0
sg489
I0
ssg16
g154
sg18
I252
sssg490
S''
sg491
S'LocalResiduals'
p1643
sg492
(dp1644
g15
Nsg16
g39
sg18
I253
ssg42
S''
sg407
I256
sg494
g1643
sg155
S''
sg496
I01
sg497
I8
sg498
I00
sg499
(dp1645
g2
(lp1646
((g4
g5
tI-1
tp1647
a((g7
g5
tI-1
tp1648
a((g89
g90
tI-1
tp1649
a((g92
g93
tI-1
tp1650
a((g95
g96
tI-1
tp1651
a((g209
g210
tI-1
tp1652
a((g508
g509
tI-1
tp1653
a((g511
g512
tI-1
tp1654
asg12
g511
sg13
(dp1655
g15
Nsg16
g39
sg18
I11
ssg16
g19
sg18
I264
sg20
g512
sg15
(dp1656
g15
(dp1657
g122
I0
sg237
I1
sg226
g626
sg518
F0.80000000000000004
sg519
S'%-#6.3g'
p1658
sg497
I8
sg229
I1
sg230
I1
sg231
I1
sg232
I1
sg138
I0
sg521
I256
sg522
I0
sg523
(dp1659
g15
S'H4sIAIDWm0YC/2XOMQuDMBAF4P39kWSpaGxAoeCcxaGugaIxQqFqSC8Q/30P263DGx7v4zi3pTUc\nhdujL9b0oucY43jgEb3btzfF5AihgnSnwzZ/96AgTQkaxCRA91BzZWUU6CdnOoJHuEIOYmkEWLNg\nqpnVGMRNoO97c6lwho9Npix5sLkdOe1/fNvZ7GqbFy2ttblZuCqO7viLqfgAbt3QTs0AAAA=\n'
p1660
sg16
g136
sg18
I267
ssg233
I1
sg234
(dp1661
g15
S'H4sIAIDWm0YC/2XOMQuDMBAF4P39kbhUjFpQKDiWLA51DZQkplCoGtITYvvne9huHd5wvI/HuXmd\nwpa7Jfp8Wh90NzGaDdfo3TI/Ka6OECQytzvM47cPJTJVgAZhBegSKj5ZqRL0kyNtwSPUyAZxawRY\ns2B6ZFZhECeBvu/VQWIPj1lVFFzo1BpO+x/bdm+dZK2T8WedvHzp1NQdf2DzD7ndMtDJAAAA\n'
p1662
sg16
g136
sg18
I266
ssg528
F0.17000000000000001
sg127
I0
sg529
I0
ssg16
g154
sg18
I265
sssg530
(dp1663
g15
S'H4sIAIDWm0YC/53OsQrCMBQF0P3+SLIY0lbBQXDOksGsgjRpCoJNQ/oC5u99VL/A4Q6Pe7i8kOqS\nmwpriWqpL3qOpYwNjxLDmjYqNRByBxl2hzR9+9xDGg1ywgvQLQ98sjI96CcnajkiHyGdmM8CrFkw\nPTEb4MRFwFprDh328Jg3WnNxf2v9X2Z95W+8+gDYoI1C1QAAAA==\n'
p1664
sg16
g136
sg18
I268
ssg448
I00
sg533
g534
sg535
I00
ssg16
g154
sg18
I247
sssg536
(dp1665
g2
(lp1666
((g4
g5
tI-1
tp1667
a((g27
g5
tI-1
tp1668
a((g29
g30
tI-1
tp1669
a((g32
g33
tI0
tp1670
a((g366
g367
tI0
tp1671
asg12
g366
sg13
(dp1672
g15
Nsg16
g39
sg18
I1
ssg16
g19
sg18
I269
sg20
g367
sg15
(dp1673
g15
(dp1674
g372
(dp1675
g15
S'H4sIAIDWm0YC/53OsQrCMBQF0P3+SLIY0lbBQXDOksGsgjRpCoJNQ/oC5u99VL/A4Q6Pe7i8kOqS\nmwpriWqpL3qOpYwNjxLDmjYqNRByBxl2hzR9+9xDGg1ywgvQLQ98sjI96CcnajkiHyGdmM8CrFkw\nPTEb4MRFwFprDh328Jg3WnNxf2v9X2Z95W+8+gDYoI1C1QAAAA==\n'
p1676
sg16
g136
sg18
I276
ssg375
I01
sg376
(dp1677
g2
(lp1678
((g4
g5
tI-1
tp1679
a((g7
g5
tI-1
tp1680
a((g89
g90
tI-1
tp1681
a((g92
g93
tI-1
tp1682
a((g95
g96
tI-1
tp1683
a((g384
g385
tI-1
tp1684
a((g387
g388
tI-1
tp1685
asg12
g387
sg13
(dp1686
g15
Nsg16
g39
sg18
I11
ssg16
g19
sg18
I277
sg20
g388
sg15
(dp1687
g15
(dp1688
g393
I2
sg223
g394
sg395
(dp1689
g15
S'H4sIAIDWm0YC/33OMQvCMBAF4P39kWQxpK2Cg+CcJYNZBWnSFASbhngB8+89qqM4vOF4H48LqS65\nqbCWqJb6oPtYythwKzGs6UmlBkLuIMPmkKZPn3tIo0FOeAG65IFPVqYHfeVELUfkPaQT81GANQum\nB2YDnDgJWGvNrsMWHvNGay6uL61/Z9bnvyW/4tUbw9sFJ9IAAAA=\n'
p1690
sg16
g136
sg18
I279
ssg398
(dp1691
g15
S'H4sIAIDWm0YC/53OsQrCMBQF0P3+SLIY0lbBQXDOksGsgjRpCoJNQ/oC5u99VL/A4Q6Pe7i8kOqS\nmwpriWqpL3qOpYwNjxLDmjYqNRByBxl2hzR9+9xDGg1ywgvQLQ98sjI96CcnajkiHyGdmM8CrFkw\nPTEb4MRFwFprDh328Jg3WnNxf2v9X2Z95W+8+gDYoI1C1QAAAA==\n'
p1692
sg16
g136
sg18
I281
ssg401
(dp1693
g15
S'H4sIAIDWm0YC/33OMQvCMBAF4P39kXSxpK3FCopzEDpY3ALSpBEKNg3xCum/96jODm94vI/jrF+m\nsOZ2ji6flheNfYz9ikd0dvZvioslhAKZ3Rz88N1DiUxJUCeMAN1CxZWVKkE/OdAaHMIeWSeejQBr\nFkxrZhU6cRJo21btCmzhY0ZJycNVJ9voJA9nnY7mrpOrL1zlv/ATJv8A/YiyW8wAAAA=\n'
p1694
sg16
g136
sg18
I280
ssg404
I256
sg405
g406
sg122
I0
sg407
I256
sg408
(dp1695
g15
S'H4sIAIDWm0YC/33OMQvCMBAF4P39kWQxpK2Cg+CcJYNZBWnSFASbhngB8+89qqM4vOF4H48LqS65\nqbCWqJb6oPtYythwKzGs6UmlBkLuIMPmkKZPn3tIo0FOeAG65IFPVqYHfeVELUfkPaQT81GANQum\nB2YDnDgJWGvNrsMWHvNGay6uL61/Z9bnvyW/4tUbw9sFJ9IAAAA=\n'
p1696
sg16
g136
sg18
I282
ssg411
I0
sg412
(dp1697
g15
S'H4sIAIDWm0YC/33OMQvCMBAF4P39kWQxpK2Cg+CcJYNZBWnSFASbhngB8+89qqM4vOF4H48LqS65\nqbCWqJb6oPtYythwKzGs6UmlBkLuIMPmkKZPn3tIo0FOeAG65IFPVqYHfeVELUfkPaQT81GANQum\nB2YDnDgJWGvNrsMWHvNGay6uL61/Z9bnvyW/4tUbw9sFJ9IAAAA=\n'
p1698
sg16
g136
sg18
I283
ssg127
I0
sg415
F1
sg416
g417
sg138
I0
ssg16
g154
sg18
I278
sssg418
(dp1699
g2
(lp1700
((g4
g5
tI-1
tp1701
a((g7
g5
tI-1
tp1702
a((g89
g90
tI-1
tp1703
a((g92
g93
tI-1
tp1704
a((g95
g96
tI-1
tp1705
a((g426
g427
tI-1
tp1706
asg12
g426
sg13
(dp1707
g15
Nsg16
g39
sg18
I11
ssg16
g19
sg18
I271
sg20
g427
sg15
(dp1708
g15
(dp1709
g184
F1
sg432
g433
sg434
I12
sg226
F0
sg435
F0
sg436
I1
sg437
g438
sg439
I0
sg122
I0
sg440
F1.1000000000000001
sg441
(dp1710
g15
Nsg16
g39
sg18
I22
ssg443
I1
sg444
(dp1711
g15
S'H4sIAIDWm0YC/03NsQrDIBDG8f17EV0qmqRbX8DFoa6FEo2BQJOIPaG+fY+00A7/4bgfd3Gra24q\n7iWptT5oGUsZG+4lxX17UqmRkA1kPBy26bPPHaTVIC+CAF1zzyMr24G+cqKWE/IA6cUyCLBmwfTM\nrIcXFwHnnD0ZHPGxYLXmxe2lDad/zfN//DCoN80p7hW4AAAA\n'
p1712
sg16
g136
sg18
I273
ssg127
I0
sg447
I1
sg448
I0
sg449
g450
sg138
I0
sg451
I1
ssg16
g154
sg18
I272
sssg452
(dp1713
g2
(lp1714
((g4
g5
tI-1
tp1715
a((g7
g5
tI-1
tp1716
a((g89
g90
tI-1
tp1717
a((g92
g93
tI-1
tp1718
a((g95
g96
tI-1
tp1719
a((g426
g427
tI-1
tp1720
asg12
g426
sg13
(dp1721
g15
Nsg16
g39
sg18
I11
ssg16
g19
sg18
I284
sg20
g427
sg15
(dp1722
g15
(dp1723
g184
F1
sg432
g433
sg434
I12
sg226
F0
sg435
F0
sg436
I1
sg437
g438
sg439
I0
sg122
I0
sg440
F1.1000000000000001
sg441
(dp1724
g15
Nsg16
g39
sg18
I22
ssg443
I1
sg444
(dp1725
g15
S'H4sIAIHWm0YC/03NsQrDIBDG8f17EV0qmqRbX8DFoa6FEo2BQJOIPaG+fY+00A7/4bgfd3Gra24q\n7iWptT5oGUsZG+4lxX17UqmRkA1kPBy26bPPHaTVIC+CAF1zzyMr24G+cqKWE/IA6cUyCLBmwfTM\nrIcXFwHnnD0ZHPGxYLXmxe2lDad/zfN//DCoN80p7hW4AAAA\n'
p1726
sg16
g136
sg18
I286
ssg127
I0
sg447
I1
sg448
I0
sg449
g450
sg138
I0
sg451
I1
ssg16
g154
sg18
I285
sssg467
(dp1727
g2
(lp1728
((g4
g5
tI-1
tp1729
a((g7
g5
tI-1
tp1730
a((g89
g90
tI-1
tp1731
a((g92
g93
tI-1
tp1732
a((g95
g96
tI-1
tp1733
a((g475
g476
tI-1
tp1734
a((g478
g479
tI-1
tp1735
asg12
g478
sg13
(dp1736
g15
Nsg16
g39
sg18
I11
ssg16
g19
sg18
I274
sg20
g479
sg15
(dp1737
g15
(dp1738
g484
S'i'
sg485
I0
sg122
I0
sg486
F0.55000001192092896
sg138
I0
sg487
I0
sg488
I0
sg127
I0
sg489
I0
ssg16
g154
sg18
I275
sssg490
S''
sg491
g611
sg492
(dp1739
g15
Nsg16
g39
sg18
I276
ssg42
S''
sg407
I256
sg494
g611
sg155
S''
sg496
I01
sg497
I8
sg498
I00
sg499
(dp1740
g2
(lp1741
((g4
g5
tI-1
tp1742
a((g7
g5
tI-1
tp1743
a((g89
g90
tI-1
tp1744
a((g92
g93
tI-1
tp1745
a((g95
g96
tI-1
tp1746
a((g209
g210
tI-1
tp1747
a((g508
g509
tI-1
tp1748
a((g511
g512
tI-1
tp1749
asg12
g511
sg13
(dp1750
g15
Nsg16
g39
sg18
I11
ssg16
g19
sg18
I287
sg20
g512
sg15
(dp1751
g15
(dp1752
g122
I0
sg237
I1
sg226
g626
sg518
F0.80000000000000004
sg519
S'%-#6.3g'
p1753
sg497
I8
sg229
I1
sg230
I1
sg231
I1
sg232
I1
sg138
I0
sg521
I256
sg522
I0
sg523
(dp1754
g15
S'H4sIAIHWm0YC/2XOMQuDMBAF4P39kWSpaGxAoeCcxaGugaIxQqFqSC8Q/30P263DGx7v4zi3pTUc\nhdujL9b0oucY43jgEb3btzfF5AihgnSnwzZ/96AgTQkaxCRA91BzZWUU6CdnOoJHuEIOYmkEWLNg\nqpnVGMRNoO97c6lwho9Npix5sLkdOe1/fNvZ7GqbFy2ttblZuCqO7viLqfgAbt3QTs0AAAA=\n'
p1755
sg16
g136
sg18
I290
ssg233
I1
sg234
(dp1756
g15
S'H4sIAIHWm0YC/2XOMQuDMBAF4P39kbhUjFpQKDiWLA51DZQkplCoGtITYvvne9huHd5wvI/HuXmd\nwpa7Jfp8Wh90NzGaDdfo3TI/Ka6OECQytzvM47cPJTJVgAZhBegSKj5ZqRL0kyNtwSPUyAZxawRY\ns2B6ZFZhECeBvu/VQWIPj1lVFFzo1BpO+x/bdm+dZK2T8WedvHzp1NQdf2DzD7ndMtDJAAAA\n'
p1757
sg16
g136
sg18
I289
ssg528
F0.17000000000000001
sg127
I0
sg529
I0
ssg16
g154
sg18
I288
sssg530
(dp1758
g15
S'H4sIAIHWm0YC/53OsQrCMBQF0P3+SLIY0lbBQXDOksGsgjRpCoJNQ/oC5u99VL/A4Q6Pe7i8kOqS\nmwpriWqpL3qOpYwNjxLDmjYqNRByBxl2hzR9+9xDGg1ywgvQLQ98sjI96CcnajkiHyGdmM8CrFkw\nPTEb4MRFwFprDh328Jg3WnNxf2v9X2Z95W+8+gDYoI1C1QAAAA==\n'
p1759
sg16
g136
sg18
I291
ssg448
I00
sg533
g534
sg535
I00
ssg16
g154
sg18
I270
ssssg16
g154
sg18
I210
ssa(dp1760
g2
(lp1761
((g4
g5
tI-1
tp1762
a((g27
g5
tI-1
tp1763
a((g29
g30
tI-1
tp1764
a((g32
g33
tI0
tp1765
a((g54
g55
tI0
tp1766
a((g1324
g1325
tI0
tp1767
a((S'Filter'
p1768
S'enthought.mayavi.core.filter'
p1769
tI0
tp1770
a((S'Threshold'
p1771
S'enthought.mayavi.filters.threshold'
p1772
tI0
tp1773
asg12
g1771
sg13
(dp1774
g15
Nsg16
g39
sg18
I1
ssg16
g19
sg18
I292
sg20
g1772
sg15
(dp1775
g15
(dp1776
S'threshold_filter'
p1777
(dp1778
g2
(lp1779
((g4
g5
tI-1
tp1780
a((g7
g5
tI-1
tp1781
a((g89
g90
tI-1
tp1782
a((g92
g93
tI-1
tp1783
a((g95
g96
tI-1
tp1784
a((g98
g99
tI-1
tp1785
a((S'UnstructuredGridAlgorithm'
p1786
S'tvtk_classes.unstructured_grid_algorithm'
p1787
tI-1
tp1788
a((g1771
S'tvtk_classes.threshold'
p1789
tI-1
tp1790
asg12
g1771
sg13
(dp1791
g15
Nsg16
g39
sg18
I11
ssg16
g19
sg18
I366
sg20
g1789
sg15
(dp1792
g15
(dp1793
S'attribute_mode'
p1794
I-1
sS'all_scalars_'
p1795
I1
sg127
I0
sg141
I0
sg122
I0
sS'component_mode'
p1796
S'use_selected'
p1797
sS'all_scalars'
p1798
I1
sg138
I0
sg130
I0
sg131
I0
sg132
F1
sg148
I0
sS'selected_component'
p1799
I0
sS'attribute_mode_'
p1800
I-1
ssg16
g154
sg18
I367
sssg42
S''
sS'_upper_threshold'
p1801
F0.063287496566772461
sg155
S''
sS'_lower_threshold'
p1802
F1e-08
sS'reset_lower'
p1803
I01
sg45
(dp1804
g15
(lp1805
(dp1806
g2
(lp1807
((g4
g5
tI-1
tp1808
a((g27
g5
tI-1
tp1809
a((g29
g30
tI-1
tp1810
a((g32
g33
tI0
tp1811
a((g35
g36
tI0
tp1812
asg12
g35
sg13
(dp1813
g15
Nsg16
g39
sg18
I1
ssg16
g19
sg18
I295
sg20
g36
sg15
(dp1814
g15
(dp1815
g42
S''
sg43
g44
sg45
(dp1816
g15
(lp1817
(dp1818
g2
(lp1819
((g4
g5
tI-1
tp1820
a((g27
g5
tI-1
tp1821
a((g29
g30
tI-1
tp1822
a((g32
g33
tI0
tp1823
a((g54
g55
tI0
tp1824
a((g57
g58
tI0
tp1825
a((S'Surface'
p1826
S'enthought.mayavi.modules.surface'
p1827
tI0
tp1828
asg12
g1826
sg13
(dp1829
g15
Nsg16
g39
sg18
I1
ssg16
g19
sg18
I298
sg20
g1827
sg15
(dp1830
g15
(dp1831
g155
S''
sS'enable_contours'
p1832
I00
sg42
S''
sg67
(dp1833
g2
(lp1834
((g4
g5
tI-1
tp1835
a((g27
g5
tI-1
tp1836
a((g29
g30
tI-1
tp1837
a((g32
g33
tI0
tp1838
a((g54
g55
tI0
tp1839
a((g75
g76
tI0
tp1840
a((g78
g79
tI0
tp1841
asg12
g78
sg13
(dp1842
g15
Nsg16
g39
sg18
I1
ssg16
g19
sg18
I300
sg20
g79
sg15
(dp1843
g15
(dp1844
g84
(dp1845
g2
(lp1846
((g4
g5
tI-1
tp1847
a((g7
g5
tI-1
tp1848
a((g89
g90
tI-1
tp1849
a((g92
g93
tI-1
tp1850
a((g95
g96
tI-1
tp1851
a((g98
g99
tI-1
tp1852
a((g101
g102
tI-1
tp1853
a((g104
g105
tI-1
tp1854
a((g107
g108
tI-1
tp1855
a((S'DataSetMapper'
p1856
S'tvtk_classes.data_set_mapper'
p1857
tI-1
tp1858
asg12
g1856
sg13
(dp1859
g15
Nsg16
g39
sg18
I11
ssg16
g19
sg18
I302
sg20
g1857
sg15
(dp1860
g15
(dp1861
g117
I0
sg118
I0
sg119
g120
sg121
I0
sg143
I0
sg123
F0.01
sg125
g120
sg126
I0
sg127
I0
sg128
I0
sg129
I1
sg130
I0
sg131
I0
sg132
F1
sg133
(dp1862
g15
S'H4sIAIHWm0YC/53OsQrCMBQF0P3+SLIY0lbBQXDOksGsgjRpCoJNQ/oC5u99VL/A4Q6Pe7i8kOqS\nmwpriWqpL3qOpYwNjxLDmjYqNRByBxl2hzR9+9xDGg1ywgvQLQ98sjI96CcnajkiHyGdmM8CrFkw\nPTEb4MRFwFprDh328Jg3WnNxf2v9X2Z95W+8+gDYoI1C1QAAAA==\n'
p1863
sg16
g136
sg18
I304
ssg137
I1
sg138
I0
sg139
I0
sg140
I1
sg141
I0
sg142
I1
sg122
I0
sg145
I0
sg151
g152
sg148
I0
sg144
I0
sg147
g120
sg153
F0
ssg16
g154
sg18
I303
sssg155
S''
sg156
(dp1864
g2
(lp1865
((g4
g5
tI-1
tp1866
a((g7
g5
tI-1
tp1867
a((g89
g90
tI-1
tp1868
a((g92
g93
tI-1
tp1869
a((g95
g96
tI-1
tp1870
a((g164
g165
tI-1
tp1871
a((g167
g168
tI-1
tp1872
asg12
g167
sg13
(dp1873
g15
Nsg16
g39
sg18
I11
ssg16
g19
sg18
I311
sg20
g168
sg15
(dp1874
g15
(dp1875
g173
(dp1876
g15
Nsg16
g39
sg18
I22
ssg175
I0
sg176
F1
sg177
(dp1877
g15
Nsg16
g39
sg18
I22
ssg180
F0
sg181
I0
sg182
g183
sg184
F1
sg185
I0
sg186
F1
sg191
(dp1878
g15
Nsg16
g39
sg18
I22
ssg188
(dp1879
g15
Nsg16
g39
sg18
I22
ssg138
I0
sg190
I0
sg193
F1
sg187
I0
sg122
I0
sg195
F0
sg196
I0
sg198
I65535
sg127
I0
sg199
g1475
sg201
I1
sg194
F2
ssg16
g154
sg18
I312
sssg42
S''
sg67
(dp1880
g2
(lp1881
((g4
g5
tI-1
tp1882
a((g7
g5
tI-1
tp1883
a((g89
g90
tI-1
tp1884
a((g92
g93
tI-1
tp1885
a((g95
g96
tI-1
tp1886
a((g209
g210
tI-1
tp1887
a((g212
g213
tI-1
tp1888
a((g78
g215
tI-1
tp1889
asg12
g78
sg13
(dp1890
g15
Nsg16
g39
sg18
I11
ssg16
g19
sg18
I305
sg20
g215
sg15
(dp1891
g15
(dp1892
g220
(dp1893
g15
S'H4sIAIHWm0YC/7XOMQoCMRAF0P5fJGkMWVfBwguk2cK0gmyyEQQ3O8QJmNs7RK9g8YvhPz4Tc12p\nmbiVZNb65MdcytxwKylu+cWlRgYN0LE75OXb0x7aWbBXQYEvNMopyo3gn1y4UQIdoL26nxREixB6\n7Myrs8I0TW43oEfGgrNWiuvb2n9GHg7mAy0aBDD4AAAA\n'
p1894
sg16
g136
sg18
I307
ssg223
(dp1895
g15
S'H4sIAIHWm0YC/53OMQvCMBAF4P39kWQxpFbBQXDOksGsgjRpCoJtQ3oB8+89oqOTwxuO9/G4sJQ5\nVRXWHNVcnvQYch4q7jmGddkol0BIHWRoDsv46dMe0miQE16Arqnnk5XpQV85Uk0R6QDpxHQSYM2C\n6bExJ84C1lqz69DCY95ozcXtpfXvTPryf8l/evUGx/o6Le8AAAA=\n'
p1896
sg16
g136
sg18
I309
ssg226
(dp1897
g15
S'H4sIAIHWm0YC/53OsQoCMRAE0H5+JGkMOU/hCn8gTQrTCnLJRRC8XIgbMH/vEu0FiymWeQwbUl1z\nU2ErUa31Qfe5lLnhWmLY0pNKDYQ8QIbukJZPn/eQRoOc8AJ0ziOfrMwI+sqFWo7IB0gnbpMAaxZM\nj505cRKw1prdgB4e80ZrLi4vrf/P9NPww169AaZN3yn4AAAA\n'
p1898
sg16
g136
sg18
I308
ssg127
I0
sg229
I1
sg230
I0
sg231
I1
sg232
I1
sg138
I0
sg122
I0
sg233
I0
sg234
(dp1899
g15
S'H4sIAIHWm0YC/7XOMQoCMRAF0P5fJGkMWVfBwguk2cK0gmyyEQQ3O8QJmNs7RK9g8YvhPz4Tc12p\nmbiVZNb65MdcytxwKylu+cWlRgYN0LE75OXb0x7aWbBXQYEvNMopyo3gn1y4UQIdoL26nxREixB6\n7Myrs8I0TW43oEfGgrNWiuvb2n9GHg7mAy0aBDD4AAAA\n'
p1900
sg16
g136
sg18
I310
ssg237
I1
ssg16
g154
sg18
I306
ssssg16
g154
sg18
I301
sssg285
(dp1901
g2
(lp1902
((g4
g5
tI-1
tp1903
a((g27
g5
tI-1
tp1904
a((g29
g30
tI-1
tp1905
a((g32
g33
tI0
tp1906
a((g54
g55
tI0
tp1907
a((g75
g76
tI0
tp1908
a((g294
g295
tI0
tp1909
asg12
g294
sg13
(dp1910
g15
Nsg16
g39
sg18
I1
ssg16
g19
sg18
I313
sg20
g295
sg15
(dp1911
g15
(dp1912
g42
S''
sg300
I01
sg301
(dp1913
g15
Nsg16
g39
sg18
I1
ssg304
I00
sg305
F0
sg155
S''
sg306
(dp1914
g2
(lp1915
((g4
g5
tI-1
tp1916
a((g7
g5
tI-1
tp1917
a((g89
g90
tI-1
tp1918
a((g92
g93
tI-1
tp1919
a((g95
g96
tI-1
tp1920
a((g98
g99
tI-1
tp1921
a((g262
g263
tI-1
tp1922
a((g316
g317
tI-1
tp1923
asg12
g316
sg13
(dp1924
g15
Nsg16
g39
sg18
I11
ssg16
g19
sg18
I315
sg20
g317
sg15
(dp1925
g15
(dp1926
g322
I0
sg138
I0
sg323
I0
sg324
I1
sg325
I0
sg141
I0
sg326
I1
sg66
I1
sg327
I1
sg328
I0
sg329
I0
sg130
I0
sg122
I0
sg131
I0
sg148
I0
sg132
F0
sg330
I1
sg127
I0
ssg16
g154
sg18
I316
sssg331
(dp1927
g15
(lp1928
sg16
g334
sg18
I317
ssg335
(dp1929
g2
(lp1930
((g4
g5
tI-1
tp1931
a((g7
g5
tI-1
tp1932
a((g89
g90
tI-1
tp1933
a((g92
g93
tI-1
tp1934
a((g95
g96
tI-1
tp1935
a((g98
g99
tI-1
tp1936
a((g262
g263
tI-1
tp1937
a((g345
g346
tI-1
tp1938
asg12
g345
sg13
(dp1939
g15
Nsg16
g39
sg18
I11
ssg16
g19
sg18
I318
sg20
g346
sg15
(dp1940
g15
(dp1941
g122
I0
sg351
I1
sg141
I0
sg352
I1
sg119
g353
sg354
I0
sg127
I0
sg138
I0
sg130
I0
sg355
I1
sg131
I0
sg148
I0
sg132
F0
sg330
I1
sg356
I0
ssg16
g154
sg18
I319
sssg357
I01
sg330
I10
sg358
F0
ssg16
g154
sg18
I314
ssssg16
g154
sg18
I299
ssasg16
g334
sg18
I297
ssg155
S''
sg359
(dp1942
g2
(lp1943
((g4
g5
tI-1
tp1944
a((g27
g5
tI-1
tp1945
a((g29
g30
tI-1
tp1946
a((g32
g33
tI0
tp1947
a((g366
g367
tI0
tp1948
asg12
g366
sg13
(dp1949
g15
Nsg16
g39
sg18
I1
ssg16
g19
sg18
I320
sg20
g367
sg15
(dp1950
g15
(dp1951
g372
(dp1952
g15
S'H4sIAIHWm0YC/23OMQvCMBAF4P39kXSxpI2CgujkkCWDWQvSpBUEm4Z4gebfe1QXweENd+/jOB/y\nFEvt5zTWU37So0+pL7il0c/hRSl7QmxQ+dUhDJ8+tqi0BFnhBOgaFY+sdAv6yoFKHBG3qKy47wVY\ns2C6Y6ZgxVHAGKM3DdbwMael5KJbpPzNYSiX05+1V93i5Jk/cPUbIYGbqskAAAA=\n'
p1953
sg16
g136
sg18
I327
ssg375
I01
sg376
(dp1954
g2
(lp1955
((g4
g5
tI-1
tp1956
a((g7
g5
tI-1
tp1957
a((g89
g90
tI-1
tp1958
a((g92
g93
tI-1
tp1959
a((g95
g96
tI-1
tp1960
a((g384
g385
tI-1
tp1961
a((g387
g388
tI-1
tp1962
asg12
g387
sg13
(dp1963
g15
Nsg16
g39
sg18
I11
ssg16
g19
sg18
I328
sg20
g388
sg15
(dp1964
g15
(dp1965
g393
I2
sg223
g394
sg395
(dp1966
g15
S'H4sIAIHWm0YC/33OMQvCMBAF4P39kWQxpK2Cg+CcJYNZBWnSFASbhngB8+89qqM4vOF4H48LqS65\nqbCWqJb6oPtYythwKzGs6UmlBkLuIMPmkKZPn3tIo0FOeAG65IFPVqYHfeVELUfkPaQT81GANQum\nB2YDnDgJWGvNrsMWHvNGay6uL61/Z9bnvyW/4tUbw9sFJ9IAAAA=\n'
p1967
sg16
g136
sg18
I330
ssg398
(dp1968
g15
S'H4sIAIHWm0YC/23OMQvCMBAF4P39kXSxpI2CgujkkCWDWQvSpBUEm4Z4gebfe1QXweENd+/jOB/y\nFEvt5zTWU37So0+pL7il0c/hRSl7QmxQ+dUhDJ8+tqi0BFnhBOgaFY+sdAv6yoFKHBG3qKy47wVY\ns2C6Y6ZgxVHAGKM3DdbwMael5KJbpPzNYSiX05+1V93i5Jk/cPUbIYGbqskAAAA=\n'
p1969
sg16
g136
sg18
I332
ssg401
(dp1970
g15
S'H4sIAIHWm0YC/33OMQvCMBAF4P39kXSxpK3FCopzEDpY3ALSpBEKNg3xCum/96jODm94vI/jrF+m\nsOZ2ji6flheNfYz9ikd0dvZvioslhAKZ3Rz88N1DiUxJUCeMAN1CxZWVKkE/OdAaHMIeWSeejQBr\nFkxrZhU6cRJo21btCmzhY0ZJycNVJ9voJA9nnY7mrpOrL1zlv/ATJv8A/YiyW8wAAAA=\n'
p1971
sg16
g136
sg18
I331
ssg404
I256
sg405
g406
sg122
I0
sg407
I256
sg408
(dp1972
g15
S'H4sIAIHWm0YC/33OMQvCMBAF4P39kWQxpK2Cg+CcJYNZBWnSFASbhngB8+89qqM4vOF4H48LqS65\nqbCWqJb6oPtYythwKzGs6UmlBkLuIMPmkKZPn3tIo0FOeAG65IFPVqYHfeVELUfkPaQT81GANQum\nB2YDnDgJWGvNrsMWHvNGay6uL61/Z9bnvyW/4tUbw9sFJ9IAAAA=\n'
p1973
sg16
g136
sg18
I333
ssg411
I0
sg412
(dp1974
g15
S'H4sIAIHWm0YC/33OMQvCMBAF4P39kWQxpK2Cg+CcJYNZBWnSFASbhngB8+89qqM4vOF4H48LqS65\nqbCWqJb6oPtYythwKzGs6UmlBkLuIMPmkKZPn3tIo0FOeAG65IFPVqYHfeVELUfkPaQT81GANQum\nB2YDnDgJWGvNrsMWHvNGay6uL61/Z9bnvyW/4tUbw9sFJ9IAAAA=\n'
p1975
sg16
g136
sg18
I334
ssg127
I0
sg415
F1
sg416
g417
sg138
I0
ssg16
g154
sg18
I329
sssg418
(dp1976
g2
(lp1977
((g4
g5
tI-1
tp1978
a((g7
g5
tI-1
tp1979
a((g89
g90
tI-1
tp1980
a((g92
g93
tI-1
tp1981
a((g95
g96
tI-1
tp1982
a((g426
g427
tI-1
tp1983
asg12
g426
sg13
(dp1984
g15
Nsg16
g39
sg18
I11
ssg16
g19
sg18
I322
sg20
g427
sg15
(dp1985
g15
(dp1986
g184
F1
sg432
g433
sg434
I12
sg226
F0
sg435
F0
sg436
I1
sg437
g438
sg439
I0
sg122
I0
sg440
F1.1000000000000001
sg441
(dp1987
g15
Nsg16
g39
sg18
I22
ssg443
I1
sg444
(dp1988
g15
S'H4sIAIHWm0YC/03NsQrDIBDG8f17EV0qmqRbX8DFoa6FEo2BQJOIPaG+fY+00A7/4bgfd3Gra24q\n7iWptT5oGUsZG+4lxX17UqmRkA1kPBy26bPPHaTVIC+CAF1zzyMr24G+cqKWE/IA6cUyCLBmwfTM\nrIcXFwHnnD0ZHPGxYLXmxe2lDad/zfN//DCoN80p7hW4AAAA\n'
p1989
sg16
g136
sg18
I324
ssg127
I0
sg447
I1
sg448
I0
sg449
g450
sg138
I0
sg451
I1
ssg16
g154
sg18
I323
sssg452
(dp1990
g2
(lp1991
((g4
g5
tI-1
tp1992
a((g7
g5
tI-1
tp1993
a((g89
g90
tI-1
tp1994
a((g92
g93
tI-1
tp1995
a((g95
g96
tI-1
tp1996
a((g426
g427
tI-1
tp1997
asg12
g426
sg13
(dp1998
g15
Nsg16
g39
sg18
I11
ssg16
g19
sg18
I335
sg20
g427
sg15
(dp1999
g15
(dp2000
g184
F1
sg432
g433
sg434
I12
sg226
F0
sg435
F0
sg436
I1
sg437
g438
sg439
I0
sg122
I0
sg440
F1.1000000000000001
sg441
(dp2001
g15
Nsg16
g39
sg18
I22
ssg443
I1
sg444
(dp2002
g15
S'H4sIAILWm0YC/03NsQrDIBDG8f17EV0qmqRbX8DFoa6FEo2BQJOIPaG+fY+00A7/4bgfd3Gra24q\n7iWptT5oGUsZG+4lxX17UqmRkA1kPBy26bPPHaTVIC+CAF1zzyMr24G+cqKWE/IA6cUyCLBmwfTM\nrIcXFwHnnD0ZHPGxYLXmxe2lDad/zfN//DCoN80p7hW4AAAA\n'
p2003
sg16
g136
sg18
I337
ssg127
I0
sg447
I1
sg448
I0
sg449
g450
sg138
I0
sg451
I1
ssg16
g154
sg18
I336
sssg467
(dp2004
g2
(lp2005
((g4
g5
tI-1
tp2006
a((g7
g5
tI-1
tp2007
a((g89
g90
tI-1
tp2008
a((g92
g93
tI-1
tp2009
a((g95
g96
tI-1
tp2010
a((g475
g476
tI-1
tp2011
a((g478
g479
tI-1
tp2012
asg12
g478
sg13
(dp2013
g15
Nsg16
g39
sg18
I11
ssg16
g19
sg18
I325
sg20
g479
sg15
(dp2014
g15
(dp2015
g484
S'i'
sg485
I0
sg122
I0
sg486
F0.55000001192092896
sg138
I0
sg487
I0
sg488
I0
sg127
I0
sg489
I0
ssg16
g154
sg18
I326
sssg490
S''
sg491
S'LocalResiduals'
p2016
sg492
(dp2017
g15
Nsg16
g39
sg18
I327
ssg42
S''
sg407
I256
sg494
S'LocalResiduals'
p2018
sg155
S''
sg496
I01
sg497
I8
sg498
I00
sg499
(dp2019
g2
(lp2020
((g4
g5
tI-1
tp2021
a((g7
g5
tI-1
tp2022
a((g89
g90
tI-1
tp2023
a((g92
g93
tI-1
tp2024
a((g95
g96
tI-1
tp2025
a((g209
g210
tI-1
tp2026
a((g508
g509
tI-1
tp2027
a((g511
g512
tI-1
tp2028
asg12
g511
sg13
(dp2029
g15
Nsg16
g39
sg18
I11
ssg16
g19
sg18
I338
sg20
g512
sg15
(dp2030
g15
(dp2031
g122
I0
sg237
I1
sg226
g626
sg518
F0.80000000000000004
sg519
S'%-#6.3g'
p2032
sg497
I8
sg229
I1
sg230
I1
sg231
I1
sg232
I1
sg138
I0
sg521
I256
sg522
I0
sg523
(dp2033
g15
S'H4sIAILWm0YC/2XOMQuDMBAF4P39kWSpaGxAoeCcxaGugaIxQqFqSC8Q/30P263DGx7v4zi3pTUc\nhdujL9b0oucY43jgEb3btzfF5AihgnSnwzZ/96AgTQkaxCRA91BzZWUU6CdnOoJHuEIOYmkEWLNg\nqpnVGMRNoO97c6lwho9Npix5sLkdOe1/fNvZ7GqbFy2ttblZuCqO7viLqfgAbt3QTs0AAAA=\n'
p2034
sg16
g136
sg18
I341
ssg233
I1
sg234
(dp2035
g15
S'H4sIAILWm0YC/2XOMQuDMBAF4P39kbhUjFpQKDiWLA51DZQkplCoGtITYvvne9huHd5wvI/HuXmd\nwpa7Jfp8Wh90NzGaDdfo3TI/Ka6OECQytzvM47cPJTJVgAZhBegSKj5ZqRL0kyNtwSPUyAZxawRY\ns2B6ZFZhECeBvu/VQWIPj1lVFFzo1BpO+x/bdm+dZK2T8WedvHzp1NQdf2DzD7ndMtDJAAAA\n'
p2036
sg16
g136
sg18
I340
ssg528
F0.17000000000000001
sg127
I0
sg529
I0
ssg16
g154
sg18
I339
sssg530
(dp2037
g15
S'H4sIAILWm0YC/53OsQrCMBQF0P3+SLIY0lbBQXDOksGsgjRpCoJNQ/oC5u99VL/A4Q6Pe7i8kOqS\nmwpriWqpL3qOpYwNjxLDmjYqNRByBxl2hzR9+9xDGg1ywgvQLQ98sjI96CcnajkiHyGdmM8CrFkw\nPTEb4MRFwFprDh328Jg3WnNxf2v9X2Z95W+8+gDYoI1C1QAAAA==\n'
p2038
sg16
g136
sg18
I342
ssg448
I00
sg533
g534
sg535
I00
ssg16
g154
sg18
I321
sssg536
(dp2039
g2
(lp2040
((g4
g5
tI-1
tp2041
a((g27
g5
tI-1
tp2042
a((g29
g30
tI-1
tp2043
a((g32
g33
tI0
tp2044
a((g366
g367
tI0
tp2045
asg12
g366
sg13
(dp2046
g15
Nsg16
g39
sg18
I1
ssg16
g19
sg18
I343
sg20
g367
sg15
(dp2047
g15
(dp2048
g372
(dp2049
g15
S'H4sIAILWm0YC/53OsQrCMBQF0P3+SLIY0lbBQXDOksGsgjRpCoJNQ/oC5u99VL/A4Q6Pe7i8kOqS\nmwpriWqpL3qOpYwNjxLDmjYqNRByBxl2hzR9+9xDGg1ywgvQLQ98sjI96CcnajkiHyGdmM8CrFkw\nPTEb4MRFwFprDh328Jg3WnNxf2v9X2Z95W+8+gDYoI1C1QAAAA==\n'
p2050
sg16
g136
sg18
I350
ssg375
I01
sg376
(dp2051
g2
(lp2052
((g4
g5
tI-1
tp2053
a((g7
g5
tI-1
tp2054
a((g89
g90
tI-1
tp2055
a((g92
g93
tI-1
tp2056
a((g95
g96
tI-1
tp2057
a((g384
g385
tI-1
tp2058
a((g387
g388
tI-1
tp2059
asg12
g387
sg13
(dp2060
g15
Nsg16
g39
sg18
I11
ssg16
g19
sg18
I351
sg20
g388
sg15
(dp2061
g15
(dp2062
g393
I2
sg223
g394
sg395
(dp2063
g15
S'H4sIAILWm0YC/33OMQvCMBAF4P39kWQxpK2Cg+CcJYNZBWnSFASbhngB8+89qqM4vOF4H48LqS65\nqbCWqJb6oPtYythwKzGs6UmlBkLuIMPmkKZPn3tIo0FOeAG65IFPVqYHfeVELUfkPaQT81GANQum\nB2YDnDgJWGvNrsMWHvNGay6uL61/Z9bnvyW/4tUbw9sFJ9IAAAA=\n'
p2064
sg16
g136
sg18
I353
ssg398
(dp2065
g15
S'H4sIAILWm0YC/53OsQrCMBQF0P3+SLIY0lbBQXDOksGsgjRpCoJNQ/oC5u99VL/A4Q6Pe7i8kOqS\nmwpriWqpL3qOpYwNjxLDmjYqNRByBxl2hzR9+9xDGg1ywgvQLQ98sjI96CcnajkiHyGdmM8CrFkw\nPTEb4MRFwFprDh328Jg3WnNxf2v9X2Z95W+8+gDYoI1C1QAAAA==\n'
p2066
sg16
g136
sg18
I355
ssg401
(dp2067
g15
S'H4sIAILWm0YC/33OMQvCMBAF4P39kXSxpK3FCopzEDpY3ALSpBEKNg3xCum/96jODm94vI/jrF+m\nsOZ2ji6flheNfYz9ikd0dvZvioslhAKZ3Rz88N1DiUxJUCeMAN1CxZWVKkE/OdAaHMIeWSeejQBr\nFkxrZhU6cRJo21btCmzhY0ZJycNVJ9voJA9nnY7mrpOrL1zlv/ATJv8A/YiyW8wAAAA=\n'
p2068
sg16
g136
sg18
I354
ssg404
I256
sg405
g406
sg122
I0
sg407
I256
sg408
(dp2069
g15
S'H4sIAILWm0YC/33OMQvCMBAF4P39kWQxpK2Cg+CcJYNZBWnSFASbhngB8+89qqM4vOF4H48LqS65\nqbCWqJb6oPtYythwKzGs6UmlBkLuIMPmkKZPn3tIo0FOeAG65IFPVqYHfeVELUfkPaQT81GANQum\nB2YDnDgJWGvNrsMWHvNGay6uL61/Z9bnvyW/4tUbw9sFJ9IAAAA=\n'
p2070
sg16
g136
sg18
I356
ssg411
I0
sg412
(dp2071
g15
S'H4sIAILWm0YC/33OMQvCMBAF4P39kWQxpK2Cg+CcJYNZBWnSFASbhngB8+89qqM4vOF4H48LqS65\nqbCWqJb6oPtYythwKzGs6UmlBkLuIMPmkKZPn3tIo0FOeAG65IFPVqYHfeVELUfkPaQT81GANQum\nB2YDnDgJWGvNrsMWHvNGay6uL61/Z9bnvyW/4tUbw9sFJ9IAAAA=\n'
p2072
sg16
g136
sg18
I357
ssg127
I0
sg415
F1
sg416
g417
sg138
I0
ssg16
g154
sg18
I352
sssg418
(dp2073
g2
(lp2074
((g4
g5
tI-1
tp2075
a((g7
g5
tI-1
tp2076
a((g89
g90
tI-1
tp2077
a((g92
g93
tI-1
tp2078
a((g95
g96
tI-1
tp2079
a((g426
g427
tI-1
tp2080
asg12
g426
sg13
(dp2081
g15
Nsg16
g39
sg18
I11
ssg16
g19
sg18
I345
sg20
g427
sg15
(dp2082
g15
(dp2083
g184
F1
sg432
g433
sg434
I12
sg226
F0
sg435
F0
sg436
I1
sg437
g438
sg439
I0
sg122
I0
sg440
F1.1000000000000001
sg441
(dp2084
g15
Nsg16
g39
sg18
I22
ssg443
I1
sg444
(dp2085
g15
S'H4sIAILWm0YC/03NsQrDIBDG8f17EV0qmqRbX8DFoa6FEo2BQJOIPaG+fY+00A7/4bgfd3Gra24q\n7iWptT5oGUsZG+4lxX17UqmRkA1kPBy26bPPHaTVIC+CAF1zzyMr24G+cqKWE/IA6cUyCLBmwfTM\nrIcXFwHnnD0ZHPGxYLXmxe2lDad/zfN//DCoN80p7hW4AAAA\n'
p2086
sg16
g136
sg18
I347
ssg127
I0
sg447
I1
sg448
I0
sg449
g450
sg138
I0
sg451
I1
ssg16
g154
sg18
I346
sssg452
(dp2087
g2
(lp2088
((g4
g5
tI-1
tp2089
a((g7
g5
tI-1
tp2090
a((g89
g90
tI-1
tp2091
a((g92
g93
tI-1
tp2092
a((g95
g96
tI-1
tp2093
a((g426
g427
tI-1
tp2094
asg12
g426
sg13
(dp2095
g15
Nsg16
g39
sg18
I11
ssg16
g19
sg18
I358
sg20
g427
sg15
(dp2096
g15
(dp2097
g184
F1
sg432
g433
sg434
I12
sg226
F0
sg435
F0
sg436
I1
sg437
g438
sg439
I0
sg122
I0
sg440
F1.1000000000000001
sg441
(dp2098
g15
Nsg16
g39
sg18
I22
ssg443
I1
sg444
(dp2099
g15
S'H4sIAILWm0YC/03NsQrDIBDG8f17EV0qmqRbX8DFoa6FEo2BQJOIPaG+fY+00A7/4bgfd3Gra24q\n7iWptT5oGUsZG+4lxX17UqmRkA1kPBy26bPPHaTVIC+CAF1zzyMr24G+cqKWE/IA6cUyCLBmwfTM\nrIcXFwHnnD0ZHPGxYLXmxe2lDad/zfN//DCoN80p7hW4AAAA\n'
p2100
sg16
g136
sg18
I360
ssg127
I0
sg447
I1
sg448
I0
sg449
g450
sg138
I0
sg451
I1
ssg16
g154
sg18
I359
sssg467
(dp2101
g2
(lp2102
((g4
g5
tI-1
tp2103
a((g7
g5
tI-1
tp2104
a((g89
g90
tI-1
tp2105
a((g92
g93
tI-1
tp2106
a((g95
g96
tI-1
tp2107
a((g475
g476
tI-1
tp2108
a((g478
g479
tI-1
tp2109
asg12
g478
sg13
(dp2110
g15
Nsg16
g39
sg18
I11
ssg16
g19
sg18
I348
sg20
g479
sg15
(dp2111
g15
(dp2112
g484
S'i'
sg485
I0
sg122
I0
sg486
F0.55000001192092896
sg138
I0
sg487
I0
sg488
I0
sg127
I0
sg489
I0
ssg16
g154
sg18
I349
sssg490
S''
sg491
g611
sg492
(dp2113
g15
Nsg16
g39
sg18
I350
ssg42
S''
sg407
I256
sg494
g611
sg155
S''
sg496
I01
sg497
I8
sg498
I00
sg499
(dp2114
g2
(lp2115
((g4
g5
tI-1
tp2116
a((g7
g5
tI-1
tp2117
a((g89
g90
tI-1
tp2118
a((g92
g93
tI-1
tp2119
a((g95
g96
tI-1
tp2120
a((g209
g210
tI-1
tp2121
a((g508
g509
tI-1
tp2122
a((g511
g512
tI-1
tp2123
asg12
g511
sg13
(dp2124
g15
Nsg16
g39
sg18
I11
ssg16
g19
sg18
I361
sg20
g512
sg15
(dp2125
g15
(dp2126
g122
I0
sg237
I1
sg226
g626
sg518
F0.80000000000000004
sg519
S'%-#6.3g'
p2127
sg497
I8
sg229
I1
sg230
I1
sg231
I1
sg232
I1
sg138
I0
sg521
I256
sg522
I0
sg523
(dp2128
g15
S'H4sIAILWm0YC/2XOMQuDMBAF4P39kWSpaGxAoeCcxaGugaIxQqFqSC8Q/30P263DGx7v4zi3pTUc\nhdujL9b0oucY43jgEb3btzfF5AihgnSnwzZ/96AgTQkaxCRA91BzZWUU6CdnOoJHuEIOYmkEWLNg\nqpnVGMRNoO97c6lwho9Npix5sLkdOe1/fNvZ7GqbFy2ttblZuCqO7viLqfgAbt3QTs0AAAA=\n'
p2129
sg16
g136
sg18
I364
ssg233
I1
sg234
(dp2130
g15
S'H4sIAILWm0YC/2XOMQuDMBAF4P39kbhUjFpQKDiWLA51DZQkplCoGtITYvvne9huHd5wvI/HuXmd\nwpa7Jfp8Wh90NzGaDdfo3TI/Ka6OECQytzvM47cPJTJVgAZhBegSKj5ZqRL0kyNtwSPUyAZxawRY\ns2B6ZFZhECeBvu/VQWIPj1lVFFzo1BpO+x/bdm+dZK2T8WedvHzp1NQdf2DzD7ndMtDJAAAA\n'
p2131
sg16
g136
sg18
I363
ssg528
F0.17000000000000001
sg127
I0
sg529
I0
ssg16
g154
sg18
I362
sssg530
(dp2132
g15
S'H4sIAILWm0YC/53OsQrCMBQF0P3+SLIY0lbBQXDOksGsgjRpCoJNQ/oC5u99VL/A4Q6Pe7i8kOqS\nmwpriWqpL3qOpYwNjxLDmjYqNRByBxl2hzR9+9xDGg1ywgvQLQ98sjI96CcnajkiHyGdmM8CrFkw\nPTEb4MRFwFprDh328Jg3WnNxf2v9X2Z95W+8+gDYoI1C1QAAAA==\n'
p2133
sg16
g136
sg18
I365
ssg448
I00
sg533
g534
sg535
I00
ssg16
g154
sg18
I344
ssssg16
g154
sg18
I296
ssasg16
g334
sg18
I294
ssS'reset_upper'
p2134
I01
ssg16
g154
sg18
I293
ssa(dp2135
g2
(lp2136
((g4
g5
tI-1
tp2137
a((g27
g5
tI-1
tp2138
a((g29
g30
tI-1
tp2139
a((g32
g33
tI0
tp2140
a((g54
g55
tI0
tp2141
a((g1324
g1325
tI0
tp2142
a((g1768
g1769
tI0
tp2143
a((S'FilterBase'
p2144
S'enthought.mayavi.filters.filter_base'
p2145
tI0
tp2146
a((S'CellToPointData'
p2147
S'enthought.mayavi.filters.cell_to_point_data'
p2148
tI0
tp2149
asg12
g2147
sg13
(dp2150
g15
Nsg16
g39
sg18
I1
ssg16
g19
sg18
I368
sg20
g2148
sg15
(dp2151
g15
(dp2152
g253
(dp2153
g2
(lp2154
((g4
g5
tI-1
tp2155
a((g7
g5
tI-1
tp2156
a((g89
g90
tI-1
tp2157
a((g92
g93
tI-1
tp2158
a((g95
g96
tI-1
tp2159
a((g98
g99
tI-1
tp2160
a((S'DataSetAlgorithm'
p2161
S'tvtk_classes.data_set_algorithm'
p2162
tI-1
tp2163
a((S'CellDataToPointData'
p2164
S'tvtk_classes.cell_data_to_point_data'
p2165
tI-1
tp2166
asg12
g2164
sg13
(dp2167
g15
Nsg16
g39
sg18
I11
ssg16
g19
sg18
I370
sg20
g2165
sg15
(dp2168
g15
(dp2169
S'pass_cell_data'
p2170
I0
sg141
I0
sg148
I0
sg122
I0
sg138
I0
sg130
I0
sg131
I0
sg127
I0
sg132
F1
sS'pass_cell_data_'
p2171
I0
ssg16
g154
sg18
I371
sssg155
S''
sg42
S''
sg45
(dp2172
g15
(lp2173
(dp2174
g15
Nsg16
g39
sg18
I3
sasg16
g334
sg18
I372
sssg16
g154
sg18
I369
ssasg16
g334
sg18
I208
ssS'_max_timestep'
p2175
I0
ssg16
g154
sg18
I207
ssa(dp2176
g2
(lp2177
((g4
g5
tI-1
tp2178
a((g27
g5
tI-1
tp2179
a((g29
g30
tI-1
tp2180
a((g32
g33
tI0
tp2181
a((g54
g55
tI0
tp2182
a((g1324
g1325
tI0
tp2183
a((g1327
g1328
tI0
tp2184
a((g1330
g1331
tI0
tp2185
asg12
g1330
sg13
(dp2186
g15
Nsg16
g39
sg18
I1
ssg16
g19
sg18
I377
sg20
g1331
sg15
(dp2187
g15
(dp2188
g42
S''
sg1336
(dp2189
g2
(lp2190
((g1339
g1340
tI-1
tp2191
asg12
g1339
sg13
(dp2192
g15
Nsg16
g39
sg18
I1
ssg16
g19
sg18
I453
sg20
g1340
sg15
(dp2193
g15
(dp2194
g1345
S'bottom-layer.vtk'
p2195
sg1347
S'/home/luis/benchmarks/bottom-layer.vtk'
p2196
ssg16
g154
sg18
I454
sssg155
S''
sg1349
I0
sg1350
(dp2197
g2
(lp2198
((g4
g5
tI-1
tp2199
a((g7
g5
tI-1
tp2200
a((g89
g90
tI-1
tp2201
a((g92
g93
tI-1
tp2202
a((g95
g96
tI-1
tp2203
a((g98
g99
tI-1
tp2204
a((g1359
g1360
tI-1
tp2205
a((g1362
g1363
tI-1
tp2206
asg12
g1362
sg13
(dp2207
g15
Nsg16
g39
sg18
I11
ssg16
g19
sg18
I451
sg20
g1363
sg15
(dp2208
g15
(dp2209
g1368
I0
sg490
S'/home/luis/benchmarks/bottom-layer.vtk'
p2210
sg1370
I0
sg1371
I0
sg122
I0
sg1372
I0
sg1373
I0
sg1374
I0
sg1375
I0
sg130
I0
sg1376
I0
sg131
I0
sg132
F1
sg138
I0
sg1377
I0
sg127
I0
sg1378
I0
sg1379
I0
sg1380
I0
sg1381
I0
sg141
I0
sg1382
I0
sg1383
I0
sg1384
I0
sg148
I0
ssg16
g154
sg18
I452
sssg1385
I0
sg45
(dp2211
g15
(lp2212
(dp2213
g2
(lp2214
((g4
g5
tI-1
tp2215
a((g27
g5
tI-1
tp2216
a((g29
g30
tI-1
tp2217
a((g32
g33
tI0
tp2218
a((g35
g36
tI0
tp2219
asg12
g35
sg13
(dp2220
g15
Nsg16
g39
sg18
I1
ssg16
g19
sg18
I380
sg20
g36
sg15
(dp2221
g15
(dp2222
g42
S''
sg43
g44
sg45
(dp2223
g15
(lp2224
(dp2225
g2
(lp2226
((g4
g5
tI-1
tp2227
a((g27
g5
tI-1
tp2228
a((g29
g30
tI-1
tp2229
a((g32
g33
tI0
tp2230
a((g54
g55
tI0
tp2231
a((g57
g58
tI0
tp2232
a((g1826
g1827
tI0
tp2233
asg12
g1826
sg13
(dp2234
g15
Nsg16
g39
sg18
I1
ssg16
g19
sg18
I383
sg20
g1827
sg15
(dp2235
g15
(dp2236
g155
S''
sg1832
I00
sg42
S''
sg67
(dp2237
g2
(lp2238
((g4
g5
tI-1
tp2239
a((g27
g5
tI-1
tp2240
a((g29
g30
tI-1
tp2241
a((g32
g33
tI0
tp2242
a((g54
g55
tI0
tp2243
a((g75
g76
tI0
tp2244
a((g78
g79
tI0
tp2245
asg12
g78
sg13
(dp2246
g15
Nsg16
g39
sg18
I1
ssg16
g19
sg18
I385
sg20
g79
sg15
(dp2247
g15
(dp2248
g84
(dp2249
g2
(lp2250
((g4
g5
tI-1
tp2251
a((g7
g5
tI-1
tp2252
a((g89
g90
tI-1
tp2253
a((g92
g93
tI-1
tp2254
a((g95
g96
tI-1
tp2255
a((g98
g99
tI-1
tp2256
a((g101
g102
tI-1
tp2257
a((g104
g105
tI-1
tp2258
a((g107
g108
tI-1
tp2259
a((g1856
g1857
tI-1
tp2260
asg12
g1856
sg13
(dp2261
g15
Nsg16
g39
sg18
I11
ssg16
g19
sg18
I387
sg20
g1857
sg15
(dp2262
g15
(dp2263
g117
I0
sg118
I0
sg119
g120
sg121
I0
sg143
I0
sg123
F0.01
sg125
g120
sg126
I0
sg127
I0
sg128
I0
sg129
I1
sg130
I0
sg131
I0
sg132
F1
sg133
(dp2264
g15
S'H4sIAILWm0YC/53OsQrCMBQF0P3+SLIY0lbBQXDOksGsgjRpCoJNQ/oC5u99VL/A4Q6Pe7i8kOqS\nmwpriWqpL3qOpYwNjxLDmjYqNRByBxl2hzR9+9xDGg1ywgvQLQ98sjI96CcnajkiHyGdmM8CrFkw\nPTEb4MRFwFprDh328Jg3WnNxf2v9X2Z95W+8+gDYoI1C1QAAAA==\n'
p2265
sg16
g136
sg18
I389
ssg137
I1
sg138
I0
sg139
I0
sg140
I1
sg141
I0
sg142
I1
sg122
I0
sg145
I0
sg151
g152
sg148
I0
sg144
I0
sg147
g120
sg153
F0
ssg16
g154
sg18
I388
sssg155
S''
sg156
(dp2266
g2
(lp2267
((g4
g5
tI-1
tp2268
a((g7
g5
tI-1
tp2269
a((g89
g90
tI-1
tp2270
a((g92
g93
tI-1
tp2271
a((g95
g96
tI-1
tp2272
a((g164
g165
tI-1
tp2273
a((g167
g168
tI-1
tp2274
asg12
g167
sg13
(dp2275
g15
Nsg16
g39
sg18
I11
ssg16
g19
sg18
I396
sg20
g168
sg15
(dp2276
g15
(dp2277
g173
(dp2278
g15
Nsg16
g39
sg18
I22
ssg175
I0
sg176
F1
sg177
(dp2279
g15
Nsg16
g39
sg18
I22
ssg180
F0
sg181
I0
sg182
g183
sg184
F0.14960000000000001
sg185
I0
sg186
F1
sg191
(dp2280
g15
Nsg16
g39
sg18
I22
ssg188
(dp2281
g15
Nsg16
g39
sg18
I22
ssg138
I0
sg190
I0
sg193
F1
sg187
I0
sg122
I0
sg195
F0
sg196
I0
sg198
I65535
sg127
I0
sg199
g1475
sg201
I1
sg194
F2
ssg16
g154
sg18
I397
sssg42
S''
sg67
(dp2282
g2
(lp2283
((g4
g5
tI-1
tp2284
a((g7
g5
tI-1
tp2285
a((g89
g90
tI-1
tp2286
a((g92
g93
tI-1
tp2287
a((g95
g96
tI-1
tp2288
a((g209
g210
tI-1
tp2289
a((g212
g213
tI-1
tp2290
a((g78
g215
tI-1
tp2291
asg12
g78
sg13
(dp2292
g15
Nsg16
g39
sg18
I11
ssg16
g19
sg18
I390
sg20
g215
sg15
(dp2293
g15
(dp2294
g220
(dp2295
g15
S'H4sIAIPWm0YC/7XOMQoCMRAF0P5fJGkMWVfBwguk2cK0gmyyEQQ3O8QJmNs7RK9g8YvhPz4Tc12p\nmbiVZNb65MdcytxwKylu+cWlRgYN0LE75OXb0x7aWbBXQYEvNMopyo3gn1y4UQIdoL26nxREixB6\n7Myrs8I0TW43oEfGgrNWiuvb2n9GHg7mAy0aBDD4AAAA\n'
p2296
sg16
g136
sg18
I392
ssg223
(dp2297
g15
S'H4sIAIPWm0YC/53OMQvCMBAF4P39kWQxpFbBQXDOksGsgjRpCoJtQ3oB8+89oqOTwxuO9/G4sJQ5\nVRXWHNVcnvQYch4q7jmGddkol0BIHWRoDsv46dMe0miQE16Arqnnk5XpQV85Uk0R6QDpxHQSYM2C\n6bExJ84C1lqz69DCY95ozcXtpfXvTPryf8l/evUGx/o6Le8AAAA=\n'
p2298
sg16
g136
sg18
I394
ssg226
(dp2299
g15
S'H4sIAIPWm0YC/53OsQoCMRAE0H5+JGkMOU/hCn8gTQrTCnLJRRC8XIgbMH/vEu0FiymWeQwbUl1z\nU2ErUa31Qfe5lLnhWmLY0pNKDYQ8QIbukJZPn/eQRoOc8AJ0ziOfrMwI+sqFWo7IB0gnbpMAaxZM\nj505cRKw1prdgB4e80ZrLi4vrf/P9NPww169AaZN3yn4AAAA\n'
p2300
sg16
g136
sg18
I393
ssg127
I0
sg229
I1
sg230
I1
sg231
I1
sg232
I1
sg138
I0
sg122
I0
sg233
I1
sg234
(dp2301
g15
S'H4sIAIPWm0YC/7XOMQoCMRAF0P5fJGkMWVfBwguk2cK0gmyyEQQ3O8QJmNs7RK9g8YvhPz4Tc12p\nmbiVZNb65MdcytxwKylu+cWlRgYN0LE75OXb0x7aWbBXQYEvNMopyo3gn1y4UQIdoL26nxREixB6\n7Myrs8I0TW43oEfGgrNWiuvb2n9GHg7mAy0aBDD4AAAA\n'
p2302
sg16
g136
sg18
I395
ssg237
I1
ssg16
g154
sg18
I391
ssssg16
g154
sg18
I386
sssg285
(dp2303
g2
(lp2304
((g4
g5
tI-1
tp2305
a((g27
g5
tI-1
tp2306
a((g29
g30
tI-1
tp2307
a((g32
g33
tI0
tp2308
a((g54
g55
tI0
tp2309
a((g75
g76
tI0
tp2310
a((g294
g295
tI0
tp2311
asg12
g294
sg13
(dp2312
g15
Nsg16
g39
sg18
I1
ssg16
g19
sg18
I398
sg20
g295
sg15
(dp2313
g15
(dp2314
g42
S''
sg300
I01
sg301
(dp2315
g15
Nsg16
g39
sg18
I1
ssg304
I00
sg305
F0
sg155
S''
sg306
(dp2316
g2
(lp2317
((g4
g5
tI-1
tp2318
a((g7
g5
tI-1
tp2319
a((g89
g90
tI-1
tp2320
a((g92
g93
tI-1
tp2321
a((g95
g96
tI-1
tp2322
a((g98
g99
tI-1
tp2323
a((g262
g263
tI-1
tp2324
a((g316
g317
tI-1
tp2325
asg12
g316
sg13
(dp2326
g15
Nsg16
g39
sg18
I11
ssg16
g19
sg18
I400
sg20
g317
sg15
(dp2327
g15
(dp2328
g322
I0
sg138
I0
sg323
I0
sg324
I1
sg325
I0
sg141
I0
sg326
I1
sg66
I1
sg327
I1
sg328
I0
sg329
I0
sg130
I0
sg122
I0
sg131
I0
sg148
I0
sg132
F0
sg330
I1
sg127
I0
ssg16
g154
sg18
I401
sssg331
(dp2329
g15
(lp2330
sg16
g334
sg18
I402
ssg335
(dp2331
g2
(lp2332
((g4
g5
tI-1
tp2333
a((g7
g5
tI-1
tp2334
a((g89
g90
tI-1
tp2335
a((g92
g93
tI-1
tp2336
a((g95
g96
tI-1
tp2337
a((g98
g99
tI-1
tp2338
a((g262
g263
tI-1
tp2339
a((g345
g346
tI-1
tp2340
asg12
g345
sg13
(dp2341
g15
Nsg16
g39
sg18
I11
ssg16
g19
sg18
I403
sg20
g346
sg15
(dp2342
g15
(dp2343
g122
I0
sg351
I1
sg141
I0
sg352
I1
sg119
g353
sg354
I0
sg127
I0
sg138
I0
sg130
I0
sg355
I1
sg131
I0
sg148
I0
sg132
F0
sg330
I1
sg356
I0
ssg16
g154
sg18
I404
sssg357
I01
sg330
I10
sg358
F0
ssg16
g154
sg18
I399
ssssg16
g154
sg18
I384
ssasg16
g334
sg18
I382
ssg155
S''
sg359
(dp2344
g2
(lp2345
((g4
g5
tI-1
tp2346
a((g27
g5
tI-1
tp2347
a((g29
g30
tI-1
tp2348
a((g32
g33
tI0
tp2349
a((g366
g367
tI0
tp2350
asg12
g366
sg13
(dp2351
g15
Nsg16
g39
sg18
I1
ssg16
g19
sg18
I405
sg20
g367
sg15
(dp2352
g15
(dp2353
g372
(dp2354
g15
S'H4sIAIPWm0YC/53OsQrCMBQF0P3+SLIY0lbBQXDOksGsgjRpCoJNQ/oC5u99VL/A4Q6Pe7i8kOqS\nmwpriWqpL3qOpYwNjxLDmjYqNRByBxl2hzR9+9xDGg1ywgvQLQ98sjI96CcnajkiHyGdmM8CrFkw\nPTEb4MRFwFprDh328Jg3WnNxf2v9X2Z95W+8+gDYoI1C1QAAAA==\n'
p2355
sg16
g136
sg18
I412
ssg375
I01
sg376
(dp2356
g2
(lp2357
((g4
g5
tI-1
tp2358
a((g7
g5
tI-1
tp2359
a((g89
g90
tI-1
tp2360
a((g92
g93
tI-1
tp2361
a((g95
g96
tI-1
tp2362
a((g384
g385
tI-1
tp2363
a((g387
g388
tI-1
tp2364
asg12
g387
sg13
(dp2365
g15
Nsg16
g39
sg18
I11
ssg16
g19
sg18
I413
sg20
g388
sg15
(dp2366
g15
(dp2367
g393
I2
sg223
g394
sg395
(dp2368
g15
S'H4sIAIPWm0YC/33OMQvCMBAF4P39kWQxpK2Cg+CcJYNZBWnSFASbhngB8+89qqM4vOF4H48LqS65\nqbCWqJb6oPtYythwKzGs6UmlBkLuIMPmkKZPn3tIo0FOeAG65IFPVqYHfeVELUfkPaQT81GANQum\nB2YDnDgJWGvNrsMWHvNGay6uL61/Z9bnvyW/4tUbw9sFJ9IAAAA=\n'
p2369
sg16
g136
sg18
I415
ssg398
(dp2370
g15
S'H4sIAIPWm0YC/53OsQrCMBQF0P3+SLIY0lbBQXDOksGsgjRpCoJNQ/oC5u99VL/A4Q6Pe7i8kOqS\nmwpriWqpL3qOpYwNjxLDmjYqNRByBxl2hzR9+9xDGg1ywgvQLQ98sjI96CcnajkiHyGdmM8CrFkw\nPTEb4MRFwFprDh328Jg3WnNxf2v9X2Z95W+8+gDYoI1C1QAAAA==\n'
p2371
sg16
g136
sg18
I417
ssg401
(dp2372
g15
S'H4sIAIPWm0YC/33OMQvCMBAF4P39kXSxpK3FCopzEDpY3ALSpBEKNg3xCum/96jODm94vI/jrF+m\nsOZ2ji6flheNfYz9ikd0dvZvioslhAKZ3Rz88N1DiUxJUCeMAN1CxZWVKkE/OdAaHMIeWSeejQBr\nFkxrZhU6cRJo21btCmzhY0ZJycNVJ9voJA9nnY7mrpOrL1zlv/ATJv8A/YiyW8wAAAA=\n'
p2373
sg16
g136
sg18
I416
ssg404
I256
sg405
g406
sg122
I0
sg407
I256
sg408
(dp2374
g15
S'H4sIAIPWm0YC/33OMQvCMBAF4P39kWQxpK2Cg+CcJYNZBWnSFASbhngB8+89qqM4vOF4H48LqS65\nqbCWqJb6oPtYythwKzGs6UmlBkLuIMPmkKZPn3tIo0FOeAG65IFPVqYHfeVELUfkPaQT81GANQum\nB2YDnDgJWGvNrsMWHvNGay6uL61/Z9bnvyW/4tUbw9sFJ9IAAAA=\n'
p2375
sg16
g136
sg18
I418
ssg411
I0
sg412
(dp2376
g15
S'H4sIAIPWm0YC/33OMQvCMBAF4P39kWQxpK2Cg+CcJYNZBWnSFASbhngB8+89qqM4vOF4H48LqS65\nqbCWqJb6oPtYythwKzGs6UmlBkLuIMPmkKZPn3tIo0FOeAG65IFPVqYHfeVELUfkPaQT81GANQum\nB2YDnDgJWGvNrsMWHvNGay6uL61/Z9bnvyW/4tUbw9sFJ9IAAAA=\n'
p2377
sg16
g136
sg18
I419
ssg127
I0
sg415
F1
sg416
g417
sg138
I0
ssg16
g154
sg18
I414
sssg418
(dp2378
g2
(lp2379
((g4
g5
tI-1
tp2380
a((g7
g5
tI-1
tp2381
a((g89
g90
tI-1
tp2382
a((g92
g93
tI-1
tp2383
a((g95
g96
tI-1
tp2384
a((g426
g427
tI-1
tp2385
asg12
g426
sg13
(dp2386
g15
Nsg16
g39
sg18
I11
ssg16
g19
sg18
I407
sg20
g427
sg15
(dp2387
g15
(dp2388
g184
F1
sg432
g433
sg434
I12
sg226
F0
sg435
F0
sg436
I1
sg437
g438
sg439
I0
sg122
I0
sg440
F1.1000000000000001
sg441
(dp2389
g15
Nsg16
g39
sg18
I22
ssg443
I1
sg444
(dp2390
g15
S'H4sIAIPWm0YC/03NsQrDIBDG8f17EV0qmqRbX8DFoa6FEo2BQJOIPaG+fY+00A7/4bgfd3Gra24q\n7iWptT5oGUsZG+4lxX17UqmRkA1kPBy26bPPHaTVIC+CAF1zzyMr24G+cqKWE/IA6cUyCLBmwfTM\nrIcXFwHnnD0ZHPGxYLXmxe2lDad/zfN//DCoN80p7hW4AAAA\n'
p2391
sg16
g136
sg18
I409
ssg127
I0
sg447
I1
sg448
I0
sg449
g450
sg138
I0
sg451
I1
ssg16
g154
sg18
I408
sssg452
(dp2392
g2
(lp2393
((g4
g5
tI-1
tp2394
a((g7
g5
tI-1
tp2395
a((g89
g90
tI-1
tp2396
a((g92
g93
tI-1
tp2397
a((g95
g96
tI-1
tp2398
a((g426
g427
tI-1
tp2399
asg12
g426
sg13
(dp2400
g15
Nsg16
g39
sg18
I11
ssg16
g19
sg18
I420
sg20
g427
sg15
(dp2401
g15
(dp2402
g184
F1
sg432
g433
sg434
I12
sg226
F0
sg435
F0
sg436
I1
sg437
g438
sg439
I0
sg122
I0
sg440
F1.1000000000000001
sg441
(dp2403
g15
Nsg16
g39
sg18
I22
ssg443
I1
sg444
(dp2404
g15
S'H4sIAIPWm0YC/03NsQrDIBDG8f17EV0qmqRbX8DFoa6FEo2BQJOIPaG+fY+00A7/4bgfd3Gra24q\n7iWptT5oGUsZG+4lxX17UqmRkA1kPBy26bPPHaTVIC+CAF1zzyMr24G+cqKWE/IA6cUyCLBmwfTM\nrIcXFwHnnD0ZHPGxYLXmxe2lDad/zfN//DCoN80p7hW4AAAA\n'
p2405
sg16
g136
sg18
I422
ssg127
I0
sg447
I1
sg448
I0
sg449
g450
sg138
I0
sg451
I1
ssg16
g154
sg18
I421
sssg467
(dp2406
g2
(lp2407
((g4
g5
tI-1
tp2408
a((g7
g5
tI-1
tp2409
a((g89
g90
tI-1
tp2410
a((g92
g93
tI-1
tp2411
a((g95
g96
tI-1
tp2412
a((g475
g476
tI-1
tp2413
a((g478
g479
tI-1
tp2414
asg12
g478
sg13
(dp2415
g15
Nsg16
g39
sg18
I11
ssg16
g19
sg18
I410
sg20
g479
sg15
(dp2416
g15
(dp2417
g484
S'i'
sg485
I0
sg122
I0
sg486
F0.55000001192092896
sg138
I0
sg487
I0
sg488
I0
sg127
I0
sg489
I0
ssg16
g154
sg18
I411
sssg490
S''
sg491
S'No scalars'
p2418
sg492
(dp2419
g15
Nsg16
g39
sg18
I412
ssg42
S''
sg407
I256
sg494
g2418
sg155
S''
sg496
I01
sg497
I8
sg498
I00
sg499
(dp2420
g2
(lp2421
((g4
g5
tI-1
tp2422
a((g7
g5
tI-1
tp2423
a((g89
g90
tI-1
tp2424
a((g92
g93
tI-1
tp2425
a((g95
g96
tI-1
tp2426
a((g209
g210
tI-1
tp2427
a((g508
g509
tI-1
tp2428
a((g511
g512
tI-1
tp2429
asg12
g511
sg13
(dp2430
g15
Nsg16
g39
sg18
I11
ssg16
g19
sg18
I423
sg20
g512
sg15
(dp2431
g15
(dp2432
g122
I0
sg237
I1
sg226
g626
sg518
F0.80000000000000004
sg519
S'%-#6.3g'
p2433
sg497
I8
sg229
I1
sg230
I1
sg231
I1
sg232
I1
sg138
I0
sg521
I256
sg522
I0
sg523
(dp2434
g15
S'H4sIAIPWm0YC/2XOMQuDMBAF4P39kWSpaGxAoeCcxaGugaIxQqFqSC8Q/30P263DGx7v4zi3pTUc\nhdujL9b0oucY43jgEb3btzfF5AihgnSnwzZ/96AgTQkaxCRA91BzZWUU6CdnOoJHuEIOYmkEWLNg\nqpnVGMRNoO97c6lwho9Npix5sLkdOe1/fNvZ7GqbFy2ttblZuCqO7viLqfgAbt3QTs0AAAA=\n'
p2435
sg16
g136
sg18
I426
ssg233
I1
sg234
(dp2436
g15
S'H4sIAIPWm0YC/2XOMQuDMBAF4P39kbhUjFpQKDiWLA51DZQkplCoGtITYvvne9huHd5wvI/HuXmd\nwpa7Jfp8Wh90NzGaDdfo3TI/Ka6OECQytzvM47cPJTJVgAZhBegSKj5ZqRL0kyNtwSPUyAZxawRY\ns2B6ZFZhECeBvu/VQWIPj1lVFFzo1BpO+x/bdm+dZK2T8WedvHzp1NQdf2DzD7ndMtDJAAAA\n'
p2437
sg16
g136
sg18
I425
ssg528
F0.17000000000000001
sg127
I0
sg529
I0
ssg16
g154
sg18
I424
sssg530
(dp2438
g15
S'H4sIAIPWm0YC/53OsQrCMBQF0P3+SLIY0lbBQXDOksGsgjRpCoJNQ/oC5u99VL/A4Q6Pe7i8kOqS\nmwpriWqpL3qOpYwNjxLDmjYqNRByBxl2hzR9+9xDGg1ywgvQLQ98sjI96CcnajkiHyGdmM8CrFkw\nPTEb4MRFwFprDh328Jg3WnNxf2v9X2Z95W+8+gDYoI1C1QAAAA==\n'
p2439
sg16
g136
sg18
I427
ssg448
I00
sg533
g534
sg535
I00
ssg16
g154
sg18
I406
sssg536
(dp2440
g2
(lp2441
((g4
g5
tI-1
tp2442
a((g27
g5
tI-1
tp2443
a((g29
g30
tI-1
tp2444
a((g32
g33
tI0
tp2445
a((g366
g367
tI0
tp2446
asg12
g366
sg13
(dp2447
g15
Nsg16
g39
sg18
I1
ssg16
g19
sg18
I428
sg20
g367
sg15
(dp2448
g15
(dp2449
g372
(dp2450
g15
S'H4sIAIPWm0YC/53OsQrCMBQF0P3+SLIY0lbBQXDOksGsgjRpCoJNQ/oC5u99VL/A4Q6Pe7i8kOqS\nmwpriWqpL3qOpYwNjxLDmjYqNRByBxl2hzR9+9xDGg1ywgvQLQ98sjI96CcnajkiHyGdmM8CrFkw\nPTEb4MRFwFprDh328Jg3WnNxf2v9X2Z95W+8+gDYoI1C1QAAAA==\n'
p2451
sg16
g136
sg18
I435
ssg375
I01
sg376
(dp2452
g2
(lp2453
((g4
g5
tI-1
tp2454
a((g7
g5
tI-1
tp2455
a((g89
g90
tI-1
tp2456
a((g92
g93
tI-1
tp2457
a((g95
g96
tI-1
tp2458
a((g384
g385
tI-1
tp2459
a((g387
g388
tI-1
tp2460
asg12
g387
sg13
(dp2461
g15
Nsg16
g39
sg18
I11
ssg16
g19
sg18
I436
sg20
g388
sg15
(dp2462
g15
(dp2463
g393
I2
sg223
g394
sg395
(dp2464
g15
S'H4sIAIPWm0YC/33OMQvCMBAF4P39kWQxpK2Cg+CcJYNZBWnSFASbhngB8+89qqM4vOF4H48LqS65\nqbCWqJb6oPtYythwKzGs6UmlBkLuIMPmkKZPn3tIo0FOeAG65IFPVqYHfeVELUfkPaQT81GANQum\nB2YDnDgJWGvNrsMWHvNGay6uL61/Z9bnvyW/4tUbw9sFJ9IAAAA=\n'
p2465
sg16
g136
sg18
I438
ssg398
(dp2466
g15
S'H4sIAIPWm0YC/53OsQrCMBQF0P3+SLIY0lbBQXDOksGsgjRpCoJNQ/oC5u99VL/A4Q6Pe7i8kOqS\nmwpriWqpL3qOpYwNjxLDmjYqNRByBxl2hzR9+9xDGg1ywgvQLQ98sjI96CcnajkiHyGdmM8CrFkw\nPTEb4MRFwFprDh328Jg3WnNxf2v9X2Z95W+8+gDYoI1C1QAAAA==\n'
p2467
sg16
g136
sg18
I440
ssg401
(dp2468
g15
S'H4sIAIPWm0YC/33OMQvCMBAF4P39kXSxpK3FCopzEDpY3ALSpBEKNg3xCum/96jODm94vI/jrF+m\nsOZ2ji6flheNfYz9ikd0dvZvioslhAKZ3Rz88N1DiUxJUCeMAN1CxZWVKkE/OdAaHMIeWSeejQBr\nFkxrZhU6cRJo21btCmzhY0ZJycNVJ9voJA9nnY7mrpOrL1zlv/ATJv8A/YiyW8wAAAA=\n'
p2469
sg16
g136
sg18
I439
ssg404
I256
sg405
g406
sg122
I0
sg407
I256
sg408
(dp2470
g15
S'H4sIAIPWm0YC/33OMQvCMBAF4P39kWQxpK2Cg+CcJYNZBWnSFASbhngB8+89qqM4vOF4H48LqS65\nqbCWqJb6oPtYythwKzGs6UmlBkLuIMPmkKZPn3tIo0FOeAG65IFPVqYHfeVELUfkPaQT81GANQum\nB2YDnDgJWGvNrsMWHvNGay6uL61/Z9bnvyW/4tUbw9sFJ9IAAAA=\n'
p2471
sg16
g136
sg18
I441
ssg411
I0
sg412
(dp2472
g15
S'H4sIAIPWm0YC/33OMQvCMBAF4P39kWQxpK2Cg+CcJYNZBWnSFASbhngB8+89qqM4vOF4H48LqS65\nqbCWqJb6oPtYythwKzGs6UmlBkLuIMPmkKZPn3tIo0FOeAG65IFPVqYHfeVELUfkPaQT81GANQum\nB2YDnDgJWGvNrsMWHvNGay6uL61/Z9bnvyW/4tUbw9sFJ9IAAAA=\n'
p2473
sg16
g136
sg18
I442
ssg127
I0
sg415
F1
sg416
g417
sg138
I0
ssg16
g154
sg18
I437
sssg418
(dp2474
g2
(lp2475
((g4
g5
tI-1
tp2476
a((g7
g5
tI-1
tp2477
a((g89
g90
tI-1
tp2478
a((g92
g93
tI-1
tp2479
a((g95
g96
tI-1
tp2480
a((g426
g427
tI-1
tp2481
asg12
g426
sg13
(dp2482
g15
Nsg16
g39
sg18
I11
ssg16
g19
sg18
I430
sg20
g427
sg15
(dp2483
g15
(dp2484
g184
F1
sg432
g433
sg434
I12
sg226
F0
sg435
F0
sg436
I1
sg437
g438
sg439
I0
sg122
I0
sg440
F1.1000000000000001
sg441
(dp2485
g15
Nsg16
g39
sg18
I22
ssg443
I1
sg444
(dp2486
g15
S'H4sIAIPWm0YC/03NsQrDIBDG8f17EV0qmqRbX8DFoa6FEo2BQJOIPaG+fY+00A7/4bgfd3Gra24q\n7iWptT5oGUsZG+4lxX17UqmRkA1kPBy26bPPHaTVIC+CAF1zzyMr24G+cqKWE/IA6cUyCLBmwfTM\nrIcXFwHnnD0ZHPGxYLXmxe2lDad/zfN//DCoN80p7hW4AAAA\n'
p2487
sg16
g136
sg18
I432
ssg127
I0
sg447
I1
sg448
I0
sg449
g450
sg138
I0
sg451
I1
ssg16
g154
sg18
I431
sssg452
(dp2488
g2
(lp2489
((g4
g5
tI-1
tp2490
a((g7
g5
tI-1
tp2491
a((g89
g90
tI-1
tp2492
a((g92
g93
tI-1
tp2493
a((g95
g96
tI-1
tp2494
a((g426
g427
tI-1
tp2495
asg12
g426
sg13
(dp2496
g15
Nsg16
g39
sg18
I11
ssg16
g19
sg18
I443
sg20
g427
sg15
(dp2497
g15
(dp2498
g184
F1
sg432
g433
sg434
I12
sg226
F0
sg435
F0
sg436
I1
sg437
g438
sg439
I0
sg122
I0
sg440
F1.1000000000000001
sg441
(dp2499
g15
Nsg16
g39
sg18
I22
ssg443
I1
sg444
(dp2500
g15
S'H4sIAIPWm0YC/03NsQrDIBDG8f17EV0qmqRbX8DFoa6FEo2BQJOIPaG+fY+00A7/4bgfd3Gra24q\n7iWptT5oGUsZG+4lxX17UqmRkA1kPBy26bPPHaTVIC+CAF1zzyMr24G+cqKWE/IA6cUyCLBmwfTM\nrIcXFwHnnD0ZHPGxYLXmxe2lDad/zfN//DCoN80p7hW4AAAA\n'
p2501
sg16
g136
sg18
I445
ssg127
I0
sg447
I1
sg448
I0
sg449
g450
sg138
I0
sg451
I1
ssg16
g154
sg18
I444
sssg467
(dp2502
g2
(lp2503
((g4
g5
tI-1
tp2504
a((g7
g5
tI-1
tp2505
a((g89
g90
tI-1
tp2506
a((g92
g93
tI-1
tp2507
a((g95
g96
tI-1
tp2508
a((g475
g476
tI-1
tp2509
a((g478
g479
tI-1
tp2510
asg12
g478
sg13
(dp2511
g15
Nsg16
g39
sg18
I11
ssg16
g19
sg18
I433
sg20
g479
sg15
(dp2512
g15
(dp2513
g484
S'i'
sg485
I0
sg122
I0
sg486
F0.55000001192092896
sg138
I0
sg487
I0
sg488
I0
sg127
I0
sg489
I0
ssg16
g154
sg18
I434
sssg490
S''
sg491
g611
sg492
(dp2514
g15
Nsg16
g39
sg18
I435
ssg42
S''
sg407
I256
sg494
g611
sg155
S''
sg496
I01
sg497
I8
sg498
I00
sg499
(dp2515
g2
(lp2516
((g4
g5
tI-1
tp2517
a((g7
g5
tI-1
tp2518
a((g89
g90
tI-1
tp2519
a((g92
g93
tI-1
tp2520
a((g95
g96
tI-1
tp2521
a((g209
g210
tI-1
tp2522
a((g508
g509
tI-1
tp2523
a((g511
g512
tI-1
tp2524
asg12
g511
sg13
(dp2525
g15
Nsg16
g39
sg18
I11
ssg16
g19
sg18
I446
sg20
g512
sg15
(dp2526
g15
(dp2527
g122
I0
sg237
I1
sg226
g626
sg518
F0.80000000000000004
sg519
S'%-#6.3g'
p2528
sg497
I8
sg229
I1
sg230
I1
sg231
I1
sg232
I1
sg138
I0
sg521
I256
sg522
I0
sg523
(dp2529
g15
S'H4sIAIPWm0YC/2XOMQuDMBAF4P39kWSpaGxAoeCcxaGugaIxQqFqSC8Q/30P263DGx7v4zi3pTUc\nhdujL9b0oucY43jgEb3btzfF5AihgnSnwzZ/96AgTQkaxCRA91BzZWUU6CdnOoJHuEIOYmkEWLNg\nqpnVGMRNoO97c6lwho9Npix5sLkdOe1/fNvZ7GqbFy2ttblZuCqO7viLqfgAbt3QTs0AAAA=\n'
p2530
sg16
g136
sg18
I449
ssg233
I1
sg234
(dp2531
g15
S'H4sIAIPWm0YC/2XOMQuDMBAF4P39kbhUjFpQKDiWLA51DZQkplCoGtITYvvne9huHd5wvI/HuXmd\nwpa7Jfp8Wh90NzGaDdfo3TI/Ka6OECQytzvM47cPJTJVgAZhBegSKj5ZqRL0kyNtwSPUyAZxawRY\ns2B6ZFZhECeBvu/VQWIPj1lVFFzo1BpO+x/bdm+dZK2T8WedvHzp1NQdf2DzD7ndMtDJAAAA\n'
p2532
sg16
g136
sg18
I448
ssg528
F0.17000000000000001
sg127
I0
sg529
I0
ssg16
g154
sg18
I447
sssg530
(dp2533
g15
S'H4sIAIPWm0YC/53OsQrCMBQF0P3+SLIY0lbBQXDOksGsgjRpCoJNQ/oC5u99VL/A4Q6Pe7i8kOqS\nmwpriWqpL3qOpYwNjxLDmjYqNRByBxl2hzR9+9xDGg1ywgvQLQ98sjI96CcnajkiHyGdmM8CrFkw\nPTEb4MRFwFprDh328Jg3WnNxf2v9X2Z95W+8+gDYoI1C1QAAAA==\n'
p2534
sg16
g136
sg18
I450
ssg448
I00
sg533
g534
sg535
I00
ssg16
g154
sg18
I429
ssssg16
g154
sg18
I381
ssasg16
g334
sg18
I379
ssg2175
I0
ssg16
g154
sg18
I378
ssa(dp2535
g2
(lp2536
((g4
g5
tI-1
tp2537
a((g27
g5
tI-1
tp2538
a((g29
g30
tI-1
tp2539
a((g32
g33
tI0
tp2540
a((g54
g55
tI0
tp2541
a((g1324
g1325
tI0
tp2542
a((g1327
g1328
tI0
tp2543
a((g1330
g1331
tI0
tp2544
asg12
g1330
sg13
(dp2545
g15
Nsg16
g39
sg18
I1
ssg16
g19
sg18
I455
sg20
g1331
sg15
(dp2546
g15
(dp2547
g42
S''
sg1336
(dp2548
g2
(lp2549
((g1339
g1340
tI-1
tp2550
asg12
g1339
sg13
(dp2551
g15
Nsg16
g39
sg18
I1
ssg16
g19
sg18
I531
sg20
g1340
sg15
(dp2552
g15
(dp2553
g1345
S'strike-slip-fault.vtk'
p2554
sg1347
S'/home/luis/benchmarks/strike-slip-fault.vtk'
p2555
ssg16
g154
sg18
I532
sssg155
S''
sg1349
I0
sg1350
(dp2556
g2
(lp2557
((g4
g5
tI-1
tp2558
a((g7
g5
tI-1
tp2559
a((g89
g90
tI-1
tp2560
a((g92
g93
tI-1
tp2561
a((g95
g96
tI-1
tp2562
a((g98
g99
tI-1
tp2563
a((g1359
g1360
tI-1
tp2564
a((g1362
g1363
tI-1
tp2565
asg12
g1362
sg13
(dp2566
g15
Nsg16
g39
sg18
I11
ssg16
g19
sg18
I529
sg20
g1363
sg15
(dp2567
g15
(dp2568
g1368
I0
sg490
S'/home/luis/benchmarks/strike-slip-fault.vtk'
p2569
sg1370
I0
sg1371
I0
sg122
I0
sg1372
I0
sg1373
I0
sg1374
I0
sg1375
I0
sg130
I0
sg1376
I0
sg131
I0
sg132
F1
sg138
I0
sg1377
I0
sg127
I0
sg1378
I0
sg1379
I0
sg1380
I0
sg1381
I0
sg141
I0
sg1382
I0
sg1383
I0
sg1384
I0
sg148
I0
ssg16
g154
sg18
I530
sssg1385
I0
sg45
(dp2570
g15
(lp2571
(dp2572
g2
(lp2573
((g4
g5
tI-1
tp2574
a((g27
g5
tI-1
tp2575
a((g29
g30
tI-1
tp2576
a((g32
g33
tI0
tp2577
a((g35
g36
tI0
tp2578
asg12
g35
sg13
(dp2579
g15
Nsg16
g39
sg18
I1
ssg16
g19
sg18
I458
sg20
g36
sg15
(dp2580
g15
(dp2581
g42
S''
sg43
g44
sg45
(dp2582
g15
(lp2583
(dp2584
g2
(lp2585
((g4
g5
tI-1
tp2586
a((g27
g5
tI-1
tp2587
a((g29
g30
tI-1
tp2588
a((g32
g33
tI0
tp2589
a((g54
g55
tI0
tp2590
a((g57
g58
tI0
tp2591
a((g1826
g1827
tI0
tp2592
asg12
g1826
sg13
(dp2593
g15
Nsg16
g39
sg18
I1
ssg16
g19
sg18
I461
sg20
g1827
sg15
(dp2594
g15
(dp2595
g155
S''
sg1832
I00
sg42
S''
sg67
(dp2596
g2
(lp2597
((g4
g5
tI-1
tp2598
a((g27
g5
tI-1
tp2599
a((g29
g30
tI-1
tp2600
a((g32
g33
tI0
tp2601
a((g54
g55
tI0
tp2602
a((g75
g76
tI0
tp2603
a((g78
g79
tI0
tp2604
asg12
g78
sg13
(dp2605
g15
Nsg16
g39
sg18
I1
ssg16
g19
sg18
I463
sg20
g79
sg15
(dp2606
g15
(dp2607
g84
(dp2608
g2
(lp2609
((g4
g5
tI-1
tp2610
a((g7
g5
tI-1
tp2611
a((g89
g90
tI-1
tp2612
a((g92
g93
tI-1
tp2613
a((g95
g96
tI-1
tp2614
a((g98
g99
tI-1
tp2615
a((g101
g102
tI-1
tp2616
a((g104
g105
tI-1
tp2617
a((g107
g108
tI-1
tp2618
a((g1856
g1857
tI-1
tp2619
asg12
g1856
sg13
(dp2620
g15
Nsg16
g39
sg18
I11
ssg16
g19
sg18
I465
sg20
g1857
sg15
(dp2621
g15
(dp2622
g117
I0
sg118
I0
sg119
g120
sg121
I0
sg143
I0
sg123
F0.01
sg125
g120
sg126
I0
sg127
I0
sg128
I0
sg129
I1
sg130
I0
sg131
I0
sg132
F1
sg133
(dp2623
g15
S'H4sIAIPWm0YC/53OsQrCMBQF0P3+SLIY0lbBQXDOksGsgjRpCoJNQ/oC5u99VL/A4Q6Pe7i8kOqS\nmwpriWqpL3qOpYwNjxLDmjYqNRByBxl2hzR9+9xDGg1ywgvQLQ98sjI96CcnajkiHyGdmM8CrFkw\nPTEb4MRFwFprDh328Jg3WnNxf2v9X2Z95W+8+gDYoI1C1QAAAA==\n'
p2624
sg16
g136
sg18
I467
ssg137
I1
sg138
I0
sg139
I0
sg140
I1
sg141
I0
sg142
I1
sg122
I0
sg145
I0
sg151
g152
sg148
I0
sg144
I0
sg147
g120
sg153
F0
ssg16
g154
sg18
I466
sssg155
S''
sg156
(dp2625
g2
(lp2626
((g4
g5
tI-1
tp2627
a((g7
g5
tI-1
tp2628
a((g89
g90
tI-1
tp2629
a((g92
g93
tI-1
tp2630
a((g95
g96
tI-1
tp2631
a((g164
g165
tI-1
tp2632
a((g167
g168
tI-1
tp2633
asg12
g167
sg13
(dp2634
g15
Nsg16
g39
sg18
I11
ssg16
g19
sg18
I474
sg20
g168
sg15
(dp2635
g15
(dp2636
g173
(dp2637
g15
Nsg16
g39
sg18
I22
ssg175
I0
sg176
F1
sg177
(dp2638
g15
Nsg16
g39
sg18
I22
ssg180
F0
sg181
I0
sg182
g183
sg184
F0.69289999999999996
sg185
I0
sg186
F1
sg191
(dp2639
g15
Nsg16
g39
sg18
I22
ssg188
(dp2640
g15
Nsg16
g39
sg18
I22
ssg138
I0
sg190
I0
sg193
F1
sg187
I0
sg122
I0
sg195
F0
sg196
I0
sg198
I65535
sg127
I0
sg199
g1475
sg201
I1
sg194
F2
ssg16
g154
sg18
I475
sssg42
S''
sg67
(dp2641
g2
(lp2642
((g4
g5
tI-1
tp2643
a((g7
g5
tI-1
tp2644
a((g89
g90
tI-1
tp2645
a((g92
g93
tI-1
tp2646
a((g95
g96
tI-1
tp2647
a((g209
g210
tI-1
tp2648
a((g212
g213
tI-1
tp2649
a((g78
g215
tI-1
tp2650
asg12
g78
sg13
(dp2651
g15
Nsg16
g39
sg18
I11
ssg16
g19
sg18
I468
sg20
g215
sg15
(dp2652
g15
(dp2653
g220
(dp2654
g15
S'H4sIAITWm0YC/7XOMQoCMRAF0P5fJGkMWVfBwguk2cK0gmyyEQQ3O8QJmNs7RK9g8YvhPz4Tc12p\nmbiVZNb65MdcytxwKylu+cWlRgYN0LE75OXb0x7aWbBXQYEvNMopyo3gn1y4UQIdoL26nxREixB6\n7Myrs8I0TW43oEfGgrNWiuvb2n9GHg7mAy0aBDD4AAAA\n'
p2655
sg16
g136
sg18
I470
ssg223
(dp2656
g15
S'H4sIAITWm0YC/53OMQvCMBAF4P39kWQxpFbBQXDOksGsgjRpCoJtQ3oB8+89oqOTwxuO9/G4sJQ5\nVRXWHNVcnvQYch4q7jmGddkol0BIHWRoDsv46dMe0miQE16Arqnnk5XpQV85Uk0R6QDpxHQSYM2C\n6bExJ84C1lqz69DCY95ozcXtpfXvTPryf8l/evUGx/o6Le8AAAA=\n'
p2657
sg16
g136
sg18
I472
ssg226
(dp2658
g15
S'H4sIAITWm0YC/53OsQoCMRAE0H5+JGkMOU/hCn8gTQrTCnLJRRC8XIgbMH/vEu0FiymWeQwbUl1z\nU2ErUa31Qfe5lLnhWmLY0pNKDYQ8QIbukJZPn/eQRoOc8AJ0ziOfrMwI+sqFWo7IB0gnbpMAaxZM\nj505cRKw1prdgB4e80ZrLi4vrf/P9NPww169AaZN3yn4AAAA\n'
p2659
sg16
g136
sg18
I471
ssg127
I0
sg229
I1
sg230
I1
sg231
I1
sg232
I1
sg138
I0
sg122
I0
sg233
I1
sg234
(dp2660
g15
S'H4sIAITWm0YC/7XOMQoCMRAF0P5fJGkMWVfBwguk2cK0gmyyEQQ3O8QJmNs7RK9g8YvhPz4Tc12p\nmbiVZNb65MdcytxwKylu+cWlRgYN0LE75OXb0x7aWbBXQYEvNMopyo3gn1y4UQIdoL26nxREixB6\n7Myrs8I0TW43oEfGgrNWiuvb2n9GHg7mAy0aBDD4AAAA\n'
p2661
sg16
g136
sg18
I473
ssg237
I1
ssg16
g154
sg18
I469
ssssg16
g154
sg18
I464
sssg285
(dp2662
g2
(lp2663
((g4
g5
tI-1
tp2664
a((g27
g5
tI-1
tp2665
a((g29
g30
tI-1
tp2666
a((g32
g33
tI0
tp2667
a((g54
g55
tI0
tp2668
a((g75
g76
tI0
tp2669
a((g294
g295
tI0
tp2670
asg12
g294
sg13
(dp2671
g15
Nsg16
g39
sg18
I1
ssg16
g19
sg18
I476
sg20
g295
sg15
(dp2672
g15
(dp2673
g42
S''
sg300
I01
sg301
(dp2674
g15
Nsg16
g39
sg18
I1
ssg304
I00
sg305
F0
sg155
S''
sg306
(dp2675
g2
(lp2676
((g4
g5
tI-1
tp2677
a((g7
g5
tI-1
tp2678
a((g89
g90
tI-1
tp2679
a((g92
g93
tI-1
tp2680
a((g95
g96
tI-1
tp2681
a((g98
g99
tI-1
tp2682
a((g262
g263
tI-1
tp2683
a((g316
g317
tI-1
tp2684
asg12
g316
sg13
(dp2685
g15
Nsg16
g39
sg18
I11
ssg16
g19
sg18
I478
sg20
g317
sg15
(dp2686
g15
(dp2687
g322
I0
sg138
I0
sg323
I0
sg324
I1
sg325
I0
sg141
I0
sg326
I1
sg66
I1
sg327
I1
sg328
I0
sg329
I0
sg130
I0
sg122
I0
sg131
I0
sg148
I0
sg132
F0
sg330
I1
sg127
I0
ssg16
g154
sg18
I479
sssg331
(dp2688
g15
(lp2689
sg16
g334
sg18
I480
ssg335
(dp2690
g2
(lp2691
((g4
g5
tI-1
tp2692
a((g7
g5
tI-1
tp2693
a((g89
g90
tI-1
tp2694
a((g92
g93
tI-1
tp2695
a((g95
g96
tI-1
tp2696
a((g98
g99
tI-1
tp2697
a((g262
g263
tI-1
tp2698
a((g345
g346
tI-1
tp2699
asg12
g345
sg13
(dp2700
g15
Nsg16
g39
sg18
I11
ssg16
g19
sg18
I481
sg20
g346
sg15
(dp2701
g15
(dp2702
g122
I0
sg351
I1
sg141
I0
sg352
I1
sg119
g353
sg354
I0
sg127
I0
sg138
I0
sg130
I0
sg355
I1
sg131
I0
sg148
I0
sg132
F0
sg330
I1
sg356
I0
ssg16
g154
sg18
I482
sssg357
I01
sg330
I10
sg358
F0
ssg16
g154
sg18
I477
ssssg16
g154
sg18
I462
ssasg16
g334
sg18
I460
ssg155
S''
sg359
(dp2703
g2
(lp2704
((g4
g5
tI-1
tp2705
a((g27
g5
tI-1
tp2706
a((g29
g30
tI-1
tp2707
a((g32
g33
tI0
tp2708
a((g366
g367
tI0
tp2709
asg12
g366
sg13
(dp2710
g15
Nsg16
g39
sg18
I1
ssg16
g19
sg18
I483
sg20
g367
sg15
(dp2711
g15
(dp2712
g372
(dp2713
g15
S'H4sIAITWm0YC/53OsQrCMBQF0P3+SLIY0lbBQXDOksGsgjRpCoJNQ/oC5u99VL/A4Q6Pe7i8kOqS\nmwpriWqpL3qOpYwNjxLDmjYqNRByBxl2hzR9+9xDGg1ywgvQLQ98sjI96CcnajkiHyGdmM8CrFkw\nPTEb4MRFwFprDh328Jg3WnNxf2v9X2Z95W+8+gDYoI1C1QAAAA==\n'
p2714
sg16
g136
sg18
I490
ssg375
I01
sg376
(dp2715
g2
(lp2716
((g4
g5
tI-1
tp2717
a((g7
g5
tI-1
tp2718
a((g89
g90
tI-1
tp2719
a((g92
g93
tI-1
tp2720
a((g95
g96
tI-1
tp2721
a((g384
g385
tI-1
tp2722
a((g387
g388
tI-1
tp2723
asg12
g387
sg13
(dp2724
g15
Nsg16
g39
sg18
I11
ssg16
g19
sg18
I491
sg20
g388
sg15
(dp2725
g15
(dp2726
g393
I2
sg223
g394
sg395
(dp2727
g15
S'H4sIAITWm0YC/33OMQvCMBAF4P39kWQxpK2Cg+CcJYNZBWnSFASbhngB8+89qqM4vOF4H48LqS65\nqbCWqJb6oPtYythwKzGs6UmlBkLuIMPmkKZPn3tIo0FOeAG65IFPVqYHfeVELUfkPaQT81GANQum\nB2YDnDgJWGvNrsMWHvNGay6uL61/Z9bnvyW/4tUbw9sFJ9IAAAA=\n'
p2728
sg16
g136
sg18
I493
ssg398
(dp2729
g15
S'H4sIAITWm0YC/53OsQrCMBQF0P3+SLIY0lbBQXDOksGsgjRpCoJNQ/oC5u99VL/A4Q6Pe7i8kOqS\nmwpriWqpL3qOpYwNjxLDmjYqNRByBxl2hzR9+9xDGg1ywgvQLQ98sjI96CcnajkiHyGdmM8CrFkw\nPTEb4MRFwFprDh328Jg3WnNxf2v9X2Z95W+8+gDYoI1C1QAAAA==\n'
p2730
sg16
g136
sg18
I495
ssg401
(dp2731
g15
S'H4sIAITWm0YC/33OMQvCMBAF4P39kXSxpK3FCopzEDpY3ALSpBEKNg3xCum/96jODm94vI/jrF+m\nsOZ2ji6flheNfYz9ikd0dvZvioslhAKZ3Rz88N1DiUxJUCeMAN1CxZWVKkE/OdAaHMIeWSeejQBr\nFkxrZhU6cRJo21btCmzhY0ZJycNVJ9voJA9nnY7mrpOrL1zlv/ATJv8A/YiyW8wAAAA=\n'
p2732
sg16
g136
sg18
I494
ssg404
I256
sg405
g406
sg122
I0
sg407
I256
sg408
(dp2733
g15
S'H4sIAITWm0YC/33OMQvCMBAF4P39kWQxpK2Cg+CcJYNZBWnSFASbhngB8+89qqM4vOF4H48LqS65\nqbCWqJb6oPtYythwKzGs6UmlBkLuIMPmkKZPn3tIo0FOeAG65IFPVqYHfeVELUfkPaQT81GANQum\nB2YDnDgJWGvNrsMWHvNGay6uL61/Z9bnvyW/4tUbw9sFJ9IAAAA=\n'
p2734
sg16
g136
sg18
I496
ssg411
I0
sg412
(dp2735
g15
S'H4sIAITWm0YC/33OMQvCMBAF4P39kWQxpK2Cg+CcJYNZBWnSFASbhngB8+89qqM4vOF4H48LqS65\nqbCWqJb6oPtYythwKzGs6UmlBkLuIMPmkKZPn3tIo0FOeAG65IFPVqYHfeVELUfkPaQT81GANQum\nB2YDnDgJWGvNrsMWHvNGay6uL61/Z9bnvyW/4tUbw9sFJ9IAAAA=\n'
p2736
sg16
g136
sg18
I497
ssg127
I0
sg415
F1
sg416
g417
sg138
I0
ssg16
g154
sg18
I492
sssg418
(dp2737
g2
(lp2738
((g4
g5
tI-1
tp2739
a((g7
g5
tI-1
tp2740
a((g89
g90
tI-1
tp2741
a((g92
g93
tI-1
tp2742
a((g95
g96
tI-1
tp2743
a((g426
g427
tI-1
tp2744
asg12
g426
sg13
(dp2745
g15
Nsg16
g39
sg18
I11
ssg16
g19
sg18
I485
sg20
g427
sg15
(dp2746
g15
(dp2747
g184
F1
sg432
g433
sg434
I12
sg226
F0
sg435
F0
sg436
I1
sg437
g438
sg439
I0
sg122
I0
sg440
F1.1000000000000001
sg441
(dp2748
g15
Nsg16
g39
sg18
I22
ssg443
I1
sg444
(dp2749
g15
S'H4sIAITWm0YC/03NsQrDIBDG8f17EV0qmqRbX8DFoa6FEo2BQJOIPaG+fY+00A7/4bgfd3Gra24q\n7iWptT5oGUsZG+4lxX17UqmRkA1kPBy26bPPHaTVIC+CAF1zzyMr24G+cqKWE/IA6cUyCLBmwfTM\nrIcXFwHnnD0ZHPGxYLXmxe2lDad/zfN//DCoN80p7hW4AAAA\n'
p2750
sg16
g136
sg18
I487
ssg127
I0
sg447
I1
sg448
I0
sg449
g450
sg138
I0
sg451
I1
ssg16
g154
sg18
I486
sssg452
(dp2751
g2
(lp2752
((g4
g5
tI-1
tp2753
a((g7
g5
tI-1
tp2754
a((g89
g90
tI-1
tp2755
a((g92
g93
tI-1
tp2756
a((g95
g96
tI-1
tp2757
a((g426
g427
tI-1
tp2758
asg12
g426
sg13
(dp2759
g15
Nsg16
g39
sg18
I11
ssg16
g19
sg18
I498
sg20
g427
sg15
(dp2760
g15
(dp2761
g184
F1
sg432
g433
sg434
I12
sg226
F0
sg435
F0
sg436
I1
sg437
g438
sg439
I0
sg122
I0
sg440
F1.1000000000000001
sg441
(dp2762
g15
Nsg16
g39
sg18
I22
ssg443
I1
sg444
(dp2763
g15
S'H4sIAITWm0YC/03NsQrDIBDG8f17EV0qmqRbX8DFoa6FEo2BQJOIPaG+fY+00A7/4bgfd3Gra24q\n7iWptT5oGUsZG+4lxX17UqmRkA1kPBy26bPPHaTVIC+CAF1zzyMr24G+cqKWE/IA6cUyCLBmwfTM\nrIcXFwHnnD0ZHPGxYLXmxe2lDad/zfN//DCoN80p7hW4AAAA\n'
p2764
sg16
g136
sg18
I500
ssg127
I0
sg447
I1
sg448
I0
sg449
g450
sg138
I0
sg451
I1
ssg16
g154
sg18
I499
sssg467
(dp2765
g2
(lp2766
((g4
g5
tI-1
tp2767
a((g7
g5
tI-1
tp2768
a((g89
g90
tI-1
tp2769
a((g92
g93
tI-1
tp2770
a((g95
g96
tI-1
tp2771
a((g475
g476
tI-1
tp2772
a((g478
g479
tI-1
tp2773
asg12
g478
sg13
(dp2774
g15
Nsg16
g39
sg18
I11
ssg16
g19
sg18
I488
sg20
g479
sg15
(dp2775
g15
(dp2776
g484
S'i'
sg485
I0
sg122
I0
sg486
F0.55000001192092896
sg138
I0
sg487
I0
sg488
I0
sg127
I0
sg489
I0
ssg16
g154
sg18
I489
sssg490
S''
sg491
g2418
sg492
(dp2777
g15
Nsg16
g39
sg18
I490
ssg42
S''
sg407
I256
sg494
g2418
sg155
S''
sg496
I01
sg497
I8
sg498
I00
sg499
(dp2778
g2
(lp2779
((g4
g5
tI-1
tp2780
a((g7
g5
tI-1
tp2781
a((g89
g90
tI-1
tp2782
a((g92
g93
tI-1
tp2783
a((g95
g96
tI-1
tp2784
a((g209
g210
tI-1
tp2785
a((g508
g509
tI-1
tp2786
a((g511
g512
tI-1
tp2787
asg12
g511
sg13
(dp2788
g15
Nsg16
g39
sg18
I11
ssg16
g19
sg18
I501
sg20
g512
sg15
(dp2789
g15
(dp2790
g122
I0
sg237
I1
sg226
g626
sg518
F0.80000000000000004
sg519
S'%-#6.3g'
p2791
sg497
I8
sg229
I1
sg230
I1
sg231
I1
sg232
I1
sg138
I0
sg521
I256
sg522
I0
sg523
(dp2792
g15
S'H4sIAITWm0YC/2XOMQuDMBAF4P39kWSpaGxAoeCcxaGugaIxQqFqSC8Q/30P263DGx7v4zi3pTUc\nhdujL9b0oucY43jgEb3btzfF5AihgnSnwzZ/96AgTQkaxCRA91BzZWUU6CdnOoJHuEIOYmkEWLNg\nqpnVGMRNoO97c6lwho9Npix5sLkdOe1/fNvZ7GqbFy2ttblZuCqO7viLqfgAbt3QTs0AAAA=\n'
p2793
sg16
g136
sg18
I504
ssg233
I1
sg234
(dp2794
g15
S'H4sIAITWm0YC/2XOMQuDMBAF4P39kbhUjFpQKDiWLA51DZQkplCoGtITYvvne9huHd5wvI/HuXmd\nwpa7Jfp8Wh90NzGaDdfo3TI/Ka6OECQytzvM47cPJTJVgAZhBegSKj5ZqRL0kyNtwSPUyAZxawRY\ns2B6ZFZhECeBvu/VQWIPj1lVFFzo1BpO+x/bdm+dZK2T8WedvHzp1NQdf2DzD7ndMtDJAAAA\n'
p2795
sg16
g136
sg18
I503
ssg528
F0.17000000000000001
sg127
I0
sg529
I0
ssg16
g154
sg18
I502
sssg530
(dp2796
g15
S'H4sIAITWm0YC/53OsQrCMBQF0P3+SLIY0lbBQXDOksGsgjRpCoJNQ/oC5u99VL/A4Q6Pe7i8kOqS\nmwpriWqpL3qOpYwNjxLDmjYqNRByBxl2hzR9+9xDGg1ywgvQLQ98sjI96CcnajkiHyGdmM8CrFkw\nPTEb4MRFwFprDh328Jg3WnNxf2v9X2Z95W+8+gDYoI1C1QAAAA==\n'
p2797
sg16
g136
sg18
I505
ssg448
I00
sg533
g534
sg535
I00
ssg16
g154
sg18
I484
sssg536
(dp2798
g2
(lp2799
((g4
g5
tI-1
tp2800
a((g27
g5
tI-1
tp2801
a((g29
g30
tI-1
tp2802
a((g32
g33
tI0
tp2803
a((g366
g367
tI0
tp2804
asg12
g366
sg13
(dp2805
g15
Nsg16
g39
sg18
I1
ssg16
g19
sg18
I506
sg20
g367
sg15
(dp2806
g15
(dp2807
g372
(dp2808
g15
S'H4sIAITWm0YC/53OsQrCMBQF0P3+SLIY0lbBQXDOksGsgjRpCoJNQ/oC5u99VL/A4Q6Pe7i8kOqS\nmwpriWqpL3qOpYwNjxLDmjYqNRByBxl2hzR9+9xDGg1ywgvQLQ98sjI96CcnajkiHyGdmM8CrFkw\nPTEb4MRFwFprDh328Jg3WnNxf2v9X2Z95W+8+gDYoI1C1QAAAA==\n'
p2809
sg16
g136
sg18
I513
ssg375
I01
sg376
(dp2810
g2
(lp2811
((g4
g5
tI-1
tp2812
a((g7
g5
tI-1
tp2813
a((g89
g90
tI-1
tp2814
a((g92
g93
tI-1
tp2815
a((g95
g96
tI-1
tp2816
a((g384
g385
tI-1
tp2817
a((g387
g388
tI-1
tp2818
asg12
g387
sg13
(dp2819
g15
Nsg16
g39
sg18
I11
ssg16
g19
sg18
I514
sg20
g388
sg15
(dp2820
g15
(dp2821
g393
I2
sg223
g394
sg395
(dp2822
g15
S'H4sIAITWm0YC/33OMQvCMBAF4P39kWQxpK2Cg+CcJYNZBWnSFASbhngB8+89qqM4vOF4H48LqS65\nqbCWqJb6oPtYythwKzGs6UmlBkLuIMPmkKZPn3tIo0FOeAG65IFPVqYHfeVELUfkPaQT81GANQum\nB2YDnDgJWGvNrsMWHvNGay6uL61/Z9bnvyW/4tUbw9sFJ9IAAAA=\n'
p2823
sg16
g136
sg18
I516
ssg398
(dp2824
g15
S'H4sIAITWm0YC/53OsQrCMBQF0P3+SLIY0lbBQXDOksGsgjRpCoJNQ/oC5u99VL/A4Q6Pe7i8kOqS\nmwpriWqpL3qOpYwNjxLDmjYqNRByBxl2hzR9+9xDGg1ywgvQLQ98sjI96CcnajkiHyGdmM8CrFkw\nPTEb4MRFwFprDh328Jg3WnNxf2v9X2Z95W+8+gDYoI1C1QAAAA==\n'
p2825
sg16
g136
sg18
I518
ssg401
(dp2826
g15
S'H4sIAITWm0YC/33OMQvCMBAF4P39kXSxpK3FCopzEDpY3ALSpBEKNg3xCum/96jODm94vI/jrF+m\nsOZ2ji6flheNfYz9ikd0dvZvioslhAKZ3Rz88N1DiUxJUCeMAN1CxZWVKkE/OdAaHMIeWSeejQBr\nFkxrZhU6cRJo21btCmzhY0ZJycNVJ9voJA9nnY7mrpOrL1zlv/ATJv8A/YiyW8wAAAA=\n'
p2827
sg16
g136
sg18
I517
ssg404
I256
sg405
g406
sg122
I0
sg407
I256
sg408
(dp2828
g15
S'H4sIAITWm0YC/33OMQvCMBAF4P39kWQxpK2Cg+CcJYNZBWnSFASbhngB8+89qqM4vOF4H48LqS65\nqbCWqJb6oPtYythwKzGs6UmlBkLuIMPmkKZPn3tIo0FOeAG65IFPVqYHfeVELUfkPaQT81GANQum\nB2YDnDgJWGvNrsMWHvNGay6uL61/Z9bnvyW/4tUbw9sFJ9IAAAA=\n'
p2829
sg16
g136
sg18
I519
ssg411
I0
sg412
(dp2830
g15
S'H4sIAITWm0YC/33OMQvCMBAF4P39kWQxpK2Cg+CcJYNZBWnSFASbhngB8+89qqM4vOF4H48LqS65\nqbCWqJb6oPtYythwKzGs6UmlBkLuIMPmkKZPn3tIo0FOeAG65IFPVqYHfeVELUfkPaQT81GANQum\nB2YDnDgJWGvNrsMWHvNGay6uL61/Z9bnvyW/4tUbw9sFJ9IAAAA=\n'
p2831
sg16
g136
sg18
I520
ssg127
I0
sg415
F1
sg416
g417
sg138
I0
ssg16
g154
sg18
I515
sssg418
(dp2832
g2
(lp2833
((g4
g5
tI-1
tp2834
a((g7
g5
tI-1
tp2835
a((g89
g90
tI-1
tp2836
a((g92
g93
tI-1
tp2837
a((g95
g96
tI-1
tp2838
a((g426
g427
tI-1
tp2839
asg12
g426
sg13
(dp2840
g15
Nsg16
g39
sg18
I11
ssg16
g19
sg18
I508
sg20
g427
sg15
(dp2841
g15
(dp2842
g184
F1
sg432
g433
sg434
I12
sg226
F0
sg435
F0
sg436
I1
sg437
g438
sg439
I0
sg122
I0
sg440
F1.1000000000000001
sg441
(dp2843
g15
Nsg16
g39
sg18
I22
ssg443
I1
sg444
(dp2844
g15
S'H4sIAITWm0YC/03NsQrDIBDG8f17EV0qmqRbX8DFoa6FEo2BQJOIPaG+fY+00A7/4bgfd3Gra24q\n7iWptT5oGUsZG+4lxX17UqmRkA1kPBy26bPPHaTVIC+CAF1zzyMr24G+cqKWE/IA6cUyCLBmwfTM\nrIcXFwHnnD0ZHPGxYLXmxe2lDad/zfN//DCoN80p7hW4AAAA\n'
p2845
sg16
g136
sg18
I510
ssg127
I0
sg447
I1
sg448
I0
sg449
g450
sg138
I0
sg451
I1
ssg16
g154
sg18
I509
sssg452
(dp2846
g2
(lp2847
((g4
g5
tI-1
tp2848
a((g7
g5
tI-1
tp2849
a((g89
g90
tI-1
tp2850
a((g92
g93
tI-1
tp2851
a((g95
g96
tI-1
tp2852
a((g426
g427
tI-1
tp2853
asg12
g426
sg13
(dp2854
g15
Nsg16
g39
sg18
I11
ssg16
g19
sg18
I521
sg20
g427
sg15
(dp2855
g15
(dp2856
g184
F1
sg432
g433
sg434
I12
sg226
F0
sg435
F0
sg436
I1
sg437
g438
sg439
I0
sg122
I0
sg440
F1.1000000000000001
sg441
(dp2857
g15
Nsg16
g39
sg18
I22
ssg443
I1
sg444
(dp2858
g15
S'H4sIAIXWm0YC/03NsQrDIBDG8f17EV0qmqRbX8DFoa6FEo2BQJOIPaG+fY+00A7/4bgfd3Gra24q\n7iWptT5oGUsZG+4lxX17UqmRkA1kPBy26bPPHaTVIC+CAF1zzyMr24G+cqKWE/IA6cUyCLBmwfTM\nrIcXFwHnnD0ZHPGxYLXmxe2lDad/zfN//DCoN80p7hW4AAAA\n'
p2859
sg16
g136
sg18
I523
ssg127
I0
sg447
I1
sg448
I0
sg449
g450
sg138
I0
sg451
I1
ssg16
g154
sg18
I522
sssg467
(dp2860
g2
(lp2861
((g4
g5
tI-1
tp2862
a((g7
g5
tI-1
tp2863
a((g89
g90
tI-1
tp2864
a((g92
g93
tI-1
tp2865
a((g95
g96
tI-1
tp2866
a((g475
g476
tI-1
tp2867
a((g478
g479
tI-1
tp2868
asg12
g478
sg13
(dp2869
g15
Nsg16
g39
sg18
I11
ssg16
g19
sg18
I511
sg20
g479
sg15
(dp2870
g15
(dp2871
g484
S'i'
sg485
I0
sg122
I0
sg486
F0.55000001192092896
sg138
I0
sg487
I0
sg488
I0
sg127
I0
sg489
I0
ssg16
g154
sg18
I512
sssg490
S''
sg491
g611
sg492
(dp2872
g15
Nsg16
g39
sg18
I513
ssg42
S''
sg407
I256
sg494
g611
sg155
S''
sg496
I01
sg497
I8
sg498
I00
sg499
(dp2873
g2
(lp2874
((g4
g5
tI-1
tp2875
a((g7
g5
tI-1
tp2876
a((g89
g90
tI-1
tp2877
a((g92
g93
tI-1
tp2878
a((g95
g96
tI-1
tp2879
a((g209
g210
tI-1
tp2880
a((g508
g509
tI-1
tp2881
a((g511
g512
tI-1
tp2882
asg12
g511
sg13
(dp2883
g15
Nsg16
g39
sg18
I11
ssg16
g19
sg18
I524
sg20
g512
sg15
(dp2884
g15
(dp2885
g122
I0
sg237
I1
sg226
g626
sg518
F0.80000000000000004
sg519
S'%-#6.3g'
p2886
sg497
I8
sg229
I1
sg230
I1
sg231
I1
sg232
I1
sg138
I0
sg521
I256
sg522
I0
sg523
(dp2887
g15
S'H4sIAIXWm0YC/2XOMQuDMBAF4P39kWSpaGxAoeCcxaGugaIxQqFqSC8Q/30P263DGx7v4zi3pTUc\nhdujL9b0oucY43jgEb3btzfF5AihgnSnwzZ/96AgTQkaxCRA91BzZWUU6CdnOoJHuEIOYmkEWLNg\nqpnVGMRNoO97c6lwho9Npix5sLkdOe1/fNvZ7GqbFy2ttblZuCqO7viLqfgAbt3QTs0AAAA=\n'
p2888
sg16
g136
sg18
I527
ssg233
I1
sg234
(dp2889
g15
S'H4sIAIXWm0YC/2XOMQuDMBAF4P39kbhUjFpQKDiWLA51DZQkplCoGtITYvvne9huHd5wvI/HuXmd\nwpa7Jfp8Wh90NzGaDdfo3TI/Ka6OECQytzvM47cPJTJVgAZhBegSKj5ZqRL0kyNtwSPUyAZxawRY\ns2B6ZFZhECeBvu/VQWIPj1lVFFzo1BpO+x/bdm+dZK2T8WedvHzp1NQdf2DzD7ndMtDJAAAA\n'
p2890
sg16
g136
sg18
I526
ssg528
F0.17000000000000001
sg127
I0
sg529
I0
ssg16
g154
sg18
I525
sssg530
(dp2891
g15
S'H4sIAIXWm0YC/53OsQrCMBQF0P3+SLIY0lbBQXDOksGsgjRpCoJNQ/oC5u99VL/A4Q6Pe7i8kOqS\nmwpriWqpL3qOpYwNjxLDmjYqNRByBxl2hzR9+9xDGg1ywgvQLQ98sjI96CcnajkiHyGdmM8CrFkw\nPTEb4MRFwFprDh328Jg3WnNxf2v9X2Z95W+8+gDYoI1C1QAAAA==\n'
p2892
sg16
g136
sg18
I528
ssg448
I00
sg533
g534
sg535
I00
ssg16
g154
sg18
I507
ssssg16
g154
sg18
I459
ssasg16
g334
sg18
I457
ssg2175
I0
ssg16
g154
sg18
I456
ssasg16
g334
sg18
I205
sssg16
g154
sg18
I83
ssasg16
g334
sg18
I81
sssg16
g154
sg18
I2
ss.